	.file	"ArduinoDiagnosticConsumer.cpp"
                                        # Start of file scope inline assembly
	.globl	_ZSt21ios_base_library_initv

                                        # End of file scope inline assembly
	.section	.text._ZN5clang23ConstructionContextItem15getKindAsStringENS0_8ItemKindE,"axG",@progbits,_ZN5clang23ConstructionContextItem15getKindAsStringENS0_8ItemKindE,comdat
	.weak	_ZN5clang23ConstructionContextItem15getKindAsStringENS0_8ItemKindE # -- Begin function _ZN5clang23ConstructionContextItem15getKindAsStringENS0_8ItemKindE
	.p2align	4
	.type	_ZN5clang23ConstructionContextItem15getKindAsStringENS0_8ItemKindE,@function
_ZN5clang23ConstructionContextItem15getKindAsStringENS0_8ItemKindE: # @_ZN5clang23ConstructionContextItem15getKindAsStringENS0_8ItemKindE
	.cfi_startproc
# %bb.0:
	pushq	%rbp
	.cfi_def_cfa_offset 16
	.cfi_offset %rbp, -16
	movq	%rsp, %rbp
	.cfi_def_cfa_register %rbp
	subq	$64, %rsp
	movq	%fs:40, %rax
	movq	%rax, -8(%rbp)
	movl	%edi, -28(%rbp)
	movl	-28(%rbp), %eax
                                        # kill: def $rax killed $eax
	movq	%rax, -40(%rbp)                 # 8-byte Spill
	subq	$9, %rax
	ja	.LBB0_11
# %bb.16:
	movq	-40(%rbp), %rax                 # 8-byte Reload
	leaq	.LJTI0_0(%rip), %rcx
	movslq	(%rcx,%rax,4), %rax
	addq	%rcx, %rax
	jmpq	*%rax
.LBB0_1:
	leaq	-24(%rbp), %rdi
	leaq	.L.str(%rip), %rsi
	callq	_ZN4llvm9StringRefC2EPKc
	jmp	.LBB0_13
.LBB0_2:
	leaq	-24(%rbp), %rdi
	leaq	.L.str.1(%rip), %rsi
	callq	_ZN4llvm9StringRefC2EPKc
	jmp	.LBB0_13
.LBB0_3:
	leaq	-24(%rbp), %rdi
	leaq	.L.str.2(%rip), %rsi
	callq	_ZN4llvm9StringRefC2EPKc
	jmp	.LBB0_13
.LBB0_4:
	leaq	-24(%rbp), %rdi
	leaq	.L.str.3(%rip), %rsi
	callq	_ZN4llvm9StringRefC2EPKc
	jmp	.LBB0_13
.LBB0_5:
	leaq	-24(%rbp), %rdi
	leaq	.L.str.4(%rip), %rsi
	callq	_ZN4llvm9StringRefC2EPKc
	jmp	.LBB0_13
.LBB0_6:
	leaq	-24(%rbp), %rdi
	leaq	.L.str.5(%rip), %rsi
	callq	_ZN4llvm9StringRefC2EPKc
	jmp	.LBB0_13
.LBB0_7:
	leaq	-24(%rbp), %rdi
	leaq	.L.str.6(%rip), %rsi
	callq	_ZN4llvm9StringRefC2EPKc
	jmp	.LBB0_13
.LBB0_8:
	leaq	-24(%rbp), %rdi
	leaq	.L.str.7(%rip), %rsi
	callq	_ZN4llvm9StringRefC2EPKc
	jmp	.LBB0_13
.LBB0_9:
	leaq	-24(%rbp), %rdi
	leaq	.L.str.8(%rip), %rsi
	callq	_ZN4llvm9StringRefC2EPKc
	jmp	.LBB0_13
.LBB0_10:
	leaq	-24(%rbp), %rdi
	leaq	.L.str.9(%rip), %rsi
	callq	_ZN4llvm9StringRefC2EPKc
	jmp	.LBB0_13
.LBB0_11:
	movq	%fs:40, %rax
	movq	-8(%rbp), %rcx
	cmpq	%rcx, %rax
	jne	.LBB0_15
# %bb.12:
	leaq	.L.str.10(%rip), %rdi
	leaq	.L.str.11(%rip), %rsi
	movl	$63, %edx
	callq	_ZN4llvm25llvm_unreachable_internalEPKcS1_j@PLT
.LBB0_13:
	movq	-24(%rbp), %rax
	movq	%rax, -56(%rbp)                 # 8-byte Spill
	movq	-16(%rbp), %rax
	movq	%rax, -48(%rbp)                 # 8-byte Spill
	movq	%fs:40, %rax
	movq	-8(%rbp), %rcx
	cmpq	%rcx, %rax
	jne	.LBB0_15
# %bb.14:
	movq	-48(%rbp), %rdx                 # 8-byte Reload
	movq	-56(%rbp), %rax                 # 8-byte Reload
	addq	$64, %rsp
	popq	%rbp
	.cfi_def_cfa %rsp, 8
	retq
.LBB0_15:
	.cfi_def_cfa %rbp, 16
	callq	__stack_chk_fail@PLT
.Lfunc_end0:
	.size	_ZN5clang23ConstructionContextItem15getKindAsStringENS0_8ItemKindE, .Lfunc_end0-_ZN5clang23ConstructionContextItem15getKindAsStringENS0_8ItemKindE
	.cfi_endproc
	.section	.rodata._ZN5clang23ConstructionContextItem15getKindAsStringENS0_8ItemKindE,"aG",@progbits,_ZN5clang23ConstructionContextItem15getKindAsStringENS0_8ItemKindE,comdat
	.p2align	2, 0x0
.LJTI0_0:
	.long	.LBB0_1-.LJTI0_0
	.long	.LBB0_2-.LJTI0_0
	.long	.LBB0_3-.LJTI0_0
	.long	.LBB0_4-.LJTI0_0
	.long	.LBB0_5-.LJTI0_0
	.long	.LBB0_6-.LJTI0_0
	.long	.LBB0_7-.LJTI0_0
	.long	.LBB0_8-.LJTI0_0
	.long	.LBB0_9-.LJTI0_0
	.long	.LBB0_10-.LJTI0_0
                                        # -- End function
	.section	.text._ZN4llvm9StringRefC2EPKc,"axG",@progbits,_ZN4llvm9StringRefC2EPKc,comdat
	.weak	_ZN4llvm9StringRefC2EPKc        # -- Begin function _ZN4llvm9StringRefC2EPKc
	.p2align	4
	.type	_ZN4llvm9StringRefC2EPKc,@function
_ZN4llvm9StringRefC2EPKc:               # @_ZN4llvm9StringRefC2EPKc
	.cfi_startproc
# %bb.0:
	pushq	%rbp
	.cfi_def_cfa_offset 16
	.cfi_offset %rbp, -16
	movq	%rsp, %rbp
	.cfi_def_cfa_register %rbp
	subq	$32, %rsp
	movq	%rdi, -8(%rbp)
	movq	%rsi, -16(%rbp)
	movq	-8(%rbp), %rax
	movq	-16(%rbp), %rcx
	movq	%rcx, (%rax)
	addq	$8, %rax
	movq	%rax, -24(%rbp)                 # 8-byte Spill
	cmpq	$0, -16(%rbp)
	je	.LBB1_2
# %bb.1:
	movq	-16(%rbp), %rdi
	callq	_ZNSt11char_traitsIcE6lengthEPKc
	movq	%rax, -32(%rbp)                 # 8-byte Spill
	jmp	.LBB1_3
.LBB1_2:
	xorl	%eax, %eax
                                        # kill: def $rax killed $eax
	movq	%rax, -32(%rbp)                 # 8-byte Spill
	jmp	.LBB1_3
.LBB1_3:
	movq	-24(%rbp), %rax                 # 8-byte Reload
	movq	-32(%rbp), %rcx                 # 8-byte Reload
	movq	%rcx, (%rax)
	addq	$32, %rsp
	popq	%rbp
	.cfi_def_cfa %rsp, 8
	retq
.Lfunc_end1:
	.size	_ZN4llvm9StringRefC2EPKc, .Lfunc_end1-_ZN4llvm9StringRefC2EPKc
	.cfi_endproc
                                        # -- End function
	.section	.text._ZNK5clang23ConstructionContextItem15getKindAsStringEv,"axG",@progbits,_ZNK5clang23ConstructionContextItem15getKindAsStringEv,comdat
	.weak	_ZNK5clang23ConstructionContextItem15getKindAsStringEv # -- Begin function _ZNK5clang23ConstructionContextItem15getKindAsStringEv
	.p2align	4
	.type	_ZNK5clang23ConstructionContextItem15getKindAsStringEv,@function
_ZNK5clang23ConstructionContextItem15getKindAsStringEv: # @_ZNK5clang23ConstructionContextItem15getKindAsStringEv
	.cfi_startproc
# %bb.0:
	pushq	%rbp
	.cfi_def_cfa_offset 16
	.cfi_offset %rbp, -16
	movq	%rsp, %rbp
	.cfi_def_cfa_register %rbp
	subq	$32, %rsp
	movq	%rdi, -24(%rbp)
	movq	-24(%rbp), %rdi
	callq	_ZNK5clang23ConstructionContextItem7getKindEv
	movl	%eax, %edi
	callq	_ZN5clang23ConstructionContextItem15getKindAsStringENS0_8ItemKindE
	movq	%rax, -16(%rbp)
	movq	%rdx, -8(%rbp)
	movq	-16(%rbp), %rax
	movq	-8(%rbp), %rdx
	addq	$32, %rsp
	popq	%rbp
	.cfi_def_cfa %rsp, 8
	retq
.Lfunc_end2:
	.size	_ZNK5clang23ConstructionContextItem15getKindAsStringEv, .Lfunc_end2-_ZNK5clang23ConstructionContextItem15getKindAsStringEv
	.cfi_endproc
                                        # -- End function
	.section	.text._ZNK5clang23ConstructionContextItem7getKindEv,"axG",@progbits,_ZNK5clang23ConstructionContextItem7getKindEv,comdat
	.weak	_ZNK5clang23ConstructionContextItem7getKindEv # -- Begin function _ZNK5clang23ConstructionContextItem7getKindEv
	.p2align	4
	.type	_ZNK5clang23ConstructionContextItem7getKindEv,@function
_ZNK5clang23ConstructionContextItem7getKindEv: # @_ZNK5clang23ConstructionContextItem7getKindEv
	.cfi_startproc
# %bb.0:
	pushq	%rbp
	.cfi_def_cfa_offset 16
	.cfi_offset %rbp, -16
	movq	%rsp, %rbp
	.cfi_def_cfa_register %rbp
	movq	%rdi, -8(%rbp)
	movq	-8(%rbp), %rax
	movl	8(%rax), %eax
	popq	%rbp
	.cfi_def_cfa %rsp, 8
	retq
.Lfunc_end3:
	.size	_ZNK5clang23ConstructionContextItem7getKindEv, .Lfunc_end3-_ZNK5clang23ConstructionContextItem7getKindEv
	.cfi_endproc
                                        # -- End function
	.text
	.globl	_ZN25ArduinoDiagnosticConsumer30collectUndeclaredIdentifiersInER15IdentifiersList # -- Begin function _ZN25ArduinoDiagnosticConsumer30collectUndeclaredIdentifiersInER15IdentifiersList
	.p2align	4
	.type	_ZN25ArduinoDiagnosticConsumer30collectUndeclaredIdentifiersInER15IdentifiersList,@function
_ZN25ArduinoDiagnosticConsumer30collectUndeclaredIdentifiersInER15IdentifiersList: # @_ZN25ArduinoDiagnosticConsumer30collectUndeclaredIdentifiersInER15IdentifiersList
	.cfi_startproc
# %bb.0:
	pushq	%rbp
	.cfi_def_cfa_offset 16
	.cfi_offset %rbp, -16
	movq	%rsp, %rbp
	.cfi_def_cfa_register %rbp
	movq	%rdi, -8(%rbp)
	movq	%rsi, -16(%rbp)
	movq	-8(%rbp), %rax
	movq	-16(%rbp), %rcx
	movq	%rcx, 16(%rax)
	popq	%rbp
	.cfi_def_cfa %rsp, 8
	retq
.Lfunc_end4:
	.size	_ZN25ArduinoDiagnosticConsumer30collectUndeclaredIdentifiersInER15IdentifiersList, .Lfunc_end4-_ZN25ArduinoDiagnosticConsumer30collectUndeclaredIdentifiersInER15IdentifiersList
	.cfi_endproc
                                        # -- End function
	.globl	_ZN25ArduinoDiagnosticConsumer23outputJsonDiagnosticsToERN4llvm11raw_ostreamE # -- Begin function _ZN25ArduinoDiagnosticConsumer23outputJsonDiagnosticsToERN4llvm11raw_ostreamE
	.p2align	4
	.type	_ZN25ArduinoDiagnosticConsumer23outputJsonDiagnosticsToERN4llvm11raw_ostreamE,@function
_ZN25ArduinoDiagnosticConsumer23outputJsonDiagnosticsToERN4llvm11raw_ostreamE: # @_ZN25ArduinoDiagnosticConsumer23outputJsonDiagnosticsToERN4llvm11raw_ostreamE
	.cfi_startproc
# %bb.0:
	pushq	%rbp
	.cfi_def_cfa_offset 16
	.cfi_offset %rbp, -16
	movq	%rsp, %rbp
	.cfi_def_cfa_register %rbp
	movq	%rdi, -8(%rbp)
	movq	%rsi, -16(%rbp)
	movq	-8(%rbp), %rax
	movq	-16(%rbp), %rcx
	movq	%rcx, 24(%rax)
	popq	%rbp
	.cfi_def_cfa %rsp, 8
	retq
.Lfunc_end5:
	.size	_ZN25ArduinoDiagnosticConsumer23outputJsonDiagnosticsToERN4llvm11raw_ostreamE, .Lfunc_end5-_ZN25ArduinoDiagnosticConsumer23outputJsonDiagnosticsToERN4llvm11raw_ostreamE
	.cfi_endproc
                                        # -- End function
	.globl	_ZN25ArduinoDiagnosticConsumer16HandleDiagnosticEN5clang17DiagnosticsEngine5LevelERKNS0_10DiagnosticE # -- Begin function _ZN25ArduinoDiagnosticConsumer16HandleDiagnosticEN5clang17DiagnosticsEngine5LevelERKNS0_10DiagnosticE
	.p2align	4
	.type	_ZN25ArduinoDiagnosticConsumer16HandleDiagnosticEN5clang17DiagnosticsEngine5LevelERKNS0_10DiagnosticE,@function
_ZN25ArduinoDiagnosticConsumer16HandleDiagnosticEN5clang17DiagnosticsEngine5LevelERKNS0_10DiagnosticE: # @_ZN25ArduinoDiagnosticConsumer16HandleDiagnosticEN5clang17DiagnosticsEngine5LevelERKNS0_10DiagnosticE
.Lfunc_begin0:
	.cfi_startproc
	.cfi_personality 155, DW.ref.__gxx_personality_v0
	.cfi_lsda 27, .Lexception0
# %bb.0:
	pushq	%rbp
	.cfi_def_cfa_offset 16
	.cfi_offset %rbp, -16
	movq	%rsp, %rbp
	.cfi_def_cfa_register %rbp
	subq	$1712, %rsp                     # imm = 0x6B0
	movq	%fs:40, %rax
	movq	%rax, -8(%rbp)
	movq	%rdi, -856(%rbp)
	movl	%esi, -860(%rbp)
	movq	%rdx, -872(%rbp)
	movq	-856(%rbp), %rax
	movq	%rax, -1088(%rbp)               # 8-byte Spill
	cmpq	$0, 16(%rax)
	je	.LBB6_26
# %bb.1:
	cmpl	$4, -860(%rbp)
	jne	.LBB6_26
# %bb.2:
	movq	-872(%rbp), %rdi
	callq	_ZNK5clang10Diagnostic16getSourceManagerEv
	movq	%rax, -880(%rbp)
	movq	-872(%rbp), %rdi
	callq	_ZNK5clang10Diagnostic11getLocationEv
	movq	%rax, -888(%rbp)
	movq	-880(%rbp), %rdi
	movq	-888(%rbp), %rax
	movl	(%rax), %eax
	movl	%eax, -688(%rbp)
	movl	-688(%rbp), %esi
	callq	_ZNK5clang13SourceManager14getSpellingLocENS_14SourceLocationE
	movl	%eax, -684(%rbp)
	leaq	-684(%rbp), %rax
	movq	%rax, -896(%rbp)
	movq	-880(%rbp), %rsi
	movq	-896(%rbp), %rax
	movl	(%rax), %eax
	movl	%eax, -716(%rbp)
	movl	-716(%rbp), %edx
	leaq	-712(%rbp), %rdi
	movl	$1, %ecx
	callq	_ZNK5clang13SourceManager14getPresumedLocENS_14SourceLocationEb@PLT
	leaq	-712(%rbp), %rdi
	callq	_ZNK5clang11PresumedLoc11getFilenameEv
	movq	%rax, -904(%rbp)
	movq	debugOutput@GOTPCREL(%rip), %rax
	testb	$1, (%rax)
	je	.LBB6_4
# %bb.3:
	callq	_ZN4llvm4outsEv@PLT
	movq	%rax, -1104(%rbp)               # 8-byte Spill
	movq	-880(%rbp), %rdi
	movq	-896(%rbp), %rax
	movl	(%rax), %eax
	movl	%eax, -720(%rbp)
	movl	-720(%rbp), %esi
	xorl	%eax, %eax
	movl	%eax, %edx
	callq	_ZNK5clang13SourceManager21getSpellingLineNumberENS_14SourceLocationEPb@PLT
	movq	-1104(%rbp), %rdi               # 8-byte Reload
	movl	%eax, %esi
	callq	_ZN4llvm11raw_ostreamlsEj
	movq	%rax, %rdi
	leaq	.L.str.12(%rip), %rsi
	callq	_ZN4llvm11raw_ostreamlsEPKc
	movq	%rax, -1096(%rbp)               # 8-byte Spill
	movq	-880(%rbp), %rdi
	movq	-896(%rbp), %rax
	movl	(%rax), %eax
	movl	%eax, -724(%rbp)
	movl	-724(%rbp), %esi
	xorl	%eax, %eax
	movl	%eax, %edx
	callq	_ZNK5clang13SourceManager23getSpellingColumnNumberENS_14SourceLocationEPb@PLT
	movq	-1096(%rbp), %rdi               # 8-byte Reload
	movl	%eax, %esi
	callq	_ZN4llvm11raw_ostreamlsEj
	movq	%rax, %rdi
	leaq	.L.str.13(%rip), %rsi
	callq	_ZN4llvm11raw_ostreamlsEPKc
	callq	_ZN4llvm4outsEv@PLT
	movq	%rax, %rdi
	movq	-904(%rbp), %rsi
	callq	_ZN4llvm11raw_ostreamlsEPKc
	movq	%rax, %rdi
	leaq	.L.str.14(%rip), %rsi
	callq	_ZN4llvm11raw_ostreamlsEPKc
.LBB6_4:
	movq	-904(%rbp), %rdi
	leaq	.L.str.15(%rip), %rsi
	callq	_Z12cStrEndsWithPKcS0_
	testb	$1, %al
	jne	.LBB6_8
# %bb.5:
	movq	debugOutput@GOTPCREL(%rip), %rax
	testb	$1, (%rax)
	je	.LBB6_7
# %bb.6:
	callq	_ZN4llvm4outsEv@PLT
	movq	%rax, %rdi
	leaq	.L.str.16(%rip), %rsi
	callq	_ZN4llvm11raw_ostreamlsEPKc
.LBB6_7:
	jmp	.LBB6_116
.LBB6_8:
	movq	-872(%rbp), %rdi
	callq	_ZNK5clang10Diagnostic5getIDEv
	movl	%eax, -908(%rbp)
	cmpl	$3441, -908(%rbp)               # imm = 0xD71
	je	.LBB6_10
# %bb.9:
	cmpl	$3442, -908(%rbp)               # imm = 0xD72
	jne	.LBB6_25
.LBB6_10:
	leaq	.L.str.17(%rip), %rax
	movq	%rax, -920(%rbp)
	leaq	-136(%rbp), %rdi
	movq	%rdi, -1112(%rbp)               # 8-byte Spill
	callq	_ZN4llvm11SmallStringILj100EEC2Ev
	movq	-1112(%rbp), %rcx               # 8-byte Reload
	movq	-872(%rbp), %rdi
	movq	-920(%rbp), %rsi
	movq	%rsi, %rdx
	addq	$2, %rdx
.Ltmp72:
	callq	_ZNK5clang10Diagnostic16FormatDiagnosticEPKcS2_RN4llvm15SmallVectorImplIcEE@PLT
.Ltmp73:
	jmp	.LBB6_11
.LBB6_11:
.Ltmp74:
	leaq	-136(%rbp), %rdi
	callq	_ZNK4llvm15SmallVectorBaseImE4sizeEv@PLT
.Ltmp75:
	movq	%rax, -1120(%rbp)               # 8-byte Spill
	jmp	.LBB6_12
.LBB6_12:
	movq	-1120(%rbp), %rdx               # 8-byte Reload
	addq	$-2, %rdx
.Ltmp76:
	leaq	-136(%rbp), %rdi
	movl	$1, %esi
	callq	_ZNK4llvm11SmallStringILj100EE6substrEmm
.Ltmp77:
	movq	%rdx, -1136(%rbp)               # 8-byte Spill
	movq	%rax, -1128(%rbp)               # 8-byte Spill
	jmp	.LBB6_13
.LBB6_13:
	movq	-1136(%rbp), %rax               # 8-byte Reload
	movq	-1128(%rbp), %rcx               # 8-byte Reload
	movq	%rcx, -744(%rbp)
	movq	%rax, -736(%rbp)
	movq	debugOutput@GOTPCREL(%rip), %rax
	testb	$1, (%rax)
	je	.LBB6_20
# %bb.14:
.Ltmp78:
	callq	_ZN4llvm4outsEv@PLT
.Ltmp79:
	movq	%rax, -1144(%rbp)               # 8-byte Spill
	jmp	.LBB6_15
.LBB6_15:
.Ltmp80:
	movq	-1144(%rbp), %rdi               # 8-byte Reload
	leaq	.L.str.18(%rip), %rsi
	callq	_ZN4llvm11raw_ostreamlsEPKc
.Ltmp81:
	movq	%rax, -1152(%rbp)               # 8-byte Spill
	jmp	.LBB6_16
.LBB6_16:
	movq	-1152(%rbp), %rdi               # 8-byte Reload
	movups	-744(%rbp), %xmm0
	movaps	%xmm0, -768(%rbp)
	movq	-768(%rbp), %rsi
	movq	-760(%rbp), %rdx
.Ltmp82:
	callq	_ZN4llvm11raw_ostreamlsENS_9StringRefE
.Ltmp83:
	movq	%rax, -1160(%rbp)               # 8-byte Spill
	jmp	.LBB6_17
.LBB6_17:
.Ltmp84:
	movq	-1160(%rbp), %rdi               # 8-byte Reload
	leaq	.L.str.19(%rip), %rsi
	callq	_ZN4llvm11raw_ostreamlsEPKc
.Ltmp85:
	jmp	.LBB6_18
.LBB6_18:
	jmp	.LBB6_20
.LBB6_19:
.Ltmp94:
	movq	%rax, %rcx
	movl	%edx, %eax
	movq	%rcx, -928(%rbp)
	movl	%eax, -932(%rbp)
	leaq	-136(%rbp), %rdi
	callq	_ZN4llvm11SmallStringILj100EED2Ev
	jmp	.LBB6_118
.LBB6_20:
.Ltmp86:
	movl	$48, %edi
	callq	_Znwm@PLT
.Ltmp87:
	movq	%rax, -1168(%rbp)               # 8-byte Spill
	jmp	.LBB6_21
.LBB6_21:
	movq	-1168(%rbp), %rdi               # 8-byte Reload
	callq	_ZN18IdentifierLocationC2Ev
	movq	-1168(%rbp), %rax               # 8-byte Reload
	movq	%rax, -776(%rbp)
	movq	-888(%rbp), %rax
	movl	(%rax), %eax
	movl	%eax, -796(%rbp)
	movq	-880(%rbp), %rdx
	movl	-796(%rbp), %esi
.Ltmp88:
	leaq	-792(%rbp), %rdi
	callq	_ZN5clang13FullSourceLocC2ENS_14SourceLocationERKNS_13SourceManagerE
.Ltmp89:
	jmp	.LBB6_22
.LBB6_22:
	movq	-776(%rbp), %rax
	movups	-792(%rbp), %xmm0
	movups	%xmm0, (%rax)
.Ltmp90:
	leaq	-168(%rbp), %rdi
	leaq	-744(%rbp), %rsi
	callq	_ZNK4llvm9StringRef3strB5cxx11Ev
.Ltmp91:
	jmp	.LBB6_23
.LBB6_23:
	movq	-776(%rbp), %rdi
	addq	$16, %rdi
	leaq	-168(%rbp), %rsi
	movq	%rsi, -1176(%rbp)               # 8-byte Spill
	callq	_ZNSt7__cxx1112basic_stringIcSt11char_traitsIcESaIcEEaSEOS4_
	movq	-1176(%rbp), %rdi               # 8-byte Reload
	callq	_ZNSt7__cxx1112basic_stringIcSt11char_traitsIcESaIcEED2Ev
	movq	-1088(%rbp), %rax               # 8-byte Reload
	movq	16(%rax), %rdi
.Ltmp92:
	leaq	-776(%rbp), %rsi
	callq	_ZNSt7__cxx114listIP18IdentifierLocationSaIS2_EE10push_frontERKS2_
.Ltmp93:
	jmp	.LBB6_24
.LBB6_24:
	leaq	-136(%rbp), %rdi
	callq	_ZN4llvm11SmallStringILj100EED2Ev
	jmp	.LBB6_116
.LBB6_25:
	jmp	.LBB6_26
.LBB6_26:
	movq	-1088(%rbp), %rax               # 8-byte Reload
	cmpq	$0, 24(%rax)
	je	.LBB6_105
# %bb.27:
	movq	-872(%rbp), %rdi
	callq	_ZNK5clang10Diagnostic16getSourceManagerEv
	movq	%rax, -944(%rbp)
	leaq	-296(%rbp), %rdi
	movq	%rdi, -1184(%rbp)               # 8-byte Spill
	callq	_ZN4llvm11SmallStringILj100EEC2Ev
	movq	-1184(%rbp), %rsi               # 8-byte Reload
	movq	-872(%rbp), %rdi
.Ltmp0:
	callq	_ZNK5clang10Diagnostic16FormatDiagnosticERN4llvm15SmallVectorImplIcEE@PLT
.Ltmp1:
	jmp	.LBB6_28
.LBB6_28:
	movb	$1, -1073(%rbp)
	leaq	-360(%rbp), %rax
	movq	%rax, -968(%rbp)
	leaq	-392(%rbp), %rdi
	movq	%rdi, -992(%rbp)
.Ltmp3:
	leaq	.L.str.20(%rip), %rsi
	callq	_ZN8nlohmann10basic_jsonISt3mapSt6vectorNSt7__cxx1112basic_stringIcSt11char_traitsIcESaIcEEEblmdSaNS_14adl_serializerEEC2IRA9_KcA9_cTnNSt9enable_ifIXaaaaaantsr3std10is_base_ofISiT0_EE5valuentsr3std7is_sameISH_SA_EE5valuentsr6detail25is_basic_json_nested_typeISA_SH_EE5valuesr6detail11has_to_jsonISA_SH_EE5valueEiE4typeELi0EEEOT_
.Ltmp4:
	jmp	.LBB6_29
.LBB6_29:
	leaq	-376(%rbp), %rax
	movq	%rax, -1208(%rbp)               # 8-byte Spill
	movq	%rax, -992(%rbp)
	movq	-944(%rbp), %rax
	movq	%rax, -1200(%rbp)               # 8-byte Spill
	movq	-872(%rbp), %rdi
.Ltmp5:
	callq	_ZNK5clang10Diagnostic11getLocationEv
.Ltmp6:
	movq	%rax, -1192(%rbp)               # 8-byte Spill
	jmp	.LBB6_30
.LBB6_30:
.Ltmp7:
	movq	-1192(%rbp), %rdx               # 8-byte Reload
	movq	-1200(%rbp), %rsi               # 8-byte Reload
	movq	-1208(%rbp), %rdi               # 8-byte Reload
	callq	_Z6encodeB5cxx11RKN5clang13SourceManagerERKNS_14SourceLocationE
.Ltmp8:
	jmp	.LBB6_31
.LBB6_31:
	leaq	-392(%rbp), %rax
	movq	%rax, -984(%rbp)
	movq	$2, -976(%rbp)
	movq	-984(%rbp), %rsi
	movq	-976(%rbp), %rdx
.Ltmp10:
	leaq	-360(%rbp), %rdi
	movl	$1, %ecx
	movl	$2, %r8d
	callq	_ZN8nlohmann10basic_jsonISt3mapSt6vectorNSt7__cxx1112basic_stringIcSt11char_traitsIcESaIcEEEblmdSaNS_14adl_serializerEEC2ESt16initializer_listISA_EbNS_6detail7value_tE
.Ltmp11:
	jmp	.LBB6_32
.LBB6_32:
	leaq	-344(%rbp), %rax
	movq	%rax, -1216(%rbp)               # 8-byte Spill
	movq	%rax, -968(%rbp)
	movb	$1, -1017(%rbp)
	leaq	-424(%rbp), %rdi
	movq	%rdi, -1016(%rbp)
.Ltmp13:
	leaq	.L.str.21(%rip), %rsi
	callq	_ZN8nlohmann10basic_jsonISt3mapSt6vectorNSt7__cxx1112basic_stringIcSt11char_traitsIcESaIcEEEblmdSaNS_14adl_serializerEEC2IRA8_KcA8_cTnNSt9enable_ifIXaaaaaantsr3std10is_base_ofISiT0_EE5valuentsr3std7is_sameISH_SA_EE5valuentsr6detail25is_basic_json_nested_typeISA_SH_EE5valuesr6detail11has_to_jsonISA_SH_EE5valueEiE4typeELi0EEEOT_
.Ltmp14:
	jmp	.LBB6_33
.LBB6_33:
	leaq	-408(%rbp), %rax
	movq	%rax, -1224(%rbp)               # 8-byte Spill
	movq	%rax, -1016(%rbp)
.Ltmp15:
	leaq	-456(%rbp), %rdi
	leaq	-296(%rbp), %rsi
	callq	_Z6encodeILj100EENSt7__cxx1112basic_stringIcSt11char_traitsIcESaIcEEERKN4llvm11SmallStringIXT_EEE
.Ltmp16:
	jmp	.LBB6_34
.LBB6_34:
.Ltmp18:
	movq	-1224(%rbp), %rdi               # 8-byte Reload
	leaq	-456(%rbp), %rsi
	callq	_ZN8nlohmann10basic_jsonISt3mapSt6vectorNSt7__cxx1112basic_stringIcSt11char_traitsIcESaIcEEEblmdSaNS_14adl_serializerEEC2IS8_S8_TnNSt9enable_ifIXaaaaaantsr3std10is_base_ofISiT0_EE5valuentsr3std7is_sameISD_SA_EE5valuentsr6detail25is_basic_json_nested_typeISA_SD_EE5valuesr6detail11has_to_jsonISA_SD_EE5valueEiE4typeELi0EEEOT_
.Ltmp19:
	jmp	.LBB6_35
.LBB6_35:
	movq	-1216(%rbp), %rdi               # 8-byte Reload
	movb	$0, -1017(%rbp)
	leaq	-424(%rbp), %rax
	movq	%rax, -1008(%rbp)
	movq	$2, -1000(%rbp)
	movq	-1008(%rbp), %rsi
	movq	-1000(%rbp), %rdx
.Ltmp21:
	movl	$1, %ecx
	movl	$2, %r8d
	callq	_ZN8nlohmann10basic_jsonISt3mapSt6vectorNSt7__cxx1112basic_stringIcSt11char_traitsIcESaIcEEEblmdSaNS_14adl_serializerEEC2ESt16initializer_listISA_EbNS_6detail7value_tE
.Ltmp22:
	jmp	.LBB6_36
.LBB6_36:
	leaq	-328(%rbp), %rax
	movq	%rax, -1232(%rbp)               # 8-byte Spill
	movq	%rax, -968(%rbp)
	leaq	-488(%rbp), %rdi
	movq	%rdi, -1048(%rbp)
.Ltmp24:
	leaq	.L.str.22(%rip), %rsi
	callq	_ZN8nlohmann10basic_jsonISt3mapSt6vectorNSt7__cxx1112basic_stringIcSt11char_traitsIcESaIcEEEblmdSaNS_14adl_serializerEEC2IRA7_KcA7_cTnNSt9enable_ifIXaaaaaantsr3std10is_base_ofISiT0_EE5valuentsr3std7is_sameISH_SA_EE5valuentsr6detail25is_basic_json_nested_typeISA_SH_EE5valuesr6detail11has_to_jsonISA_SH_EE5valueEiE4typeELi0EEEOT_
.Ltmp25:
	jmp	.LBB6_37
.LBB6_37:
	leaq	-472(%rbp), %rax
	movq	%rax, -1264(%rbp)               # 8-byte Spill
	movq	%rax, -1048(%rbp)
	movq	-944(%rbp), %rax
	movq	%rax, -1256(%rbp)               # 8-byte Spill
	movq	-872(%rbp), %rdi
.Ltmp26:
	callq	_ZNK5clang10Diagnostic9getRangesEv
.Ltmp27:
	movq	%rdx, -1248(%rbp)               # 8-byte Spill
	movq	%rax, -1240(%rbp)               # 8-byte Spill
	jmp	.LBB6_38
.LBB6_38:
	movq	-1256(%rbp), %rsi               # 8-byte Reload
	movq	-1264(%rbp), %rdi               # 8-byte Reload
	movq	-1248(%rbp), %rax               # 8-byte Reload
	movq	-1240(%rbp), %rcx               # 8-byte Reload
	movq	%rcx, -832(%rbp)
	movq	%rax, -824(%rbp)
.Ltmp28:
	leaq	-832(%rbp), %rdx
	callq	_Z6encodeIN5clang15CharSourceRangeEEN8nlohmann10basic_jsonISt3mapSt6vectorNSt7__cxx1112basic_stringIcSt11char_traitsIcESaIcEEEblmdSaNS2_14adl_serializerEEERKNS0_13SourceManagerERKN4llvm8ArrayRefIT_EE
.Ltmp29:
	jmp	.LBB6_39
.LBB6_39:
	movq	-1232(%rbp), %rdi               # 8-byte Reload
	leaq	-488(%rbp), %rax
	movq	%rax, -1040(%rbp)
	movq	$2, -1032(%rbp)
	movq	-1040(%rbp), %rsi
	movq	-1032(%rbp), %rdx
.Ltmp31:
	movl	$1, %ecx
	movl	$2, %r8d
	callq	_ZN8nlohmann10basic_jsonISt3mapSt6vectorNSt7__cxx1112basic_stringIcSt11char_traitsIcESaIcEEEblmdSaNS_14adl_serializerEEC2ESt16initializer_listISA_EbNS_6detail7value_tE
.Ltmp32:
	jmp	.LBB6_40
.LBB6_40:
	leaq	-312(%rbp), %rax
	movq	%rax, -1272(%rbp)               # 8-byte Spill
	movq	%rax, -968(%rbp)
	leaq	-520(%rbp), %rdi
	movq	%rdi, -1072(%rbp)
.Ltmp34:
	leaq	.L.str.23(%rip), %rsi
	callq	_ZN8nlohmann10basic_jsonISt3mapSt6vectorNSt7__cxx1112basic_stringIcSt11char_traitsIcESaIcEEEblmdSaNS_14adl_serializerEEC2IRA6_KcA6_cTnNSt9enable_ifIXaaaaaantsr3std10is_base_ofISiT0_EE5valuentsr3std7is_sameISH_SA_EE5valuentsr6detail25is_basic_json_nested_typeISA_SH_EE5valuesr6detail11has_to_jsonISA_SH_EE5valueEiE4typeELi0EEEOT_
.Ltmp35:
	jmp	.LBB6_41
.LBB6_41:
	leaq	-504(%rbp), %rax
	movq	%rax, -1304(%rbp)               # 8-byte Spill
	movq	%rax, -1072(%rbp)
	movq	-944(%rbp), %rax
	movq	%rax, -1296(%rbp)               # 8-byte Spill
	movq	-872(%rbp), %rdi
.Ltmp36:
	callq	_ZNK5clang10Diagnostic13getFixItHintsEv
.Ltmp37:
	movq	%rdx, -1288(%rbp)               # 8-byte Spill
	movq	%rax, -1280(%rbp)               # 8-byte Spill
	jmp	.LBB6_42
.LBB6_42:
	movq	-1296(%rbp), %rsi               # 8-byte Reload
	movq	-1304(%rbp), %rdi               # 8-byte Reload
	movq	-1288(%rbp), %rax               # 8-byte Reload
	movq	-1280(%rbp), %rcx               # 8-byte Reload
	movq	%rcx, -848(%rbp)
	movq	%rax, -840(%rbp)
.Ltmp38:
	leaq	-848(%rbp), %rdx
	callq	_Z6encodeIN5clang9FixItHintEEN8nlohmann10basic_jsonISt3mapSt6vectorNSt7__cxx1112basic_stringIcSt11char_traitsIcESaIcEEEblmdSaNS2_14adl_serializerEEERKNS0_13SourceManagerERKN4llvm8ArrayRefIT_EE
.Ltmp39:
	jmp	.LBB6_43
.LBB6_43:
	movq	-1272(%rbp), %rdi               # 8-byte Reload
	leaq	-520(%rbp), %rax
	movq	%rax, -1064(%rbp)
	movq	$2, -1056(%rbp)
	movq	-1064(%rbp), %rsi
	movq	-1056(%rbp), %rdx
.Ltmp41:
	movl	$1, %ecx
	movl	$2, %r8d
	callq	_ZN8nlohmann10basic_jsonISt3mapSt6vectorNSt7__cxx1112basic_stringIcSt11char_traitsIcESaIcEEEblmdSaNS_14adl_serializerEEC2ESt16initializer_listISA_EbNS_6detail7value_tE
.Ltmp42:
	jmp	.LBB6_44
.LBB6_44:
	movb	$0, -1073(%rbp)
	leaq	-360(%rbp), %rax
	movq	%rax, -960(%rbp)
	movq	$4, -952(%rbp)
	movq	-960(%rbp), %rsi
	movq	-952(%rbp), %rdx
.Ltmp44:
	leaq	-816(%rbp), %rdi
	movl	$1, %ecx
	movl	$2, %r8d
	callq	_ZN8nlohmann10basic_jsonISt3mapSt6vectorNSt7__cxx1112basic_stringIcSt11char_traitsIcESaIcEEEblmdSaNS_14adl_serializerEEC2ESt16initializer_listISA_EbNS_6detail7value_tE
.Ltmp45:
	jmp	.LBB6_45
.LBB6_45:
	leaq	-360(%rbp), %rax
	movq	%rax, -1320(%rbp)               # 8-byte Spill
	addq	$64, %rax
	movq	%rax, -1312(%rbp)               # 8-byte Spill
.LBB6_46:                               # =>This Inner Loop Header: Depth=1
	movq	-1312(%rbp), %rdi               # 8-byte Reload
	addq	$-16, %rdi
	movq	%rdi, -1328(%rbp)               # 8-byte Spill
	callq	_ZN8nlohmann10basic_jsonISt3mapSt6vectorNSt7__cxx1112basic_stringIcSt11char_traitsIcESaIcEEEblmdSaNS_14adl_serializerEED2Ev
	movq	-1320(%rbp), %rcx               # 8-byte Reload
	movq	-1328(%rbp), %rax               # 8-byte Reload
	cmpq	%rcx, %rax
	movq	%rax, -1312(%rbp)               # 8-byte Spill
	jne	.LBB6_46
# %bb.47:
	leaq	-520(%rbp), %rax
	movq	%rax, -1344(%rbp)               # 8-byte Spill
	addq	$32, %rax
	movq	%rax, -1336(%rbp)               # 8-byte Spill
.LBB6_48:                               # =>This Inner Loop Header: Depth=1
	movq	-1336(%rbp), %rdi               # 8-byte Reload
	addq	$-16, %rdi
	movq	%rdi, -1352(%rbp)               # 8-byte Spill
	callq	_ZN8nlohmann10basic_jsonISt3mapSt6vectorNSt7__cxx1112basic_stringIcSt11char_traitsIcESaIcEEEblmdSaNS_14adl_serializerEED2Ev
	movq	-1344(%rbp), %rcx               # 8-byte Reload
	movq	-1352(%rbp), %rax               # 8-byte Reload
	cmpq	%rcx, %rax
	movq	%rax, -1336(%rbp)               # 8-byte Spill
	jne	.LBB6_48
# %bb.49:
	leaq	-488(%rbp), %rax
	movq	%rax, -1368(%rbp)               # 8-byte Spill
	addq	$32, %rax
	movq	%rax, -1360(%rbp)               # 8-byte Spill
.LBB6_50:                               # =>This Inner Loop Header: Depth=1
	movq	-1360(%rbp), %rdi               # 8-byte Reload
	addq	$-16, %rdi
	movq	%rdi, -1376(%rbp)               # 8-byte Spill
	callq	_ZN8nlohmann10basic_jsonISt3mapSt6vectorNSt7__cxx1112basic_stringIcSt11char_traitsIcESaIcEEEblmdSaNS_14adl_serializerEED2Ev
	movq	-1368(%rbp), %rcx               # 8-byte Reload
	movq	-1376(%rbp), %rax               # 8-byte Reload
	cmpq	%rcx, %rax
	movq	%rax, -1360(%rbp)               # 8-byte Spill
	jne	.LBB6_50
# %bb.51:
	leaq	-424(%rbp), %rax
	movq	%rax, -1392(%rbp)               # 8-byte Spill
	addq	$32, %rax
	movq	%rax, -1384(%rbp)               # 8-byte Spill
.LBB6_52:                               # =>This Inner Loop Header: Depth=1
	movq	-1384(%rbp), %rdi               # 8-byte Reload
	addq	$-16, %rdi
	movq	%rdi, -1400(%rbp)               # 8-byte Spill
	callq	_ZN8nlohmann10basic_jsonISt3mapSt6vectorNSt7__cxx1112basic_stringIcSt11char_traitsIcESaIcEEEblmdSaNS_14adl_serializerEED2Ev
	movq	-1392(%rbp), %rcx               # 8-byte Reload
	movq	-1400(%rbp), %rax               # 8-byte Reload
	cmpq	%rcx, %rax
	movq	%rax, -1384(%rbp)               # 8-byte Spill
	jne	.LBB6_52
# %bb.53:
	leaq	-456(%rbp), %rdi
	callq	_ZNSt7__cxx1112basic_stringIcSt11char_traitsIcESaIcEED2Ev
	leaq	-392(%rbp), %rax
	movq	%rax, -1416(%rbp)               # 8-byte Spill
	addq	$32, %rax
	movq	%rax, -1408(%rbp)               # 8-byte Spill
.LBB6_54:                               # =>This Inner Loop Header: Depth=1
	movq	-1408(%rbp), %rdi               # 8-byte Reload
	addq	$-16, %rdi
	movq	%rdi, -1424(%rbp)               # 8-byte Spill
	callq	_ZN8nlohmann10basic_jsonISt3mapSt6vectorNSt7__cxx1112basic_stringIcSt11char_traitsIcESaIcEEEblmdSaNS_14adl_serializerEED2Ev
	movq	-1416(%rbp), %rcx               # 8-byte Reload
	movq	-1424(%rbp), %rax               # 8-byte Reload
	cmpq	%rcx, %rax
	movq	%rax, -1408(%rbp)               # 8-byte Spill
	jne	.LBB6_54
# %bb.55:
	movq	-1088(%rbp), %rax               # 8-byte Reload
	movq	24(%rax), %rax
	movq	%rax, -1432(%rbp)               # 8-byte Spill
.Ltmp47:
	leaq	-552(%rbp), %rdi
	leaq	-816(%rbp), %rsi
	movl	$-1, %edx
	callq	_ZNK8nlohmann10basic_jsonISt3mapSt6vectorNSt7__cxx1112basic_stringIcSt11char_traitsIcESaIcEEEblmdSaNS_14adl_serializerEE4dumpEi
.Ltmp48:
	jmp	.LBB6_56
.LBB6_56:
.Ltmp50:
	movq	-1432(%rbp), %rdi               # 8-byte Reload
	leaq	-552(%rbp), %rsi
	callq	_ZN4llvm11raw_ostreamlsERKNSt7__cxx1112basic_stringIcSt11char_traitsIcESaIcEEE
.Ltmp51:
	movq	%rax, -1440(%rbp)               # 8-byte Spill
	jmp	.LBB6_57
.LBB6_57:
.Ltmp52:
	movq	-1440(%rbp), %rdi               # 8-byte Reload
	leaq	.L.str.24(%rip), %rsi
	callq	_ZN4llvm11raw_ostreamlsEPKc
.Ltmp53:
	jmp	.LBB6_58
.LBB6_58:
	leaq	-552(%rbp), %rdi
	callq	_ZNSt7__cxx1112basic_stringIcSt11char_traitsIcESaIcEED2Ev
	leaq	-816(%rbp), %rdi
	callq	_ZN8nlohmann10basic_jsonISt3mapSt6vectorNSt7__cxx1112basic_stringIcSt11char_traitsIcESaIcEEEblmdSaNS_14adl_serializerEED2Ev
	leaq	-296(%rbp), %rdi
	callq	_ZN4llvm11SmallStringILj100EED2Ev
	jmp	.LBB6_105
.LBB6_59:
.Ltmp2:
	movq	%rax, %rcx
	movl	%edx, %eax
	movq	%rcx, -928(%rbp)
	movl	%eax, -932(%rbp)
	jmp	.LBB6_104
.LBB6_60:
.Ltmp9:
	movq	%rax, %rcx
	movl	%edx, %eax
	movq	%rcx, -928(%rbp)
	movl	%eax, -932(%rbp)
	movq	-992(%rbp), %rax
	leaq	-392(%rbp), %rcx
	cmpq	%rax, %rcx
	movq	%rax, -1448(%rbp)               # 8-byte Spill
	je	.LBB6_62
.LBB6_61:                               # =>This Inner Loop Header: Depth=1
	movq	-1448(%rbp), %rdi               # 8-byte Reload
	addq	$-16, %rdi
	movq	%rdi, -1456(%rbp)               # 8-byte Spill
	callq	_ZN8nlohmann10basic_jsonISt3mapSt6vectorNSt7__cxx1112basic_stringIcSt11char_traitsIcESaIcEEEblmdSaNS_14adl_serializerEED2Ev
	movq	-1456(%rbp), %rax               # 8-byte Reload
	leaq	-392(%rbp), %rcx
	cmpq	%rcx, %rax
	movq	%rax, -1448(%rbp)               # 8-byte Spill
	jne	.LBB6_61
.LBB6_62:
	jmp	.LBB6_96
.LBB6_63:
.Ltmp12:
	movq	%rax, %rcx
	movl	%edx, %eax
	movq	%rcx, -928(%rbp)
	movl	%eax, -932(%rbp)
	jmp	.LBB6_93
.LBB6_64:
.Ltmp17:
	movq	%rax, %rcx
	movl	%edx, %eax
	movq	%rcx, -928(%rbp)
	movl	%eax, -932(%rbp)
	jmp	.LBB6_88
.LBB6_65:
.Ltmp20:
	movq	%rax, %rcx
	movl	%edx, %eax
	movq	%rcx, -928(%rbp)
	movl	%eax, -932(%rbp)
	jmp	.LBB6_87
.LBB6_66:
.Ltmp23:
	movq	%rax, %rcx
	movl	%edx, %eax
	movq	%rcx, -928(%rbp)
	movl	%eax, -932(%rbp)
	jmp	.LBB6_84
.LBB6_67:
.Ltmp30:
	movq	%rax, %rcx
	movl	%edx, %eax
	movq	%rcx, -928(%rbp)
	movl	%eax, -932(%rbp)
	movq	-1048(%rbp), %rax
	leaq	-488(%rbp), %rcx
	cmpq	%rax, %rcx
	movq	%rax, -1464(%rbp)               # 8-byte Spill
	je	.LBB6_69
.LBB6_68:                               # =>This Inner Loop Header: Depth=1
	movq	-1464(%rbp), %rdi               # 8-byte Reload
	addq	$-16, %rdi
	movq	%rdi, -1472(%rbp)               # 8-byte Spill
	callq	_ZN8nlohmann10basic_jsonISt3mapSt6vectorNSt7__cxx1112basic_stringIcSt11char_traitsIcESaIcEEEblmdSaNS_14adl_serializerEED2Ev
	movq	-1472(%rbp), %rax               # 8-byte Reload
	leaq	-488(%rbp), %rcx
	cmpq	%rcx, %rax
	movq	%rax, -1464(%rbp)               # 8-byte Spill
	jne	.LBB6_68
.LBB6_69:
	jmp	.LBB6_84
.LBB6_70:
.Ltmp33:
	movq	%rax, %rcx
	movl	%edx, %eax
	movq	%rcx, -928(%rbp)
	movl	%eax, -932(%rbp)
	jmp	.LBB6_81
.LBB6_71:
.Ltmp40:
	movq	%rax, %rcx
	movl	%edx, %eax
	movq	%rcx, -928(%rbp)
	movl	%eax, -932(%rbp)
	movq	-1072(%rbp), %rax
	leaq	-520(%rbp), %rcx
	cmpq	%rax, %rcx
	movq	%rax, -1480(%rbp)               # 8-byte Spill
	je	.LBB6_73
.LBB6_72:                               # =>This Inner Loop Header: Depth=1
	movq	-1480(%rbp), %rdi               # 8-byte Reload
	addq	$-16, %rdi
	movq	%rdi, -1488(%rbp)               # 8-byte Spill
	callq	_ZN8nlohmann10basic_jsonISt3mapSt6vectorNSt7__cxx1112basic_stringIcSt11char_traitsIcESaIcEEEblmdSaNS_14adl_serializerEED2Ev
	movq	-1488(%rbp), %rax               # 8-byte Reload
	leaq	-520(%rbp), %rcx
	cmpq	%rcx, %rax
	movq	%rax, -1480(%rbp)               # 8-byte Spill
	jne	.LBB6_72
.LBB6_73:
	jmp	.LBB6_81
.LBB6_74:
.Ltmp43:
	movq	%rax, %rcx
	movl	%edx, %eax
	movq	%rcx, -928(%rbp)
	movl	%eax, -932(%rbp)
	jmp	.LBB6_78
.LBB6_75:
.Ltmp46:
	movq	%rax, %rcx
	movl	%edx, %eax
	movq	%rcx, -928(%rbp)
	movl	%eax, -932(%rbp)
	leaq	-360(%rbp), %rax
	movq	%rax, -1504(%rbp)               # 8-byte Spill
	addq	$64, %rax
	movq	%rax, -1496(%rbp)               # 8-byte Spill
.LBB6_76:                               # =>This Inner Loop Header: Depth=1
	movq	-1496(%rbp), %rdi               # 8-byte Reload
	addq	$-16, %rdi
	movq	%rdi, -1512(%rbp)               # 8-byte Spill
	callq	_ZN8nlohmann10basic_jsonISt3mapSt6vectorNSt7__cxx1112basic_stringIcSt11char_traitsIcESaIcEEEblmdSaNS_14adl_serializerEED2Ev
	movq	-1504(%rbp), %rcx               # 8-byte Reload
	movq	-1512(%rbp), %rax               # 8-byte Reload
	cmpq	%rcx, %rax
	movq	%rax, -1496(%rbp)               # 8-byte Spill
	jne	.LBB6_76
# %bb.77:
	jmp	.LBB6_78
.LBB6_78:
	leaq	-520(%rbp), %rax
	movq	%rax, -1528(%rbp)               # 8-byte Spill
	addq	$32, %rax
	movq	%rax, -1520(%rbp)               # 8-byte Spill
.LBB6_79:                               # =>This Inner Loop Header: Depth=1
	movq	-1520(%rbp), %rdi               # 8-byte Reload
	addq	$-16, %rdi
	movq	%rdi, -1536(%rbp)               # 8-byte Spill
	callq	_ZN8nlohmann10basic_jsonISt3mapSt6vectorNSt7__cxx1112basic_stringIcSt11char_traitsIcESaIcEEEblmdSaNS_14adl_serializerEED2Ev
	movq	-1528(%rbp), %rcx               # 8-byte Reload
	movq	-1536(%rbp), %rax               # 8-byte Reload
	cmpq	%rcx, %rax
	movq	%rax, -1520(%rbp)               # 8-byte Spill
	jne	.LBB6_79
# %bb.80:
	jmp	.LBB6_81
.LBB6_81:
	leaq	-488(%rbp), %rax
	movq	%rax, -1552(%rbp)               # 8-byte Spill
	addq	$32, %rax
	movq	%rax, -1544(%rbp)               # 8-byte Spill
.LBB6_82:                               # =>This Inner Loop Header: Depth=1
	movq	-1544(%rbp), %rdi               # 8-byte Reload
	addq	$-16, %rdi
	movq	%rdi, -1560(%rbp)               # 8-byte Spill
	callq	_ZN8nlohmann10basic_jsonISt3mapSt6vectorNSt7__cxx1112basic_stringIcSt11char_traitsIcESaIcEEEblmdSaNS_14adl_serializerEED2Ev
	movq	-1552(%rbp), %rcx               # 8-byte Reload
	movq	-1560(%rbp), %rax               # 8-byte Reload
	cmpq	%rcx, %rax
	movq	%rax, -1544(%rbp)               # 8-byte Spill
	jne	.LBB6_82
# %bb.83:
	jmp	.LBB6_84
.LBB6_84:
	leaq	-424(%rbp), %rax
	movq	%rax, -1576(%rbp)               # 8-byte Spill
	addq	$32, %rax
	movq	%rax, -1568(%rbp)               # 8-byte Spill
.LBB6_85:                               # =>This Inner Loop Header: Depth=1
	movq	-1568(%rbp), %rdi               # 8-byte Reload
	addq	$-16, %rdi
	movq	%rdi, -1584(%rbp)               # 8-byte Spill
	callq	_ZN8nlohmann10basic_jsonISt3mapSt6vectorNSt7__cxx1112basic_stringIcSt11char_traitsIcESaIcEEEblmdSaNS_14adl_serializerEED2Ev
	movq	-1576(%rbp), %rcx               # 8-byte Reload
	movq	-1584(%rbp), %rax               # 8-byte Reload
	cmpq	%rcx, %rax
	movq	%rax, -1568(%rbp)               # 8-byte Spill
	jne	.LBB6_85
# %bb.86:
	jmp	.LBB6_87
.LBB6_87:
	leaq	-456(%rbp), %rdi
	callq	_ZNSt7__cxx1112basic_stringIcSt11char_traitsIcESaIcEED2Ev
.LBB6_88:
	testb	$1, -1017(%rbp)
	jne	.LBB6_89
	jmp	.LBB6_92
.LBB6_89:
	movq	-1016(%rbp), %rax
	leaq	-424(%rbp), %rcx
	cmpq	%rax, %rcx
	movq	%rax, -1592(%rbp)               # 8-byte Spill
	je	.LBB6_91
.LBB6_90:                               # =>This Inner Loop Header: Depth=1
	movq	-1592(%rbp), %rdi               # 8-byte Reload
	addq	$-16, %rdi
	movq	%rdi, -1600(%rbp)               # 8-byte Spill
	callq	_ZN8nlohmann10basic_jsonISt3mapSt6vectorNSt7__cxx1112basic_stringIcSt11char_traitsIcESaIcEEEblmdSaNS_14adl_serializerEED2Ev
	movq	-1600(%rbp), %rax               # 8-byte Reload
	leaq	-424(%rbp), %rcx
	cmpq	%rcx, %rax
	movq	%rax, -1592(%rbp)               # 8-byte Spill
	jne	.LBB6_90
.LBB6_91:
	jmp	.LBB6_92
.LBB6_92:
	jmp	.LBB6_93
.LBB6_93:
	leaq	-392(%rbp), %rax
	movq	%rax, -1616(%rbp)               # 8-byte Spill
	addq	$32, %rax
	movq	%rax, -1608(%rbp)               # 8-byte Spill
.LBB6_94:                               # =>This Inner Loop Header: Depth=1
	movq	-1608(%rbp), %rdi               # 8-byte Reload
	addq	$-16, %rdi
	movq	%rdi, -1624(%rbp)               # 8-byte Spill
	callq	_ZN8nlohmann10basic_jsonISt3mapSt6vectorNSt7__cxx1112basic_stringIcSt11char_traitsIcESaIcEEEblmdSaNS_14adl_serializerEED2Ev
	movq	-1616(%rbp), %rcx               # 8-byte Reload
	movq	-1624(%rbp), %rax               # 8-byte Reload
	cmpq	%rcx, %rax
	movq	%rax, -1608(%rbp)               # 8-byte Spill
	jne	.LBB6_94
# %bb.95:
	jmp	.LBB6_96
.LBB6_96:
	testb	$1, -1073(%rbp)
	jne	.LBB6_97
	jmp	.LBB6_100
.LBB6_97:
	movq	-968(%rbp), %rax
	leaq	-360(%rbp), %rcx
	cmpq	%rax, %rcx
	movq	%rax, -1632(%rbp)               # 8-byte Spill
	je	.LBB6_99
.LBB6_98:                               # =>This Inner Loop Header: Depth=1
	movq	-1632(%rbp), %rdi               # 8-byte Reload
	addq	$-16, %rdi
	movq	%rdi, -1640(%rbp)               # 8-byte Spill
	callq	_ZN8nlohmann10basic_jsonISt3mapSt6vectorNSt7__cxx1112basic_stringIcSt11char_traitsIcESaIcEEEblmdSaNS_14adl_serializerEED2Ev
	movq	-1640(%rbp), %rax               # 8-byte Reload
	leaq	-360(%rbp), %rcx
	cmpq	%rcx, %rax
	movq	%rax, -1632(%rbp)               # 8-byte Spill
	jne	.LBB6_98
.LBB6_99:
	jmp	.LBB6_100
.LBB6_100:
	jmp	.LBB6_104
.LBB6_101:
.Ltmp49:
	movq	%rax, %rcx
	movl	%edx, %eax
	movq	%rcx, -928(%rbp)
	movl	%eax, -932(%rbp)
	jmp	.LBB6_103
.LBB6_102:
.Ltmp54:
	movq	%rax, %rcx
	movl	%edx, %eax
	movq	%rcx, -928(%rbp)
	movl	%eax, -932(%rbp)
	leaq	-552(%rbp), %rdi
	callq	_ZNSt7__cxx1112basic_stringIcSt11char_traitsIcESaIcEED2Ev
.LBB6_103:
	leaq	-816(%rbp), %rdi
	callq	_ZN8nlohmann10basic_jsonISt3mapSt6vectorNSt7__cxx1112basic_stringIcSt11char_traitsIcESaIcEEEblmdSaNS_14adl_serializerEED2Ev
.LBB6_104:
	leaq	-296(%rbp), %rdi
	callq	_ZN4llvm11SmallStringILj100EED2Ev
	jmp	.LBB6_118
.LBB6_105:
	movq	debugOutput@GOTPCREL(%rip), %rax
	testb	$1, (%rax)
	je	.LBB6_116
# %bb.106:
	leaq	-680(%rbp), %rdi
	movq	%rdi, -1648(%rbp)               # 8-byte Spill
	callq	_ZN4llvm11SmallStringILj100EEC2Ev
	movq	-1648(%rbp), %rsi               # 8-byte Reload
	movq	-872(%rbp), %rdi
.Ltmp55:
	callq	_ZNK5clang10Diagnostic16FormatDiagnosticERN4llvm15SmallVectorImplIcEE@PLT
.Ltmp56:
	jmp	.LBB6_107
.LBB6_107:
.Ltmp57:
	callq	_ZN4llvm4outsEv@PLT
.Ltmp58:
	movq	%rax, -1656(%rbp)               # 8-byte Spill
	jmp	.LBB6_108
.LBB6_108:
.Ltmp59:
	movq	-1656(%rbp), %rdi               # 8-byte Reload
	leaq	.L.str.25(%rip), %rsi
	callq	_ZN4llvm11raw_ostreamlsEPKc
.Ltmp60:
	movq	%rax, -1664(%rbp)               # 8-byte Spill
	jmp	.LBB6_109
.LBB6_109:
	movq	-872(%rbp), %rdi
.Ltmp61:
	callq	_ZNK5clang10Diagnostic5getIDEv
.Ltmp62:
	movl	%eax, -1668(%rbp)               # 4-byte Spill
	jmp	.LBB6_110
.LBB6_110:
.Ltmp63:
	movl	-1668(%rbp), %esi               # 4-byte Reload
	movq	-1664(%rbp), %rdi               # 8-byte Reload
	callq	_ZN4llvm11raw_ostreamlsEj
.Ltmp64:
	movq	%rax, -1680(%rbp)               # 8-byte Spill
	jmp	.LBB6_111
.LBB6_111:
.Ltmp65:
	movq	-1680(%rbp), %rdi               # 8-byte Reload
	leaq	.L.str.14(%rip), %rsi
	callq	_ZN4llvm11raw_ostreamlsEPKc
.Ltmp66:
	movq	%rax, -1688(%rbp)               # 8-byte Spill
	jmp	.LBB6_112
.LBB6_112:
.Ltmp67:
	movq	-1688(%rbp), %rdi               # 8-byte Reload
	leaq	-680(%rbp), %rsi
	callq	_ZN4llvm11raw_ostreamlsERKNS_15SmallVectorImplIcEE
.Ltmp68:
	movq	%rax, -1696(%rbp)               # 8-byte Spill
	jmp	.LBB6_113
.LBB6_113:
.Ltmp69:
	movq	-1696(%rbp), %rdi               # 8-byte Reload
	leaq	.L.str.24(%rip), %rsi
	callq	_ZN4llvm11raw_ostreamlsEPKc
.Ltmp70:
	jmp	.LBB6_114
.LBB6_114:
	leaq	-680(%rbp), %rdi
	callq	_ZN4llvm11SmallStringILj100EED2Ev
	jmp	.LBB6_116
.LBB6_115:
.Ltmp71:
	movq	%rax, %rcx
	movl	%edx, %eax
	movq	%rcx, -928(%rbp)
	movl	%eax, -932(%rbp)
	leaq	-680(%rbp), %rdi
	callq	_ZN4llvm11SmallStringILj100EED2Ev
	jmp	.LBB6_118
.LBB6_116:
	movq	%fs:40, %rax
	movq	-8(%rbp), %rcx
	cmpq	%rcx, %rax
	jne	.LBB6_120
# %bb.117:
	addq	$1712, %rsp                     # imm = 0x6B0
	popq	%rbp
	.cfi_def_cfa %rsp, 8
	retq
.LBB6_118:
	.cfi_def_cfa %rbp, 16
	movq	-928(%rbp), %rax
	movq	%rax, -1704(%rbp)               # 8-byte Spill
	movq	%fs:40, %rax
	movq	-8(%rbp), %rcx
	cmpq	%rcx, %rax
	jne	.LBB6_120
# %bb.119:
	movq	-1704(%rbp), %rdi               # 8-byte Reload
	callq	_Unwind_Resume@PLT
.LBB6_120:
	callq	__stack_chk_fail@PLT
.Lfunc_end6:
	.size	_ZN25ArduinoDiagnosticConsumer16HandleDiagnosticEN5clang17DiagnosticsEngine5LevelERKNS0_10DiagnosticE, .Lfunc_end6-_ZN25ArduinoDiagnosticConsumer16HandleDiagnosticEN5clang17DiagnosticsEngine5LevelERKNS0_10DiagnosticE
	.cfi_endproc
	.section	.gcc_except_table,"a",@progbits
	.p2align	2, 0x0
GCC_except_table6:
.Lexception0:
	.byte	255                             # @LPStart Encoding = omit
	.byte	255                             # @TType Encoding = omit
	.byte	1                               # Call site Encoding = uleb128
	.uleb128 .Lcst_end0-.Lcst_begin0
.Lcst_begin0:
	.uleb128 .Lfunc_begin0-.Lfunc_begin0    # >> Call Site 1 <<
	.uleb128 .Ltmp72-.Lfunc_begin0          #   Call between .Lfunc_begin0 and .Ltmp72
	.byte	0                               #     has no landing pad
	.byte	0                               #   On action: cleanup
	.uleb128 .Ltmp72-.Lfunc_begin0          # >> Call Site 2 <<
	.uleb128 .Ltmp93-.Ltmp72                #   Call between .Ltmp72 and .Ltmp93
	.uleb128 .Ltmp94-.Lfunc_begin0          #     jumps to .Ltmp94
	.byte	0                               #   On action: cleanup
	.uleb128 .Ltmp93-.Lfunc_begin0          # >> Call Site 3 <<
	.uleb128 .Ltmp0-.Ltmp93                 #   Call between .Ltmp93 and .Ltmp0
	.byte	0                               #     has no landing pad
	.byte	0                               #   On action: cleanup
	.uleb128 .Ltmp0-.Lfunc_begin0           # >> Call Site 4 <<
	.uleb128 .Ltmp1-.Ltmp0                  #   Call between .Ltmp0 and .Ltmp1
	.uleb128 .Ltmp2-.Lfunc_begin0           #     jumps to .Ltmp2
	.byte	0                               #   On action: cleanup
	.uleb128 .Ltmp3-.Lfunc_begin0           # >> Call Site 5 <<
	.uleb128 .Ltmp8-.Ltmp3                  #   Call between .Ltmp3 and .Ltmp8
	.uleb128 .Ltmp9-.Lfunc_begin0           #     jumps to .Ltmp9
	.byte	0                               #   On action: cleanup
	.uleb128 .Ltmp10-.Lfunc_begin0          # >> Call Site 6 <<
	.uleb128 .Ltmp11-.Ltmp10                #   Call between .Ltmp10 and .Ltmp11
	.uleb128 .Ltmp12-.Lfunc_begin0          #     jumps to .Ltmp12
	.byte	0                               #   On action: cleanup
	.uleb128 .Ltmp13-.Lfunc_begin0          # >> Call Site 7 <<
	.uleb128 .Ltmp16-.Ltmp13                #   Call between .Ltmp13 and .Ltmp16
	.uleb128 .Ltmp17-.Lfunc_begin0          #     jumps to .Ltmp17
	.byte	0                               #   On action: cleanup
	.uleb128 .Ltmp18-.Lfunc_begin0          # >> Call Site 8 <<
	.uleb128 .Ltmp19-.Ltmp18                #   Call between .Ltmp18 and .Ltmp19
	.uleb128 .Ltmp20-.Lfunc_begin0          #     jumps to .Ltmp20
	.byte	0                               #   On action: cleanup
	.uleb128 .Ltmp21-.Lfunc_begin0          # >> Call Site 9 <<
	.uleb128 .Ltmp22-.Ltmp21                #   Call between .Ltmp21 and .Ltmp22
	.uleb128 .Ltmp23-.Lfunc_begin0          #     jumps to .Ltmp23
	.byte	0                               #   On action: cleanup
	.uleb128 .Ltmp24-.Lfunc_begin0          # >> Call Site 10 <<
	.uleb128 .Ltmp29-.Ltmp24                #   Call between .Ltmp24 and .Ltmp29
	.uleb128 .Ltmp30-.Lfunc_begin0          #     jumps to .Ltmp30
	.byte	0                               #   On action: cleanup
	.uleb128 .Ltmp31-.Lfunc_begin0          # >> Call Site 11 <<
	.uleb128 .Ltmp32-.Ltmp31                #   Call between .Ltmp31 and .Ltmp32
	.uleb128 .Ltmp33-.Lfunc_begin0          #     jumps to .Ltmp33
	.byte	0                               #   On action: cleanup
	.uleb128 .Ltmp34-.Lfunc_begin0          # >> Call Site 12 <<
	.uleb128 .Ltmp39-.Ltmp34                #   Call between .Ltmp34 and .Ltmp39
	.uleb128 .Ltmp40-.Lfunc_begin0          #     jumps to .Ltmp40
	.byte	0                               #   On action: cleanup
	.uleb128 .Ltmp41-.Lfunc_begin0          # >> Call Site 13 <<
	.uleb128 .Ltmp42-.Ltmp41                #   Call between .Ltmp41 and .Ltmp42
	.uleb128 .Ltmp43-.Lfunc_begin0          #     jumps to .Ltmp43
	.byte	0                               #   On action: cleanup
	.uleb128 .Ltmp44-.Lfunc_begin0          # >> Call Site 14 <<
	.uleb128 .Ltmp45-.Ltmp44                #   Call between .Ltmp44 and .Ltmp45
	.uleb128 .Ltmp46-.Lfunc_begin0          #     jumps to .Ltmp46
	.byte	0                               #   On action: cleanup
	.uleb128 .Ltmp47-.Lfunc_begin0          # >> Call Site 15 <<
	.uleb128 .Ltmp48-.Ltmp47                #   Call between .Ltmp47 and .Ltmp48
	.uleb128 .Ltmp49-.Lfunc_begin0          #     jumps to .Ltmp49
	.byte	0                               #   On action: cleanup
	.uleb128 .Ltmp50-.Lfunc_begin0          # >> Call Site 16 <<
	.uleb128 .Ltmp53-.Ltmp50                #   Call between .Ltmp50 and .Ltmp53
	.uleb128 .Ltmp54-.Lfunc_begin0          #     jumps to .Ltmp54
	.byte	0                               #   On action: cleanup
	.uleb128 .Ltmp53-.Lfunc_begin0          # >> Call Site 17 <<
	.uleb128 .Ltmp55-.Ltmp53                #   Call between .Ltmp53 and .Ltmp55
	.byte	0                               #     has no landing pad
	.byte	0                               #   On action: cleanup
	.uleb128 .Ltmp55-.Lfunc_begin0          # >> Call Site 18 <<
	.uleb128 .Ltmp70-.Ltmp55                #   Call between .Ltmp55 and .Ltmp70
	.uleb128 .Ltmp71-.Lfunc_begin0          #     jumps to .Ltmp71
	.byte	0                               #   On action: cleanup
	.uleb128 .Ltmp70-.Lfunc_begin0          # >> Call Site 19 <<
	.uleb128 .Lfunc_end6-.Ltmp70            #   Call between .Ltmp70 and .Lfunc_end6
	.byte	0                               #     has no landing pad
	.byte	0                               #   On action: cleanup
.Lcst_end0:
	.p2align	2, 0x0
                                        # -- End function
	.section	.text._ZNK5clang10Diagnostic16getSourceManagerEv,"axG",@progbits,_ZNK5clang10Diagnostic16getSourceManagerEv,comdat
	.weak	_ZNK5clang10Diagnostic16getSourceManagerEv # -- Begin function _ZNK5clang10Diagnostic16getSourceManagerEv
	.p2align	4
	.type	_ZNK5clang10Diagnostic16getSourceManagerEv,@function
_ZNK5clang10Diagnostic16getSourceManagerEv: # @_ZNK5clang10Diagnostic16getSourceManagerEv
	.cfi_startproc
# %bb.0:
	pushq	%rbp
	.cfi_def_cfa_offset 16
	.cfi_offset %rbp, -16
	movq	%rsp, %rbp
	.cfi_def_cfa_register %rbp
	subq	$16, %rsp
	movq	%rdi, -8(%rbp)
	movq	-8(%rbp), %rax
	movq	(%rax), %rdi
	callq	_ZNK5clang17DiagnosticsEngine16getSourceManagerEv
	addq	$16, %rsp
	popq	%rbp
	.cfi_def_cfa %rsp, 8
	retq
.Lfunc_end7:
	.size	_ZNK5clang10Diagnostic16getSourceManagerEv, .Lfunc_end7-_ZNK5clang10Diagnostic16getSourceManagerEv
	.cfi_endproc
                                        # -- End function
	.section	.text._ZNK5clang10Diagnostic11getLocationEv,"axG",@progbits,_ZNK5clang10Diagnostic11getLocationEv,comdat
	.weak	_ZNK5clang10Diagnostic11getLocationEv # -- Begin function _ZNK5clang10Diagnostic11getLocationEv
	.p2align	4
	.type	_ZNK5clang10Diagnostic11getLocationEv,@function
_ZNK5clang10Diagnostic11getLocationEv:  # @_ZNK5clang10Diagnostic11getLocationEv
	.cfi_startproc
# %bb.0:
	pushq	%rbp
	.cfi_def_cfa_offset 16
	.cfi_offset %rbp, -16
	movq	%rsp, %rbp
	.cfi_def_cfa_register %rbp
	movq	%rdi, -8(%rbp)
	movq	-8(%rbp), %rax
	addq	$8, %rax
	popq	%rbp
	.cfi_def_cfa %rsp, 8
	retq
.Lfunc_end8:
	.size	_ZNK5clang10Diagnostic11getLocationEv, .Lfunc_end8-_ZNK5clang10Diagnostic11getLocationEv
	.cfi_endproc
                                        # -- End function
	.section	.text._ZNK5clang13SourceManager14getSpellingLocENS_14SourceLocationE,"axG",@progbits,_ZNK5clang13SourceManager14getSpellingLocENS_14SourceLocationE,comdat
	.weak	_ZNK5clang13SourceManager14getSpellingLocENS_14SourceLocationE # -- Begin function _ZNK5clang13SourceManager14getSpellingLocENS_14SourceLocationE
	.p2align	4
	.type	_ZNK5clang13SourceManager14getSpellingLocENS_14SourceLocationE,@function
_ZNK5clang13SourceManager14getSpellingLocENS_14SourceLocationE: # @_ZNK5clang13SourceManager14getSpellingLocENS_14SourceLocationE
	.cfi_startproc
# %bb.0:
	pushq	%rbp
	.cfi_def_cfa_offset 16
	.cfi_offset %rbp, -16
	movq	%rsp, %rbp
	.cfi_def_cfa_register %rbp
	subq	$48, %rsp
	movq	%fs:40, %rax
	movq	%rax, -8(%rbp)
	movl	%esi, -16(%rbp)
	movq	%rdi, -32(%rbp)
	movq	-32(%rbp), %rax
	movq	%rax, -40(%rbp)                 # 8-byte Spill
	leaq	-16(%rbp), %rdi
	callq	_ZNK5clang14SourceLocation8isFileIDEv
	testb	$1, %al
	jne	.LBB9_1
	jmp	.LBB9_2
.LBB9_1:
	movl	-16(%rbp), %eax
	movl	%eax, -12(%rbp)
	jmp	.LBB9_3
.LBB9_2:
	movq	-40(%rbp), %rdi                 # 8-byte Reload
	movl	-16(%rbp), %eax
	movl	%eax, -20(%rbp)
	movl	-20(%rbp), %esi
	callq	_ZNK5clang13SourceManager22getSpellingLocSlowCaseENS_14SourceLocationE@PLT
	movl	%eax, -12(%rbp)
.LBB9_3:
	movl	-12(%rbp), %eax
	movl	%eax, -44(%rbp)                 # 4-byte Spill
	movq	%fs:40, %rax
	movq	-8(%rbp), %rcx
	cmpq	%rcx, %rax
	jne	.LBB9_5
# %bb.4:
	movl	-44(%rbp), %eax                 # 4-byte Reload
	addq	$48, %rsp
	popq	%rbp
	.cfi_def_cfa %rsp, 8
	retq
.LBB9_5:
	.cfi_def_cfa %rbp, 16
	callq	__stack_chk_fail@PLT
.Lfunc_end9:
	.size	_ZNK5clang13SourceManager14getSpellingLocENS_14SourceLocationE, .Lfunc_end9-_ZNK5clang13SourceManager14getSpellingLocENS_14SourceLocationE
	.cfi_endproc
                                        # -- End function
	.section	.text._ZNK5clang11PresumedLoc11getFilenameEv,"axG",@progbits,_ZNK5clang11PresumedLoc11getFilenameEv,comdat
	.weak	_ZNK5clang11PresumedLoc11getFilenameEv # -- Begin function _ZNK5clang11PresumedLoc11getFilenameEv
	.p2align	4
	.type	_ZNK5clang11PresumedLoc11getFilenameEv,@function
_ZNK5clang11PresumedLoc11getFilenameEv: # @_ZNK5clang11PresumedLoc11getFilenameEv
	.cfi_startproc
# %bb.0:
	pushq	%rbp
	.cfi_def_cfa_offset 16
	.cfi_offset %rbp, -16
	movq	%rsp, %rbp
	.cfi_def_cfa_register %rbp
	subq	$16, %rsp
	movq	%rdi, -8(%rbp)
	movq	-8(%rbp), %rdi
	movq	%rdi, -16(%rbp)                 # 8-byte Spill
	callq	_ZNK5clang11PresumedLoc7isValidEv
	testb	$1, %al
	jne	.LBB10_1
	jmp	.LBB10_2
.LBB10_1:
	jmp	.LBB10_3
.LBB10_2:
	leaq	.L.str.29(%rip), %rdi
	leaq	.L.str.30(%rip), %rsi
	movl	$328, %edx                      # imm = 0x148
	leaq	.L__PRETTY_FUNCTION__._ZNK5clang11PresumedLoc11getFilenameEv(%rip), %rcx
	callq	__assert_fail@PLT
.LBB10_3:
	movq	-16(%rbp), %rax                 # 8-byte Reload
	movq	(%rax), %rax
	addq	$16, %rsp
	popq	%rbp
	.cfi_def_cfa %rsp, 8
	retq
.Lfunc_end10:
	.size	_ZNK5clang11PresumedLoc11getFilenameEv, .Lfunc_end10-_ZNK5clang11PresumedLoc11getFilenameEv
	.cfi_endproc
                                        # -- End function
	.section	.text._ZN4llvm11raw_ostreamlsEj,"axG",@progbits,_ZN4llvm11raw_ostreamlsEj,comdat
	.weak	_ZN4llvm11raw_ostreamlsEj       # -- Begin function _ZN4llvm11raw_ostreamlsEj
	.p2align	4
	.type	_ZN4llvm11raw_ostreamlsEj,@function
_ZN4llvm11raw_ostreamlsEj:              # @_ZN4llvm11raw_ostreamlsEj
	.cfi_startproc
# %bb.0:
	pushq	%rbp
	.cfi_def_cfa_offset 16
	.cfi_offset %rbp, -16
	movq	%rsp, %rbp
	.cfi_def_cfa_register %rbp
	subq	$16, %rsp
	movq	%rdi, -8(%rbp)
	movl	%esi, -12(%rbp)
	movq	-8(%rbp), %rdi
	movl	-12(%rbp), %eax
	movl	%eax, %esi
	callq	_ZN4llvm11raw_ostreamlsEm@PLT
	addq	$16, %rsp
	popq	%rbp
	.cfi_def_cfa %rsp, 8
	retq
.Lfunc_end11:
	.size	_ZN4llvm11raw_ostreamlsEj, .Lfunc_end11-_ZN4llvm11raw_ostreamlsEj
	.cfi_endproc
                                        # -- End function
	.section	.text._ZN4llvm11raw_ostreamlsEPKc,"axG",@progbits,_ZN4llvm11raw_ostreamlsEPKc,comdat
	.weak	_ZN4llvm11raw_ostreamlsEPKc     # -- Begin function _ZN4llvm11raw_ostreamlsEPKc
	.p2align	4
	.type	_ZN4llvm11raw_ostreamlsEPKc,@function
_ZN4llvm11raw_ostreamlsEPKc:            # @_ZN4llvm11raw_ostreamlsEPKc
	.cfi_startproc
# %bb.0:
	pushq	%rbp
	.cfi_def_cfa_offset 16
	.cfi_offset %rbp, -16
	movq	%rsp, %rbp
	.cfi_def_cfa_register %rbp
	subq	$64, %rsp
	movq	%fs:40, %rax
	movq	%rax, -8(%rbp)
	movq	%rdi, -32(%rbp)
	movq	%rsi, -40(%rbp)
	movq	-32(%rbp), %rax
	movq	%rax, -56(%rbp)                 # 8-byte Spill
	movq	-40(%rbp), %rsi
	leaq	-24(%rbp), %rdi
	callq	_ZN4llvm9StringRefC2EPKc
	movq	-56(%rbp), %rdi                 # 8-byte Reload
	movq	-24(%rbp), %rsi
	movq	-16(%rbp), %rdx
	callq	_ZN4llvm11raw_ostreamlsENS_9StringRefE
	movq	%rax, -48(%rbp)                 # 8-byte Spill
	movq	%fs:40, %rax
	movq	-8(%rbp), %rcx
	cmpq	%rcx, %rax
	jne	.LBB12_2
# %bb.1:
	movq	-48(%rbp), %rax                 # 8-byte Reload
	addq	$64, %rsp
	popq	%rbp
	.cfi_def_cfa %rsp, 8
	retq
.LBB12_2:
	.cfi_def_cfa %rbp, 16
	callq	__stack_chk_fail@PLT
.Lfunc_end12:
	.size	_ZN4llvm11raw_ostreamlsEPKc, .Lfunc_end12-_ZN4llvm11raw_ostreamlsEPKc
	.cfi_endproc
                                        # -- End function
	.section	.text._Z12cStrEndsWithPKcS0_,"axG",@progbits,_Z12cStrEndsWithPKcS0_,comdat
	.weak	_Z12cStrEndsWithPKcS0_          # -- Begin function _Z12cStrEndsWithPKcS0_
	.p2align	4
	.type	_Z12cStrEndsWithPKcS0_,@function
_Z12cStrEndsWithPKcS0_:                 # @_Z12cStrEndsWithPKcS0_
	.cfi_startproc
# %bb.0:
	pushq	%rbp
	.cfi_def_cfa_offset 16
	.cfi_offset %rbp, -16
	movq	%rsp, %rbp
	.cfi_def_cfa_register %rbp
	subq	$48, %rsp
	movq	%rdi, -16(%rbp)
	movq	%rsi, -24(%rbp)
	cmpq	$0, -16(%rbp)
	je	.LBB13_2
# %bb.1:
	cmpq	$0, -24(%rbp)
	jne	.LBB13_3
.LBB13_2:
	movb	$0, -1(%rbp)
	jmp	.LBB13_6
.LBB13_3:
	movq	-16(%rbp), %rdi
	callq	strlen@PLT
	movq	%rax, -32(%rbp)
	movq	-24(%rbp), %rdi
	callq	strlen@PLT
	movq	%rax, -40(%rbp)
	movq	-40(%rbp), %rax
	cmpq	-32(%rbp), %rax
	jbe	.LBB13_5
# %bb.4:
	movb	$0, -1(%rbp)
	jmp	.LBB13_6
.LBB13_5:
	movq	-16(%rbp), %rdi
	addq	-32(%rbp), %rdi
	xorl	%eax, %eax
                                        # kill: def $rax killed $eax
	subq	-40(%rbp), %rax
	addq	%rax, %rdi
	movq	-24(%rbp), %rsi
	movq	-40(%rbp), %rdx
	callq	strncmp@PLT
	cmpl	$0, %eax
	sete	%al
	andb	$1, %al
	movb	%al, -1(%rbp)
.LBB13_6:
	movb	-1(%rbp), %al
	andb	$1, %al
	addq	$48, %rsp
	popq	%rbp
	.cfi_def_cfa %rsp, 8
	retq
.Lfunc_end13:
	.size	_Z12cStrEndsWithPKcS0_, .Lfunc_end13-_Z12cStrEndsWithPKcS0_
	.cfi_endproc
                                        # -- End function
	.section	.text._ZNK5clang10Diagnostic5getIDEv,"axG",@progbits,_ZNK5clang10Diagnostic5getIDEv,comdat
	.weak	_ZNK5clang10Diagnostic5getIDEv  # -- Begin function _ZNK5clang10Diagnostic5getIDEv
	.p2align	4
	.type	_ZNK5clang10Diagnostic5getIDEv,@function
_ZNK5clang10Diagnostic5getIDEv:         # @_ZNK5clang10Diagnostic5getIDEv
	.cfi_startproc
# %bb.0:
	pushq	%rbp
	.cfi_def_cfa_offset 16
	.cfi_offset %rbp, -16
	movq	%rsp, %rbp
	.cfi_def_cfa_register %rbp
	movq	%rdi, -8(%rbp)
	movq	-8(%rbp), %rax
	movl	12(%rax), %eax
	popq	%rbp
	.cfi_def_cfa %rsp, 8
	retq
.Lfunc_end14:
	.size	_ZNK5clang10Diagnostic5getIDEv, .Lfunc_end14-_ZNK5clang10Diagnostic5getIDEv
	.cfi_endproc
                                        # -- End function
	.section	.text._ZN4llvm11SmallStringILj100EEC2Ev,"axG",@progbits,_ZN4llvm11SmallStringILj100EEC2Ev,comdat
	.weak	_ZN4llvm11SmallStringILj100EEC2Ev # -- Begin function _ZN4llvm11SmallStringILj100EEC2Ev
	.p2align	4
	.type	_ZN4llvm11SmallStringILj100EEC2Ev,@function
_ZN4llvm11SmallStringILj100EEC2Ev:      # @_ZN4llvm11SmallStringILj100EEC2Ev
	.cfi_startproc
# %bb.0:
	pushq	%rbp
	.cfi_def_cfa_offset 16
	.cfi_offset %rbp, -16
	movq	%rsp, %rbp
	.cfi_def_cfa_register %rbp
	subq	$16, %rsp
	movq	%rdi, -8(%rbp)
	movq	-8(%rbp), %rdi
	callq	_ZN4llvm11SmallVectorIcLj100EEC2Ev
	addq	$16, %rsp
	popq	%rbp
	.cfi_def_cfa %rsp, 8
	retq
.Lfunc_end15:
	.size	_ZN4llvm11SmallStringILj100EEC2Ev, .Lfunc_end15-_ZN4llvm11SmallStringILj100EEC2Ev
	.cfi_endproc
                                        # -- End function
	.section	.text._ZNK4llvm11SmallStringILj100EE6substrEmm,"axG",@progbits,_ZNK4llvm11SmallStringILj100EE6substrEmm,comdat
	.weak	_ZNK4llvm11SmallStringILj100EE6substrEmm # -- Begin function _ZNK4llvm11SmallStringILj100EE6substrEmm
	.p2align	4
	.type	_ZNK4llvm11SmallStringILj100EE6substrEmm,@function
_ZNK4llvm11SmallStringILj100EE6substrEmm: # @_ZNK4llvm11SmallStringILj100EE6substrEmm
	.cfi_startproc
# %bb.0:
	pushq	%rbp
	.cfi_def_cfa_offset 16
	.cfi_offset %rbp, -16
	movq	%rsp, %rbp
	.cfi_def_cfa_register %rbp
	subq	$80, %rsp
	movq	%fs:40, %rax
	movq	%rax, -8(%rbp)
	movq	%rdi, -48(%rbp)
	movq	%rsi, -56(%rbp)
	movq	%rdx, -64(%rbp)
	movq	-48(%rbp), %rdi
	callq	_ZNK4llvm11SmallStringILj100EE3strEv
	movq	%rax, -24(%rbp)
	movq	%rdx, -16(%rbp)
	movq	-56(%rbp), %rsi
	movq	-64(%rbp), %rdx
	leaq	-24(%rbp), %rdi
	callq	_ZNK4llvm9StringRef6substrEmm
	movq	%rax, -40(%rbp)
	movq	%rdx, -32(%rbp)
	movq	-40(%rbp), %rax
	movq	%rax, -80(%rbp)                 # 8-byte Spill
	movq	-32(%rbp), %rax
	movq	%rax, -72(%rbp)                 # 8-byte Spill
	movq	%fs:40, %rax
	movq	-8(%rbp), %rcx
	cmpq	%rcx, %rax
	jne	.LBB16_2
# %bb.1:
	movq	-72(%rbp), %rdx                 # 8-byte Reload
	movq	-80(%rbp), %rax                 # 8-byte Reload
	addq	$80, %rsp
	popq	%rbp
	.cfi_def_cfa %rsp, 8
	retq
.LBB16_2:
	.cfi_def_cfa %rbp, 16
	callq	__stack_chk_fail@PLT
.Lfunc_end16:
	.size	_ZNK4llvm11SmallStringILj100EE6substrEmm, .Lfunc_end16-_ZNK4llvm11SmallStringILj100EE6substrEmm
	.cfi_endproc
                                        # -- End function
	.section	.text._ZN4llvm11raw_ostreamlsENS_9StringRefE,"axG",@progbits,_ZN4llvm11raw_ostreamlsENS_9StringRefE,comdat
	.weak	_ZN4llvm11raw_ostreamlsENS_9StringRefE # -- Begin function _ZN4llvm11raw_ostreamlsENS_9StringRefE
	.p2align	4
	.type	_ZN4llvm11raw_ostreamlsENS_9StringRefE,@function
_ZN4llvm11raw_ostreamlsENS_9StringRefE: # @_ZN4llvm11raw_ostreamlsENS_9StringRefE
	.cfi_startproc
# %bb.0:
	pushq	%rbp
	.cfi_def_cfa_offset 16
	.cfi_offset %rbp, -16
	movq	%rsp, %rbp
	.cfi_def_cfa_register %rbp
	subq	$80, %rsp
	movq	%fs:40, %rax
	movq	%rax, -8(%rbp)
	movq	%rsi, -24(%rbp)
	movq	%rdx, -16(%rbp)
	movq	%rdi, -40(%rbp)
	movq	-40(%rbp), %rax
	movq	%rax, -56(%rbp)                 # 8-byte Spill
	leaq	-24(%rbp), %rdi
	callq	_ZNK4llvm9StringRef4sizeEv
	movq	-56(%rbp), %rdx                 # 8-byte Reload
	movq	%rax, -48(%rbp)
	movq	-48(%rbp), %rax
	movq	24(%rdx), %rcx
	movq	32(%rdx), %rdx
	subq	%rdx, %rcx
	cmpq	%rcx, %rax
	jbe	.LBB17_2
# %bb.1:
	leaq	-24(%rbp), %rdi
	callq	_ZNK4llvm9StringRef4dataEv
	movq	-56(%rbp), %rdi                 # 8-byte Reload
	movq	%rax, %rsi
	movq	-48(%rbp), %rdx
	callq	_ZN4llvm11raw_ostream5writeEPKcm@PLT
	movq	%rax, -32(%rbp)
	jmp	.LBB17_5
.LBB17_2:
	cmpq	$0, -48(%rbp)
	je	.LBB17_4
# %bb.3:
	movq	-56(%rbp), %rax                 # 8-byte Reload
	movq	32(%rax), %rax
	movq	%rax, -64(%rbp)                 # 8-byte Spill
	leaq	-24(%rbp), %rdi
	callq	_ZNK4llvm9StringRef4dataEv
	movq	-64(%rbp), %rdi                 # 8-byte Reload
	movq	%rax, %rsi
	movq	-48(%rbp), %rdx
	callq	memcpy@PLT
	movq	-56(%rbp), %rax                 # 8-byte Reload
	movq	-48(%rbp), %rcx
	addq	32(%rax), %rcx
	movq	%rcx, 32(%rax)
.LBB17_4:
	movq	-56(%rbp), %rax                 # 8-byte Reload
	movq	%rax, -32(%rbp)
.LBB17_5:
	movq	-32(%rbp), %rax
	movq	%rax, -72(%rbp)                 # 8-byte Spill
	movq	%fs:40, %rax
	movq	-8(%rbp), %rcx
	cmpq	%rcx, %rax
	jne	.LBB17_7
# %bb.6:
	movq	-72(%rbp), %rax                 # 8-byte Reload
	addq	$80, %rsp
	popq	%rbp
	.cfi_def_cfa %rsp, 8
	retq
.LBB17_7:
	.cfi_def_cfa %rbp, 16
	callq	__stack_chk_fail@PLT
.Lfunc_end17:
	.size	_ZN4llvm11raw_ostreamlsENS_9StringRefE, .Lfunc_end17-_ZN4llvm11raw_ostreamlsENS_9StringRefE
	.cfi_endproc
                                        # -- End function
	.section	.text._ZN18IdentifierLocationC2Ev,"axG",@progbits,_ZN18IdentifierLocationC2Ev,comdat
	.weak	_ZN18IdentifierLocationC2Ev     # -- Begin function _ZN18IdentifierLocationC2Ev
	.p2align	4
	.type	_ZN18IdentifierLocationC2Ev,@function
_ZN18IdentifierLocationC2Ev:            # @_ZN18IdentifierLocationC2Ev
	.cfi_startproc
# %bb.0:
	pushq	%rbp
	.cfi_def_cfa_offset 16
	.cfi_offset %rbp, -16
	movq	%rsp, %rbp
	.cfi_def_cfa_register %rbp
	subq	$16, %rsp
	movq	%rdi, -8(%rbp)
	movq	-8(%rbp), %rdi
	movq	%rdi, -16(%rbp)                 # 8-byte Spill
	callq	_ZN5clang13FullSourceLocC2Ev
	movq	-16(%rbp), %rdi                 # 8-byte Reload
	addq	$16, %rdi
	callq	_ZNSt7__cxx1112basic_stringIcSt11char_traitsIcESaIcEEC2Ev
	addq	$16, %rsp
	popq	%rbp
	.cfi_def_cfa %rsp, 8
	retq
.Lfunc_end18:
	.size	_ZN18IdentifierLocationC2Ev, .Lfunc_end18-_ZN18IdentifierLocationC2Ev
	.cfi_endproc
                                        # -- End function
	.section	.text._ZN5clang13FullSourceLocC2ENS_14SourceLocationERKNS_13SourceManagerE,"axG",@progbits,_ZN5clang13FullSourceLocC2ENS_14SourceLocationERKNS_13SourceManagerE,comdat
	.weak	_ZN5clang13FullSourceLocC2ENS_14SourceLocationERKNS_13SourceManagerE # -- Begin function _ZN5clang13FullSourceLocC2ENS_14SourceLocationERKNS_13SourceManagerE
	.p2align	4
	.type	_ZN5clang13FullSourceLocC2ENS_14SourceLocationERKNS_13SourceManagerE,@function
_ZN5clang13FullSourceLocC2ENS_14SourceLocationERKNS_13SourceManagerE: # @_ZN5clang13FullSourceLocC2ENS_14SourceLocationERKNS_13SourceManagerE
	.cfi_startproc
# %bb.0:
	pushq	%rbp
	.cfi_def_cfa_offset 16
	.cfi_offset %rbp, -16
	movq	%rsp, %rbp
	.cfi_def_cfa_register %rbp
	subq	$32, %rsp
	movq	%fs:40, %rax
	movq	%rax, -8(%rbp)
	movl	%esi, -12(%rbp)
	movq	%rdi, -24(%rbp)
	movq	%rdx, -32(%rbp)
	movq	-24(%rbp), %rax
	movl	-12(%rbp), %ecx
	movl	%ecx, (%rax)
	movq	-32(%rbp), %rcx
	movq	%rcx, 8(%rax)
	movq	%fs:40, %rax
	movq	-8(%rbp), %rcx
	cmpq	%rcx, %rax
	jne	.LBB19_2
# %bb.1:
	addq	$32, %rsp
	popq	%rbp
	.cfi_def_cfa %rsp, 8
	retq
.LBB19_2:
	.cfi_def_cfa %rbp, 16
	callq	__stack_chk_fail@PLT
.Lfunc_end19:
	.size	_ZN5clang13FullSourceLocC2ENS_14SourceLocationERKNS_13SourceManagerE, .Lfunc_end19-_ZN5clang13FullSourceLocC2ENS_14SourceLocationERKNS_13SourceManagerE
	.cfi_endproc
                                        # -- End function
	.section	.text._ZNK4llvm9StringRef3strB5cxx11Ev,"axG",@progbits,_ZNK4llvm9StringRef3strB5cxx11Ev,comdat
	.weak	_ZNK4llvm9StringRef3strB5cxx11Ev # -- Begin function _ZNK4llvm9StringRef3strB5cxx11Ev
	.p2align	4
	.type	_ZNK4llvm9StringRef3strB5cxx11Ev,@function
_ZNK4llvm9StringRef3strB5cxx11Ev:       # @_ZNK4llvm9StringRef3strB5cxx11Ev
.Lfunc_begin1:
	.cfi_startproc
	.cfi_personality 155, DW.ref.__gxx_personality_v0
	.cfi_lsda 27, .Lexception1
# %bb.0:
	pushq	%rbp
	.cfi_def_cfa_offset 16
	.cfi_offset %rbp, -16
	movq	%rsp, %rbp
	.cfi_def_cfa_register %rbp
	subq	$128, %rsp
	movq	%rdi, -104(%rbp)                # 8-byte Spill
	movq	%rdi, %rax
	movq	%rax, -96(%rbp)                 # 8-byte Spill
	movq	%fs:40, %rax
	movq	%rax, -8(%rbp)
	movq	%rdi, -56(%rbp)
	movq	%rsi, -64(%rbp)
	movq	-64(%rbp), %rdi
	movq	%rdi, -88(%rbp)                 # 8-byte Spill
	callq	_ZNK4llvm9StringRef4dataEv
	cmpq	$0, %rax
	jne	.LBB20_2
# %bb.1:
	movq	-104(%rbp), %rdi                # 8-byte Reload
	callq	_ZNSt7__cxx1112basic_stringIcSt11char_traitsIcESaIcEEC2Ev
	jmp	.LBB20_5
.LBB20_2:
	movq	-88(%rbp), %rdi                 # 8-byte Reload
	callq	_ZNK4llvm9StringRef4dataEv
	movq	-88(%rbp), %rdi                 # 8-byte Reload
	movq	%rax, -112(%rbp)                # 8-byte Spill
	callq	_ZNK4llvm9StringRef4sizeEv
	movq	-104(%rbp), %rdi                # 8-byte Reload
	movq	-112(%rbp), %rsi                # 8-byte Reload
	movq	%rax, %rdx
	leaq	-9(%rbp), %rcx
	movq	%rcx, -48(%rbp)
	movq	-48(%rbp), %rax
	movq	%rax, -24(%rbp)
.Ltmp95:
	callq	_ZNSt7__cxx1112basic_stringIcSt11char_traitsIcESaIcEEC2EPKcmRKS3_
.Ltmp96:
	jmp	.LBB20_3
.LBB20_3:
	leaq	-9(%rbp), %rax
	movq	%rax, -40(%rbp)
	movq	-40(%rbp), %rdi
	callq	_ZNSt15__new_allocatorIcED2Ev
	jmp	.LBB20_5
.LBB20_4:
.Ltmp97:
	movq	%rax, %rcx
	movl	%edx, %eax
	movq	%rcx, -72(%rbp)
	movl	%eax, -76(%rbp)
	leaq	-9(%rbp), %rax
	movq	%rax, -32(%rbp)
	movq	-32(%rbp), %rdi
	callq	_ZNSt15__new_allocatorIcED2Ev
	jmp	.LBB20_7
.LBB20_5:
	movq	%fs:40, %rax
	movq	-8(%rbp), %rcx
	cmpq	%rcx, %rax
	jne	.LBB20_9
# %bb.6:
	movq	-96(%rbp), %rax                 # 8-byte Reload
	addq	$128, %rsp
	popq	%rbp
	.cfi_def_cfa %rsp, 8
	retq
.LBB20_7:
	.cfi_def_cfa %rbp, 16
	movq	-72(%rbp), %rax
	movq	%rax, -120(%rbp)                # 8-byte Spill
	movq	%fs:40, %rax
	movq	-8(%rbp), %rcx
	cmpq	%rcx, %rax
	jne	.LBB20_9
# %bb.8:
	movq	-120(%rbp), %rdi                # 8-byte Reload
	callq	_Unwind_Resume@PLT
.LBB20_9:
	callq	__stack_chk_fail@PLT
.Lfunc_end20:
	.size	_ZNK4llvm9StringRef3strB5cxx11Ev, .Lfunc_end20-_ZNK4llvm9StringRef3strB5cxx11Ev
	.cfi_endproc
	.section	.gcc_except_table._ZNK4llvm9StringRef3strB5cxx11Ev,"aG",@progbits,_ZNK4llvm9StringRef3strB5cxx11Ev,comdat
	.p2align	2, 0x0
GCC_except_table20:
.Lexception1:
	.byte	255                             # @LPStart Encoding = omit
	.byte	255                             # @TType Encoding = omit
	.byte	1                               # Call site Encoding = uleb128
	.uleb128 .Lcst_end1-.Lcst_begin1
.Lcst_begin1:
	.uleb128 .Ltmp95-.Lfunc_begin1          # >> Call Site 1 <<
	.uleb128 .Ltmp96-.Ltmp95                #   Call between .Ltmp95 and .Ltmp96
	.uleb128 .Ltmp97-.Lfunc_begin1          #     jumps to .Ltmp97
	.byte	0                               #   On action: cleanup
	.uleb128 .Ltmp96-.Lfunc_begin1          # >> Call Site 2 <<
	.uleb128 .Lfunc_end20-.Ltmp96           #   Call between .Ltmp96 and .Lfunc_end20
	.byte	0                               #     has no landing pad
	.byte	0                               #   On action: cleanup
.Lcst_end1:
	.p2align	2, 0x0
                                        # -- End function
	.section	.text._ZNSt7__cxx1112basic_stringIcSt11char_traitsIcESaIcEEaSEOS4_,"axG",@progbits,_ZNSt7__cxx1112basic_stringIcSt11char_traitsIcESaIcEEaSEOS4_,comdat
	.weak	_ZNSt7__cxx1112basic_stringIcSt11char_traitsIcESaIcEEaSEOS4_ # -- Begin function _ZNSt7__cxx1112basic_stringIcSt11char_traitsIcESaIcEEaSEOS4_
	.p2align	4
	.type	_ZNSt7__cxx1112basic_stringIcSt11char_traitsIcESaIcEEaSEOS4_,@function
_ZNSt7__cxx1112basic_stringIcSt11char_traitsIcESaIcEEaSEOS4_: # @_ZNSt7__cxx1112basic_stringIcSt11char_traitsIcESaIcEEaSEOS4_
.Lfunc_begin2:
	.cfi_startproc
	.cfi_personality 155, DW.ref.__gxx_personality_v0
	.cfi_lsda 27, .Lexception2
# %bb.0:
	pushq	%rbp
	.cfi_def_cfa_offset 16
	.cfi_offset %rbp, -16
	movq	%rsp, %rbp
	.cfi_def_cfa_register %rbp
	subq	$128, %rsp
	movq	%rdi, -32(%rbp)
	movq	%rsi, -40(%rbp)
	movq	-32(%rbp), %rdi
	movq	%rdi, -80(%rbp)                 # 8-byte Spill
	movb	$1, -41(%rbp)
.Ltmp98:
	callq	_ZNKSt7__cxx1112basic_stringIcSt11char_traitsIcESaIcEE11_M_is_localEv
.Ltmp99:
	movb	%al, -65(%rbp)                  # 1-byte Spill
	jmp	.LBB21_1
.LBB21_1:
	movb	-65(%rbp), %al                  # 1-byte Reload
	testb	$1, %al
	jne	.LBB21_5
	jmp	.LBB21_2
.LBB21_2:
	movb	$1, %al
	testb	$1, %al
	jne	.LBB21_5
	jmp	.LBB21_3
.LBB21_3:
	movq	-80(%rbp), %rdi                 # 8-byte Reload
	movq	16(%rdi), %rsi
	callq	_ZNSt7__cxx1112basic_stringIcSt11char_traitsIcESaIcEE10_M_destroyEm
	movq	-80(%rbp), %rdi                 # 8-byte Reload
	callq	_ZNSt7__cxx1112basic_stringIcSt11char_traitsIcESaIcEE13_M_local_dataEv
	movq	-80(%rbp), %rdi                 # 8-byte Reload
	movq	%rax, %rsi
	callq	_ZNSt7__cxx1112basic_stringIcSt11char_traitsIcESaIcEE7_M_dataEPc
	movq	-80(%rbp), %rdi                 # 8-byte Reload
.Ltmp100:
	xorl	%eax, %eax
	movl	%eax, %esi
	callq	_ZNSt7__cxx1112basic_stringIcSt11char_traitsIcESaIcEE13_M_set_lengthEm
.Ltmp101:
	jmp	.LBB21_4
.LBB21_4:
	jmp	.LBB21_5
.LBB21_5:
	movq	-80(%rbp), %rdi                 # 8-byte Reload
	callq	_ZNSt7__cxx1112basic_stringIcSt11char_traitsIcESaIcEE16_M_get_allocatorEv
	movq	%rax, -88(%rbp)                 # 8-byte Spill
	movq	-40(%rbp), %rdi
	callq	_ZNSt7__cxx1112basic_stringIcSt11char_traitsIcESaIcEE16_M_get_allocatorEv
	movq	-88(%rbp), %rcx                 # 8-byte Reload
	movq	%rcx, -16(%rbp)
	movq	%rax, -24(%rbp)
# %bb.6:
	movq	-40(%rbp), %rdi
.Ltmp102:
	callq	_ZNKSt7__cxx1112basic_stringIcSt11char_traitsIcESaIcEE11_M_is_localEv
.Ltmp103:
	movb	%al, -89(%rbp)                  # 1-byte Spill
	jmp	.LBB21_7
.LBB21_7:
	movb	-89(%rbp), %al                  # 1-byte Reload
	testb	$1, %al
	jne	.LBB21_8
	jmp	.LBB21_15
.LBB21_8:
	movq	-80(%rbp), %rax                 # 8-byte Reload
	cmpq	%rax, -40(%rbp)
	je	.LBB21_14
# %bb.9:
	movq	-40(%rbp), %rdi
	callq	_ZNKSt7__cxx1112basic_stringIcSt11char_traitsIcESaIcEE4sizeEv
	cmpq	$0, %rax
	je	.LBB21_12
# %bb.10:
	movq	-80(%rbp), %rdi                 # 8-byte Reload
	callq	_ZNKSt7__cxx1112basic_stringIcSt11char_traitsIcESaIcEE7_M_dataEv
	movq	%rax, -112(%rbp)                # 8-byte Spill
	movq	-40(%rbp), %rdi
	callq	_ZNKSt7__cxx1112basic_stringIcSt11char_traitsIcESaIcEE7_M_dataEv
	movq	%rax, -104(%rbp)                # 8-byte Spill
	movq	-40(%rbp), %rdi
	callq	_ZNKSt7__cxx1112basic_stringIcSt11char_traitsIcESaIcEE4sizeEv
	movq	-112(%rbp), %rdi                # 8-byte Reload
	movq	-104(%rbp), %rsi                # 8-byte Reload
	movq	%rax, %rdx
.Ltmp106:
	callq	_ZNSt7__cxx1112basic_stringIcSt11char_traitsIcESaIcEE7_S_copyEPcPKcm
.Ltmp107:
	jmp	.LBB21_11
.LBB21_11:
	jmp	.LBB21_12
.LBB21_12:
	movq	-40(%rbp), %rdi
	callq	_ZNKSt7__cxx1112basic_stringIcSt11char_traitsIcESaIcEE4sizeEv
	movq	-80(%rbp), %rdi                 # 8-byte Reload
	movq	%rax, %rsi
.Ltmp108:
	callq	_ZNSt7__cxx1112basic_stringIcSt11char_traitsIcESaIcEE13_M_set_lengthEm
.Ltmp109:
	jmp	.LBB21_13
.LBB21_13:
	jmp	.LBB21_14
.LBB21_14:
	jmp	.LBB21_22
.LBB21_15:
	movq	-80(%rbp), %rdi                 # 8-byte Reload
	movq	$0, -56(%rbp)
.Ltmp104:
	callq	_ZNKSt7__cxx1112basic_stringIcSt11char_traitsIcESaIcEE11_M_is_localEv
.Ltmp105:
	movb	%al, -113(%rbp)                 # 1-byte Spill
	jmp	.LBB21_16
.LBB21_16:
	movb	-113(%rbp), %al                 # 1-byte Reload
	testb	$1, %al
	jne	.LBB21_18
	jmp	.LBB21_17
.LBB21_17:
	movq	-80(%rbp), %rdi                 # 8-byte Reload
	callq	_ZNKSt7__cxx1112basic_stringIcSt11char_traitsIcESaIcEE7_M_dataEv
	movq	%rax, %rcx
	movq	-80(%rbp), %rax                 # 8-byte Reload
	movq	%rcx, -56(%rbp)
	movq	16(%rax), %rax
	movq	%rax, -64(%rbp)
.LBB21_18:
	movq	-40(%rbp), %rdi
	callq	_ZNKSt7__cxx1112basic_stringIcSt11char_traitsIcESaIcEE7_M_dataEv
	movq	-80(%rbp), %rdi                 # 8-byte Reload
	movq	%rax, %rsi
	callq	_ZNSt7__cxx1112basic_stringIcSt11char_traitsIcESaIcEE7_M_dataEPc
	movq	-40(%rbp), %rdi
	callq	_ZNKSt7__cxx1112basic_stringIcSt11char_traitsIcESaIcEE6lengthEv
	movq	-80(%rbp), %rdi                 # 8-byte Reload
	movq	%rax, %rsi
	callq	_ZNSt7__cxx1112basic_stringIcSt11char_traitsIcESaIcEE9_M_lengthEm
	movq	-80(%rbp), %rdi                 # 8-byte Reload
	movq	-40(%rbp), %rax
	movq	16(%rax), %rsi
	callq	_ZNSt7__cxx1112basic_stringIcSt11char_traitsIcESaIcEE11_M_capacityEm
	cmpq	$0, -56(%rbp)
	je	.LBB21_20
# %bb.19:
	movq	-40(%rbp), %rdi
	movq	-56(%rbp), %rsi
	callq	_ZNSt7__cxx1112basic_stringIcSt11char_traitsIcESaIcEE7_M_dataEPc
	movq	-40(%rbp), %rdi
	movq	-64(%rbp), %rsi
	callq	_ZNSt7__cxx1112basic_stringIcSt11char_traitsIcESaIcEE11_M_capacityEm
	jmp	.LBB21_21
.LBB21_20:
	movq	-40(%rbp), %rax
	movq	%rax, -128(%rbp)                # 8-byte Spill
	movq	-40(%rbp), %rax
	movq	%rax, -8(%rbp)
	movq	-8(%rbp), %rdi
	callq	_ZNSt7__cxx1112basic_stringIcSt11char_traitsIcESaIcEE13_M_local_dataEv
	movq	-128(%rbp), %rdi                # 8-byte Reload
	movq	%rax, %rsi
	callq	_ZNSt7__cxx1112basic_stringIcSt11char_traitsIcESaIcEE7_M_dataEPc
.LBB21_21:
	jmp	.LBB21_22
.LBB21_22:
	movq	-40(%rbp), %rdi
	callq	_ZNSt7__cxx1112basic_stringIcSt11char_traitsIcESaIcEE5clearEv
	movq	-80(%rbp), %rax                 # 8-byte Reload
	addq	$128, %rsp
	popq	%rbp
	.cfi_def_cfa %rsp, 8
	retq
.LBB21_23:
	.cfi_def_cfa %rbp, 16
.Ltmp110:
	movq	%rax, %rdi
                                        # kill: def $eax killed $edx killed $rdx
	callq	__clang_call_terminate
.Lfunc_end21:
	.size	_ZNSt7__cxx1112basic_stringIcSt11char_traitsIcESaIcEEaSEOS4_, .Lfunc_end21-_ZNSt7__cxx1112basic_stringIcSt11char_traitsIcESaIcEEaSEOS4_
	.cfi_endproc
	.section	.gcc_except_table._ZNSt7__cxx1112basic_stringIcSt11char_traitsIcESaIcEEaSEOS4_,"aG",@progbits,_ZNSt7__cxx1112basic_stringIcSt11char_traitsIcESaIcEEaSEOS4_,comdat
	.p2align	2, 0x0
GCC_except_table21:
.Lexception2:
	.byte	255                             # @LPStart Encoding = omit
	.byte	155                             # @TType Encoding = indirect pcrel sdata4
	.uleb128 .Lttbase0-.Lttbaseref0
.Lttbaseref0:
	.byte	1                               # Call site Encoding = uleb128
	.uleb128 .Lcst_end2-.Lcst_begin2
.Lcst_begin2:
	.uleb128 .Ltmp98-.Lfunc_begin2          # >> Call Site 1 <<
	.uleb128 .Ltmp105-.Ltmp98               #   Call between .Ltmp98 and .Ltmp105
	.uleb128 .Ltmp110-.Lfunc_begin2         #     jumps to .Ltmp110
	.byte	1                               #   On action: 1
.Lcst_end2:
	.byte	1                               # >> Action Record 1 <<
                                        #   Catch TypeInfo 1
	.byte	0                               #   No further actions
	.p2align	2, 0x0
                                        # >> Catch TypeInfos <<
	.long	0                               # TypeInfo 1
.Lttbase0:
	.p2align	2, 0x0
                                        # -- End function
	.section	.text._ZNSt7__cxx1112basic_stringIcSt11char_traitsIcESaIcEED2Ev,"axG",@progbits,_ZNSt7__cxx1112basic_stringIcSt11char_traitsIcESaIcEED2Ev,comdat
	.weak	_ZNSt7__cxx1112basic_stringIcSt11char_traitsIcESaIcEED2Ev # -- Begin function _ZNSt7__cxx1112basic_stringIcSt11char_traitsIcESaIcEED2Ev
	.p2align	4
	.type	_ZNSt7__cxx1112basic_stringIcSt11char_traitsIcESaIcEED2Ev,@function
_ZNSt7__cxx1112basic_stringIcSt11char_traitsIcESaIcEED2Ev: # @_ZNSt7__cxx1112basic_stringIcSt11char_traitsIcESaIcEED2Ev
.Lfunc_begin3:
	.cfi_startproc
	.cfi_personality 155, DW.ref.__gxx_personality_v0
	.cfi_lsda 27, .Lexception3
# %bb.0:
	pushq	%rbp
	.cfi_def_cfa_offset 16
	.cfi_offset %rbp, -16
	movq	%rsp, %rbp
	.cfi_def_cfa_register %rbp
	subq	$16, %rsp
	movq	%rdi, -8(%rbp)
	movq	-8(%rbp), %rdi
	movq	%rdi, -16(%rbp)                 # 8-byte Spill
.Ltmp111:
	callq	_ZNSt7__cxx1112basic_stringIcSt11char_traitsIcESaIcEE10_M_disposeEv
.Ltmp112:
	jmp	.LBB22_1
.LBB22_1:
	movq	-16(%rbp), %rdi                 # 8-byte Reload
	callq	_ZNSt7__cxx1112basic_stringIcSt11char_traitsIcESaIcEE12_Alloc_hiderD2Ev
	addq	$16, %rsp
	popq	%rbp
	.cfi_def_cfa %rsp, 8
	retq
.LBB22_2:
	.cfi_def_cfa %rbp, 16
.Ltmp113:
	movq	%rax, %rdi
                                        # kill: def $eax killed $edx killed $rdx
	callq	__clang_call_terminate
.Lfunc_end22:
	.size	_ZNSt7__cxx1112basic_stringIcSt11char_traitsIcESaIcEED2Ev, .Lfunc_end22-_ZNSt7__cxx1112basic_stringIcSt11char_traitsIcESaIcEED2Ev
	.cfi_endproc
	.section	.gcc_except_table._ZNSt7__cxx1112basic_stringIcSt11char_traitsIcESaIcEED2Ev,"aG",@progbits,_ZNSt7__cxx1112basic_stringIcSt11char_traitsIcESaIcEED2Ev,comdat
	.p2align	2, 0x0
GCC_except_table22:
.Lexception3:
	.byte	255                             # @LPStart Encoding = omit
	.byte	155                             # @TType Encoding = indirect pcrel sdata4
	.uleb128 .Lttbase1-.Lttbaseref1
.Lttbaseref1:
	.byte	1                               # Call site Encoding = uleb128
	.uleb128 .Lcst_end3-.Lcst_begin3
.Lcst_begin3:
	.uleb128 .Ltmp111-.Lfunc_begin3         # >> Call Site 1 <<
	.uleb128 .Ltmp112-.Ltmp111              #   Call between .Ltmp111 and .Ltmp112
	.uleb128 .Ltmp113-.Lfunc_begin3         #     jumps to .Ltmp113
	.byte	1                               #   On action: 1
.Lcst_end3:
	.byte	1                               # >> Action Record 1 <<
                                        #   Catch TypeInfo 1
	.byte	0                               #   No further actions
	.p2align	2, 0x0
                                        # >> Catch TypeInfos <<
	.long	0                               # TypeInfo 1
.Lttbase1:
	.p2align	2, 0x0
                                        # -- End function
	.section	.text._ZNSt7__cxx114listIP18IdentifierLocationSaIS2_EE10push_frontERKS2_,"axG",@progbits,_ZNSt7__cxx114listIP18IdentifierLocationSaIS2_EE10push_frontERKS2_,comdat
	.weak	_ZNSt7__cxx114listIP18IdentifierLocationSaIS2_EE10push_frontERKS2_ # -- Begin function _ZNSt7__cxx114listIP18IdentifierLocationSaIS2_EE10push_frontERKS2_
	.p2align	4
	.type	_ZNSt7__cxx114listIP18IdentifierLocationSaIS2_EE10push_frontERKS2_,@function
_ZNSt7__cxx114listIP18IdentifierLocationSaIS2_EE10push_frontERKS2_: # @_ZNSt7__cxx114listIP18IdentifierLocationSaIS2_EE10push_frontERKS2_
	.cfi_startproc
# %bb.0:
	pushq	%rbp
	.cfi_def_cfa_offset 16
	.cfi_offset %rbp, -16
	movq	%rsp, %rbp
	.cfi_def_cfa_register %rbp
	subq	$32, %rsp
	movq	%rdi, -8(%rbp)
	movq	%rsi, -16(%rbp)
	movq	-8(%rbp), %rdi
	movq	%rdi, -32(%rbp)                 # 8-byte Spill
	callq	_ZNSt7__cxx114listIP18IdentifierLocationSaIS2_EE5beginEv
	movq	-32(%rbp), %rdi                 # 8-byte Reload
	movq	%rax, -24(%rbp)
	movq	-16(%rbp), %rdx
	movq	-24(%rbp), %rsi
	callq	_ZNSt7__cxx114listIP18IdentifierLocationSaIS2_EE9_M_insertIJRKS2_EEEvSt14_List_iteratorIS2_EDpOT_
	addq	$32, %rsp
	popq	%rbp
	.cfi_def_cfa %rsp, 8
	retq
.Lfunc_end23:
	.size	_ZNSt7__cxx114listIP18IdentifierLocationSaIS2_EE10push_frontERKS2_, .Lfunc_end23-_ZNSt7__cxx114listIP18IdentifierLocationSaIS2_EE10push_frontERKS2_
	.cfi_endproc
                                        # -- End function
	.section	.text._ZN4llvm11SmallStringILj100EED2Ev,"axG",@progbits,_ZN4llvm11SmallStringILj100EED2Ev,comdat
	.weak	_ZN4llvm11SmallStringILj100EED2Ev # -- Begin function _ZN4llvm11SmallStringILj100EED2Ev
	.p2align	4
	.type	_ZN4llvm11SmallStringILj100EED2Ev,@function
_ZN4llvm11SmallStringILj100EED2Ev:      # @_ZN4llvm11SmallStringILj100EED2Ev
	.cfi_startproc
# %bb.0:
	pushq	%rbp
	.cfi_def_cfa_offset 16
	.cfi_offset %rbp, -16
	movq	%rsp, %rbp
	.cfi_def_cfa_register %rbp
	subq	$16, %rsp
	movq	%rdi, -8(%rbp)
	movq	-8(%rbp), %rdi
	callq	_ZN4llvm11SmallVectorIcLj100EED2Ev
	addq	$16, %rsp
	popq	%rbp
	.cfi_def_cfa %rsp, 8
	retq
.Lfunc_end24:
	.size	_ZN4llvm11SmallStringILj100EED2Ev, .Lfunc_end24-_ZN4llvm11SmallStringILj100EED2Ev
	.cfi_endproc
                                        # -- End function
	.section	.text._ZN8nlohmann10basic_jsonISt3mapSt6vectorNSt7__cxx1112basic_stringIcSt11char_traitsIcESaIcEEEblmdSaNS_14adl_serializerEEC2IRA9_KcA9_cTnNSt9enable_ifIXaaaaaantsr3std10is_base_ofISiT0_EE5valuentsr3std7is_sameISH_SA_EE5valuentsr6detail25is_basic_json_nested_typeISA_SH_EE5valuesr6detail11has_to_jsonISA_SH_EE5valueEiE4typeELi0EEEOT_,"axG",@progbits,_ZN8nlohmann10basic_jsonISt3mapSt6vectorNSt7__cxx1112basic_stringIcSt11char_traitsIcESaIcEEEblmdSaNS_14adl_serializerEEC2IRA9_KcA9_cTnNSt9enable_ifIXaaaaaantsr3std10is_base_ofISiT0_EE5valuentsr3std7is_sameISH_SA_EE5valuentsr6detail25is_basic_json_nested_typeISA_SH_EE5valuesr6detail11has_to_jsonISA_SH_EE5valueEiE4typeELi0EEEOT_,comdat
	.weak	_ZN8nlohmann10basic_jsonISt3mapSt6vectorNSt7__cxx1112basic_stringIcSt11char_traitsIcESaIcEEEblmdSaNS_14adl_serializerEEC2IRA9_KcA9_cTnNSt9enable_ifIXaaaaaantsr3std10is_base_ofISiT0_EE5valuentsr3std7is_sameISH_SA_EE5valuentsr6detail25is_basic_json_nested_typeISA_SH_EE5valuesr6detail11has_to_jsonISA_SH_EE5valueEiE4typeELi0EEEOT_ # -- Begin function _ZN8nlohmann10basic_jsonISt3mapSt6vectorNSt7__cxx1112basic_stringIcSt11char_traitsIcESaIcEEEblmdSaNS_14adl_serializerEEC2IRA9_KcA9_cTnNSt9enable_ifIXaaaaaantsr3std10is_base_ofISiT0_EE5valuentsr3std7is_sameISH_SA_EE5valuentsr6detail25is_basic_json_nested_typeISA_SH_EE5valuesr6detail11has_to_jsonISA_SH_EE5valueEiE4typeELi0EEEOT_
	.p2align	4
	.type	_ZN8nlohmann10basic_jsonISt3mapSt6vectorNSt7__cxx1112basic_stringIcSt11char_traitsIcESaIcEEEblmdSaNS_14adl_serializerEEC2IRA9_KcA9_cTnNSt9enable_ifIXaaaaaantsr3std10is_base_ofISiT0_EE5valuentsr3std7is_sameISH_SA_EE5valuentsr6detail25is_basic_json_nested_typeISA_SH_EE5valuesr6detail11has_to_jsonISA_SH_EE5valueEiE4typeELi0EEEOT_,@function
_ZN8nlohmann10basic_jsonISt3mapSt6vectorNSt7__cxx1112basic_stringIcSt11char_traitsIcESaIcEEEblmdSaNS_14adl_serializerEEC2IRA9_KcA9_cTnNSt9enable_ifIXaaaaaantsr3std10is_base_ofISiT0_EE5valuentsr3std7is_sameISH_SA_EE5valuentsr6detail25is_basic_json_nested_typeISA_SH_EE5valuesr6detail11has_to_jsonISA_SH_EE5valueEiE4typeELi0EEEOT_: # @_ZN8nlohmann10basic_jsonISt3mapSt6vectorNSt7__cxx1112basic_stringIcSt11char_traitsIcESaIcEEEblmdSaNS_14adl_serializerEEC2IRA9_KcA9_cTnNSt9enable_ifIXaaaaaantsr3std10is_base_ofISiT0_EE5valuentsr3std7is_sameISH_SA_EE5valuentsr6detail25is_basic_json_nested_typeISA_SH_EE5valuesr6detail11has_to_jsonISA_SH_EE5valueEiE4typeELi0EEEOT_
	.cfi_startproc
# %bb.0:
	pushq	%rbp
	.cfi_def_cfa_offset 16
	.cfi_offset %rbp, -16
	movq	%rsp, %rbp
	.cfi_def_cfa_register %rbp
	subq	$32, %rsp
	movq	%rdi, -8(%rbp)
	movq	%rsi, -16(%rbp)
	movq	-8(%rbp), %rdi
	movq	%rdi, -24(%rbp)                 # 8-byte Spill
	movb	$0, (%rdi)
	addq	$8, %rdi
	xorl	%esi, %esi
	movl	$8, %edx
	callq	memset@PLT
	movq	-24(%rbp), %rdi                 # 8-byte Reload
	movq	-16(%rbp), %rsi
	callq	_ZN8nlohmann14adl_serializerIA9_cvE7to_jsonINS_10basic_jsonISt3mapSt6vectorNSt7__cxx1112basic_stringIcSt11char_traitsIcESaIcEEEblmdSaS0_EERA9_KcEEvRT_OT0_
	movq	-24(%rbp), %rdi                 # 8-byte Reload
	callq	_ZNK8nlohmann10basic_jsonISt3mapSt6vectorNSt7__cxx1112basic_stringIcSt11char_traitsIcESaIcEEEblmdSaNS_14adl_serializerEE16assert_invariantEv
	addq	$32, %rsp
	popq	%rbp
	.cfi_def_cfa %rsp, 8
	retq
.Lfunc_end25:
	.size	_ZN8nlohmann10basic_jsonISt3mapSt6vectorNSt7__cxx1112basic_stringIcSt11char_traitsIcESaIcEEEblmdSaNS_14adl_serializerEEC2IRA9_KcA9_cTnNSt9enable_ifIXaaaaaantsr3std10is_base_ofISiT0_EE5valuentsr3std7is_sameISH_SA_EE5valuentsr6detail25is_basic_json_nested_typeISA_SH_EE5valuesr6detail11has_to_jsonISA_SH_EE5valueEiE4typeELi0EEEOT_, .Lfunc_end25-_ZN8nlohmann10basic_jsonISt3mapSt6vectorNSt7__cxx1112basic_stringIcSt11char_traitsIcESaIcEEEblmdSaNS_14adl_serializerEEC2IRA9_KcA9_cTnNSt9enable_ifIXaaaaaantsr3std10is_base_ofISiT0_EE5valuentsr3std7is_sameISH_SA_EE5valuentsr6detail25is_basic_json_nested_typeISA_SH_EE5valuesr6detail11has_to_jsonISA_SH_EE5valueEiE4typeELi0EEEOT_
	.cfi_endproc
                                        # -- End function
	.section	.text._Z6encodeB5cxx11RKN5clang13SourceManagerERKNS_14SourceLocationE,"axG",@progbits,_Z6encodeB5cxx11RKN5clang13SourceManagerERKNS_14SourceLocationE,comdat
	.weak	_Z6encodeB5cxx11RKN5clang13SourceManagerERKNS_14SourceLocationE # -- Begin function _Z6encodeB5cxx11RKN5clang13SourceManagerERKNS_14SourceLocationE
	.p2align	4
	.type	_Z6encodeB5cxx11RKN5clang13SourceManagerERKNS_14SourceLocationE,@function
_Z6encodeB5cxx11RKN5clang13SourceManagerERKNS_14SourceLocationE: # @_Z6encodeB5cxx11RKN5clang13SourceManagerERKNS_14SourceLocationE
.Lfunc_begin4:
	.cfi_startproc
	.cfi_personality 155, DW.ref.__gxx_personality_v0
	.cfi_lsda 27, .Lexception4
# %bb.0:
	pushq	%rbp
	.cfi_def_cfa_offset 16
	.cfi_offset %rbp, -16
	movq	%rsp, %rbp
	.cfi_def_cfa_register %rbp
	subq	$1088, %rsp                     # imm = 0x440
	movq	%rdi, -816(%rbp)                # 8-byte Spill
	movq	%rdi, %rax
	movq	%rax, -808(%rbp)                # 8-byte Spill
	movq	%fs:40, %rax
	movq	%rax, -8(%rbp)
	movq	%rdi, -672(%rbp)
	movq	%rsi, -680(%rbp)
	movq	%rdx, -688(%rbp)
	movq	-680(%rbp), %rsi
	movq	-688(%rbp), %rax
	movl	(%rax), %eax
	movl	%eax, -620(%rbp)
	movl	-620(%rbp), %edx
	leaq	-616(%rbp), %rdi
	movq	%rdi, -800(%rbp)                # 8-byte Spill
	movl	$1, %ecx
	callq	_ZNK5clang13SourceManager14getPresumedLocENS_14SourceLocationEb@PLT
	leaq	-400(%rbp), %rdi
	callq	_ZNSt7__cxx1118basic_stringstreamIcSt11char_traitsIcESaIcEEC1Ev@PLT
	movq	-800(%rbp), %rdi                # 8-byte Reload
	leaq	-384(%rbp), %rax
	movq	%rax, -792(%rbp)                # 8-byte Spill
.Ltmp114:
	callq	_ZNK5clang11PresumedLoc7getLineEv
.Ltmp115:
	movl	%eax, -784(%rbp)                # 4-byte Spill
	jmp	.LBB26_1
.LBB26_1:
.Ltmp116:
	movl	-784(%rbp), %esi                # 4-byte Reload
	movq	-792(%rbp), %rdi                # 8-byte Reload
	callq	_ZNSolsEj@PLT
.Ltmp117:
	movq	%rax, -824(%rbp)                # 8-byte Spill
	jmp	.LBB26_2
.LBB26_2:
.Ltmp118:
	movq	-824(%rbp), %rdi                # 8-byte Reload
	leaq	.L.str.12(%rip), %rsi
	callq	_ZStlsISt11char_traitsIcEERSt13basic_ostreamIcT_ES5_PKc@PLT
.Ltmp119:
	movq	%rax, -832(%rbp)                # 8-byte Spill
	jmp	.LBB26_3
.LBB26_3:
.Ltmp120:
	leaq	-616(%rbp), %rdi
	callq	_ZNK5clang11PresumedLoc9getColumnEv
.Ltmp121:
	movl	%eax, -836(%rbp)                # 4-byte Spill
	jmp	.LBB26_4
.LBB26_4:
.Ltmp122:
	movl	-836(%rbp), %esi                # 4-byte Reload
	movq	-832(%rbp), %rdi                # 8-byte Reload
	callq	_ZNSolsEj@PLT
.Ltmp123:
	jmp	.LBB26_5
.LBB26_5:
.Ltmp124:
	leaq	-616(%rbp), %rdi
	callq	_ZNK5clang11PresumedLoc11getFilenameEv
.Ltmp125:
	movq	%rax, -848(%rbp)                # 8-byte Spill
	jmp	.LBB26_6
.LBB26_6:
	movq	-848(%rbp), %rsi                # 8-byte Reload
	leaq	-621(%rbp), %rdx
	movq	%rdx, -664(%rbp)
	movq	-664(%rbp), %rax
	movq	%rax, -640(%rbp)
.Ltmp127:
	leaq	-432(%rbp), %rdi
	callq	_ZNSt7__cxx1112basic_stringIcSt11char_traitsIcESaIcEEC2IS3_EEPKcRKS3_
.Ltmp128:
	jmp	.LBB26_7
.LBB26_7:
	leaq	-621(%rbp), %rax
	movq	%rax, -656(%rbp)
	movq	-656(%rbp), %rdi
	callq	_ZNSt15__new_allocatorIcED2Ev
.Ltmp130:
	leaq	-464(%rbp), %rdi
	leaq	-432(%rbp), %rsi
	callq	_Z14quoteCppStringRNSt7__cxx1112basic_stringIcSt11char_traitsIcESaIcEEE
.Ltmp131:
	jmp	.LBB26_8
.LBB26_8:
	leaq	-432(%rbp), %rdi
	leaq	-464(%rbp), %rsi
	movq	%rsi, -856(%rbp)                # 8-byte Spill
	callq	_ZNSt7__cxx1112basic_stringIcSt11char_traitsIcESaIcEEaSEOS4_
	movq	-856(%rbp), %rdi                # 8-byte Reload
	callq	_ZNSt7__cxx1112basic_stringIcSt11char_traitsIcESaIcEED2Ev
	movb	$1, -778(%rbp)
	leaq	-496(%rbp), %rax
	movq	%rax, -728(%rbp)
	leaq	-528(%rbp), %rdi
	movq	%rdi, -752(%rbp)
.Ltmp133:
	leaq	.L.str.33(%rip), %rsi
	callq	_ZN8nlohmann10basic_jsonISt3mapSt6vectorNSt7__cxx1112basic_stringIcSt11char_traitsIcESaIcEEEblmdSaNS_14adl_serializerEEC2IRA5_KcA5_cTnNSt9enable_ifIXaaaaaantsr3std10is_base_ofISiT0_EE5valuentsr3std7is_sameISH_SA_EE5valuentsr6detail25is_basic_json_nested_typeISA_SH_EE5valuesr6detail11has_to_jsonISA_SH_EE5valueEiE4typeELi0EEEOT_
.Ltmp134:
	jmp	.LBB26_9
.LBB26_9:
	leaq	-512(%rbp), %rax
	movq	%rax, -864(%rbp)                # 8-byte Spill
	movq	%rax, -752(%rbp)
	leaq	-432(%rbp), %rdi
	callq	_ZNKSt7__cxx1112basic_stringIcSt11char_traitsIcESaIcEE5c_strEv
	movq	-864(%rbp), %rdi                # 8-byte Reload
	movq	%rax, -632(%rbp)
.Ltmp135:
	leaq	-632(%rbp), %rsi
	callq	_ZN8nlohmann10basic_jsonISt3mapSt6vectorNSt7__cxx1112basic_stringIcSt11char_traitsIcESaIcEEEblmdSaNS_14adl_serializerEEC2IPKcSD_TnNSt9enable_ifIXaaaaaantsr3std10is_base_ofISiT0_EE5valuentsr3std7is_sameISF_SA_EE5valuentsr6detail25is_basic_json_nested_typeISA_SF_EE5valuesr6detail11has_to_jsonISA_SF_EE5valueEiE4typeELi0EEEOT_
.Ltmp136:
	jmp	.LBB26_10
.LBB26_10:
	leaq	-528(%rbp), %rax
	movq	%rax, -744(%rbp)
	movq	$2, -736(%rbp)
	movq	-744(%rbp), %rsi
	movq	-736(%rbp), %rdx
.Ltmp138:
	leaq	-496(%rbp), %rdi
	movl	$1, %ecx
	movl	$2, %r8d
	callq	_ZN8nlohmann10basic_jsonISt3mapSt6vectorNSt7__cxx1112basic_stringIcSt11char_traitsIcESaIcEEEblmdSaNS_14adl_serializerEEC2ESt16initializer_listISA_EbNS_6detail7value_tE
.Ltmp139:
	jmp	.LBB26_11
.LBB26_11:
	leaq	-480(%rbp), %rax
	movq	%rax, -872(%rbp)                # 8-byte Spill
	movq	%rax, -728(%rbp)
	movb	$1, -777(%rbp)
	leaq	-560(%rbp), %rdi
	movq	%rdi, -776(%rbp)
.Ltmp141:
	leaq	.L.str.34(%rip), %rsi
	callq	_ZN8nlohmann10basic_jsonISt3mapSt6vectorNSt7__cxx1112basic_stringIcSt11char_traitsIcESaIcEEEblmdSaNS_14adl_serializerEEC2IRA4_KcA4_cTnNSt9enable_ifIXaaaaaantsr3std10is_base_ofISiT0_EE5valuentsr3std7is_sameISH_SA_EE5valuentsr6detail25is_basic_json_nested_typeISA_SH_EE5valuesr6detail11has_to_jsonISA_SH_EE5valueEiE4typeELi0EEEOT_
.Ltmp142:
	jmp	.LBB26_12
.LBB26_12:
	leaq	-544(%rbp), %rax
	movq	%rax, -880(%rbp)                # 8-byte Spill
	movq	%rax, -776(%rbp)
.Ltmp143:
	leaq	-592(%rbp), %rdi
	leaq	-400(%rbp), %rsi
	callq	_ZNKSt7__cxx1118basic_stringstreamIcSt11char_traitsIcESaIcEE3strEv@PLT
.Ltmp144:
	jmp	.LBB26_13
.LBB26_13:
.Ltmp146:
	movq	-880(%rbp), %rdi                # 8-byte Reload
	leaq	-592(%rbp), %rsi
	callq	_ZN8nlohmann10basic_jsonISt3mapSt6vectorNSt7__cxx1112basic_stringIcSt11char_traitsIcESaIcEEEblmdSaNS_14adl_serializerEEC2IS8_S8_TnNSt9enable_ifIXaaaaaantsr3std10is_base_ofISiT0_EE5valuentsr3std7is_sameISD_SA_EE5valuentsr6detail25is_basic_json_nested_typeISA_SD_EE5valuesr6detail11has_to_jsonISA_SD_EE5valueEiE4typeELi0EEEOT_
.Ltmp147:
	jmp	.LBB26_14
.LBB26_14:
	movq	-872(%rbp), %rdi                # 8-byte Reload
	movb	$0, -777(%rbp)
	leaq	-560(%rbp), %rax
	movq	%rax, -768(%rbp)
	movq	$2, -760(%rbp)
	movq	-768(%rbp), %rsi
	movq	-760(%rbp), %rdx
.Ltmp149:
	movl	$1, %ecx
	movl	$2, %r8d
	callq	_ZN8nlohmann10basic_jsonISt3mapSt6vectorNSt7__cxx1112basic_stringIcSt11char_traitsIcESaIcEEEblmdSaNS_14adl_serializerEEC2ESt16initializer_listISA_EbNS_6detail7value_tE
.Ltmp150:
	jmp	.LBB26_15
.LBB26_15:
	movq	-816(%rbp), %rdi                # 8-byte Reload
	movb	$0, -778(%rbp)
	leaq	-496(%rbp), %rax
	movq	%rax, -720(%rbp)
	movq	$2, -712(%rbp)
	movq	-720(%rbp), %rsi
	movq	-712(%rbp), %rdx
.Ltmp152:
	movl	$1, %ecx
	movl	$2, %r8d
	callq	_ZN8nlohmann10basic_jsonISt3mapSt6vectorNSt7__cxx1112basic_stringIcSt11char_traitsIcESaIcEEEblmdSaNS_14adl_serializerEEC2ESt16initializer_listISA_EbNS_6detail7value_tE
.Ltmp153:
	jmp	.LBB26_16
.LBB26_16:
	leaq	-496(%rbp), %rax
	movq	%rax, -896(%rbp)                # 8-byte Spill
	addq	$32, %rax
	movq	%rax, -888(%rbp)                # 8-byte Spill
.LBB26_17:                              # =>This Inner Loop Header: Depth=1
	movq	-888(%rbp), %rdi                # 8-byte Reload
	addq	$-16, %rdi
	movq	%rdi, -904(%rbp)                # 8-byte Spill
	callq	_ZN8nlohmann10basic_jsonISt3mapSt6vectorNSt7__cxx1112basic_stringIcSt11char_traitsIcESaIcEEEblmdSaNS_14adl_serializerEED2Ev
	movq	-896(%rbp), %rcx                # 8-byte Reload
	movq	-904(%rbp), %rax                # 8-byte Reload
	cmpq	%rcx, %rax
	movq	%rax, -888(%rbp)                # 8-byte Spill
	jne	.LBB26_17
# %bb.18:
	leaq	-560(%rbp), %rax
	movq	%rax, -920(%rbp)                # 8-byte Spill
	addq	$32, %rax
	movq	%rax, -912(%rbp)                # 8-byte Spill
.LBB26_19:                              # =>This Inner Loop Header: Depth=1
	movq	-912(%rbp), %rdi                # 8-byte Reload
	addq	$-16, %rdi
	movq	%rdi, -928(%rbp)                # 8-byte Spill
	callq	_ZN8nlohmann10basic_jsonISt3mapSt6vectorNSt7__cxx1112basic_stringIcSt11char_traitsIcESaIcEEEblmdSaNS_14adl_serializerEED2Ev
	movq	-920(%rbp), %rcx                # 8-byte Reload
	movq	-928(%rbp), %rax                # 8-byte Reload
	cmpq	%rcx, %rax
	movq	%rax, -912(%rbp)                # 8-byte Spill
	jne	.LBB26_19
# %bb.20:
	leaq	-592(%rbp), %rdi
	callq	_ZNSt7__cxx1112basic_stringIcSt11char_traitsIcESaIcEED2Ev
	leaq	-528(%rbp), %rax
	movq	%rax, -944(%rbp)                # 8-byte Spill
	addq	$32, %rax
	movq	%rax, -936(%rbp)                # 8-byte Spill
.LBB26_21:                              # =>This Inner Loop Header: Depth=1
	movq	-936(%rbp), %rdi                # 8-byte Reload
	addq	$-16, %rdi
	movq	%rdi, -952(%rbp)                # 8-byte Spill
	callq	_ZN8nlohmann10basic_jsonISt3mapSt6vectorNSt7__cxx1112basic_stringIcSt11char_traitsIcESaIcEEEblmdSaNS_14adl_serializerEED2Ev
	movq	-944(%rbp), %rcx                # 8-byte Reload
	movq	-952(%rbp), %rax                # 8-byte Reload
	cmpq	%rcx, %rax
	movq	%rax, -936(%rbp)                # 8-byte Spill
	jne	.LBB26_21
# %bb.22:
	leaq	-432(%rbp), %rdi
	callq	_ZNSt7__cxx1112basic_stringIcSt11char_traitsIcESaIcEED2Ev
	leaq	-400(%rbp), %rdi
	callq	_ZNSt7__cxx1118basic_stringstreamIcSt11char_traitsIcESaIcEED1Ev@PLT
	movq	%fs:40, %rax
	movq	-8(%rbp), %rcx
	cmpq	%rcx, %rax
	jne	.LBB26_58
# %bb.23:
	movq	-808(%rbp), %rax                # 8-byte Reload
	addq	$1088, %rsp                     # imm = 0x440
	popq	%rbp
	.cfi_def_cfa %rsp, 8
	retq
.LBB26_24:
	.cfi_def_cfa %rbp, 16
.Ltmp126:
	movq	%rax, %rcx
	movl	%edx, %eax
	movq	%rcx, -696(%rbp)
	movl	%eax, -700(%rbp)
	jmp	.LBB26_55
.LBB26_25:
.Ltmp129:
	movq	%rax, %rcx
	movl	%edx, %eax
	movq	%rcx, -696(%rbp)
	movl	%eax, -700(%rbp)
	leaq	-621(%rbp), %rax
	movq	%rax, -648(%rbp)
	movq	-648(%rbp), %rdi
	callq	_ZNSt15__new_allocatorIcED2Ev
	jmp	.LBB26_55
.LBB26_26:
.Ltmp132:
	movq	%rax, %rcx
	movl	%edx, %eax
	movq	%rcx, -696(%rbp)
	movl	%eax, -700(%rbp)
	jmp	.LBB26_54
.LBB26_27:
.Ltmp137:
	movq	%rax, %rcx
	movl	%edx, %eax
	movq	%rcx, -696(%rbp)
	movl	%eax, -700(%rbp)
	movq	-752(%rbp), %rax
	leaq	-528(%rbp), %rcx
	cmpq	%rax, %rcx
	movq	%rax, -960(%rbp)                # 8-byte Spill
	je	.LBB26_29
.LBB26_28:                              # =>This Inner Loop Header: Depth=1
	movq	-960(%rbp), %rdi                # 8-byte Reload
	addq	$-16, %rdi
	movq	%rdi, -968(%rbp)                # 8-byte Spill
	callq	_ZN8nlohmann10basic_jsonISt3mapSt6vectorNSt7__cxx1112basic_stringIcSt11char_traitsIcESaIcEEEblmdSaNS_14adl_serializerEED2Ev
	movq	-968(%rbp), %rax                # 8-byte Reload
	leaq	-528(%rbp), %rcx
	cmpq	%rcx, %rax
	movq	%rax, -960(%rbp)                # 8-byte Spill
	jne	.LBB26_28
.LBB26_29:
	jmp	.LBB26_49
.LBB26_30:
.Ltmp140:
	movq	%rax, %rcx
	movl	%edx, %eax
	movq	%rcx, -696(%rbp)
	movl	%eax, -700(%rbp)
	jmp	.LBB26_46
.LBB26_31:
.Ltmp145:
	movq	%rax, %rcx
	movl	%edx, %eax
	movq	%rcx, -696(%rbp)
	movl	%eax, -700(%rbp)
	jmp	.LBB26_41
.LBB26_32:
.Ltmp148:
	movq	%rax, %rcx
	movl	%edx, %eax
	movq	%rcx, -696(%rbp)
	movl	%eax, -700(%rbp)
	jmp	.LBB26_40
.LBB26_33:
.Ltmp151:
	movq	%rax, %rcx
	movl	%edx, %eax
	movq	%rcx, -696(%rbp)
	movl	%eax, -700(%rbp)
	jmp	.LBB26_37
.LBB26_34:
.Ltmp154:
	movq	%rax, %rcx
	movl	%edx, %eax
	movq	%rcx, -696(%rbp)
	movl	%eax, -700(%rbp)
	leaq	-496(%rbp), %rax
	movq	%rax, -984(%rbp)                # 8-byte Spill
	addq	$32, %rax
	movq	%rax, -976(%rbp)                # 8-byte Spill
.LBB26_35:                              # =>This Inner Loop Header: Depth=1
	movq	-976(%rbp), %rdi                # 8-byte Reload
	addq	$-16, %rdi
	movq	%rdi, -992(%rbp)                # 8-byte Spill
	callq	_ZN8nlohmann10basic_jsonISt3mapSt6vectorNSt7__cxx1112basic_stringIcSt11char_traitsIcESaIcEEEblmdSaNS_14adl_serializerEED2Ev
	movq	-984(%rbp), %rcx                # 8-byte Reload
	movq	-992(%rbp), %rax                # 8-byte Reload
	cmpq	%rcx, %rax
	movq	%rax, -976(%rbp)                # 8-byte Spill
	jne	.LBB26_35
# %bb.36:
	jmp	.LBB26_37
.LBB26_37:
	leaq	-560(%rbp), %rax
	movq	%rax, -1008(%rbp)               # 8-byte Spill
	addq	$32, %rax
	movq	%rax, -1000(%rbp)               # 8-byte Spill
.LBB26_38:                              # =>This Inner Loop Header: Depth=1
	movq	-1000(%rbp), %rdi               # 8-byte Reload
	addq	$-16, %rdi
	movq	%rdi, -1016(%rbp)               # 8-byte Spill
	callq	_ZN8nlohmann10basic_jsonISt3mapSt6vectorNSt7__cxx1112basic_stringIcSt11char_traitsIcESaIcEEEblmdSaNS_14adl_serializerEED2Ev
	movq	-1008(%rbp), %rcx               # 8-byte Reload
	movq	-1016(%rbp), %rax               # 8-byte Reload
	cmpq	%rcx, %rax
	movq	%rax, -1000(%rbp)               # 8-byte Spill
	jne	.LBB26_38
# %bb.39:
	jmp	.LBB26_40
.LBB26_40:
	leaq	-592(%rbp), %rdi
	callq	_ZNSt7__cxx1112basic_stringIcSt11char_traitsIcESaIcEED2Ev
.LBB26_41:
	testb	$1, -777(%rbp)
	jne	.LBB26_42
	jmp	.LBB26_45
.LBB26_42:
	movq	-776(%rbp), %rax
	leaq	-560(%rbp), %rcx
	cmpq	%rax, %rcx
	movq	%rax, -1024(%rbp)               # 8-byte Spill
	je	.LBB26_44
.LBB26_43:                              # =>This Inner Loop Header: Depth=1
	movq	-1024(%rbp), %rdi               # 8-byte Reload
	addq	$-16, %rdi
	movq	%rdi, -1032(%rbp)               # 8-byte Spill
	callq	_ZN8nlohmann10basic_jsonISt3mapSt6vectorNSt7__cxx1112basic_stringIcSt11char_traitsIcESaIcEEEblmdSaNS_14adl_serializerEED2Ev
	movq	-1032(%rbp), %rax               # 8-byte Reload
	leaq	-560(%rbp), %rcx
	cmpq	%rcx, %rax
	movq	%rax, -1024(%rbp)               # 8-byte Spill
	jne	.LBB26_43
.LBB26_44:
	jmp	.LBB26_45
.LBB26_45:
	jmp	.LBB26_46
.LBB26_46:
	leaq	-528(%rbp), %rax
	movq	%rax, -1048(%rbp)               # 8-byte Spill
	addq	$32, %rax
	movq	%rax, -1040(%rbp)               # 8-byte Spill
.LBB26_47:                              # =>This Inner Loop Header: Depth=1
	movq	-1040(%rbp), %rdi               # 8-byte Reload
	addq	$-16, %rdi
	movq	%rdi, -1056(%rbp)               # 8-byte Spill
	callq	_ZN8nlohmann10basic_jsonISt3mapSt6vectorNSt7__cxx1112basic_stringIcSt11char_traitsIcESaIcEEEblmdSaNS_14adl_serializerEED2Ev
	movq	-1048(%rbp), %rcx               # 8-byte Reload
	movq	-1056(%rbp), %rax               # 8-byte Reload
	cmpq	%rcx, %rax
	movq	%rax, -1040(%rbp)               # 8-byte Spill
	jne	.LBB26_47
# %bb.48:
	jmp	.LBB26_49
.LBB26_49:
	testb	$1, -778(%rbp)
	jne	.LBB26_50
	jmp	.LBB26_53
.LBB26_50:
	movq	-728(%rbp), %rax
	leaq	-496(%rbp), %rcx
	cmpq	%rax, %rcx
	movq	%rax, -1064(%rbp)               # 8-byte Spill
	je	.LBB26_52
.LBB26_51:                              # =>This Inner Loop Header: Depth=1
	movq	-1064(%rbp), %rdi               # 8-byte Reload
	addq	$-16, %rdi
	movq	%rdi, -1072(%rbp)               # 8-byte Spill
	callq	_ZN8nlohmann10basic_jsonISt3mapSt6vectorNSt7__cxx1112basic_stringIcSt11char_traitsIcESaIcEEEblmdSaNS_14adl_serializerEED2Ev
	movq	-1072(%rbp), %rax               # 8-byte Reload
	leaq	-496(%rbp), %rcx
	cmpq	%rcx, %rax
	movq	%rax, -1064(%rbp)               # 8-byte Spill
	jne	.LBB26_51
.LBB26_52:
	jmp	.LBB26_53
.LBB26_53:
	jmp	.LBB26_54
.LBB26_54:
	leaq	-432(%rbp), %rdi
	callq	_ZNSt7__cxx1112basic_stringIcSt11char_traitsIcESaIcEED2Ev
.LBB26_55:
	leaq	-400(%rbp), %rdi
	callq	_ZNSt7__cxx1118basic_stringstreamIcSt11char_traitsIcESaIcEED1Ev@PLT
# %bb.56:
	movq	-696(%rbp), %rax
	movq	%rax, -1080(%rbp)               # 8-byte Spill
	movq	%fs:40, %rax
	movq	-8(%rbp), %rcx
	cmpq	%rcx, %rax
	jne	.LBB26_58
# %bb.57:
	movq	-1080(%rbp), %rdi               # 8-byte Reload
	callq	_Unwind_Resume@PLT
.LBB26_58:
	callq	__stack_chk_fail@PLT
.Lfunc_end26:
	.size	_Z6encodeB5cxx11RKN5clang13SourceManagerERKNS_14SourceLocationE, .Lfunc_end26-_Z6encodeB5cxx11RKN5clang13SourceManagerERKNS_14SourceLocationE
	.cfi_endproc
	.section	.gcc_except_table._Z6encodeB5cxx11RKN5clang13SourceManagerERKNS_14SourceLocationE,"aG",@progbits,_Z6encodeB5cxx11RKN5clang13SourceManagerERKNS_14SourceLocationE,comdat
	.p2align	2, 0x0
GCC_except_table26:
.Lexception4:
	.byte	255                             # @LPStart Encoding = omit
	.byte	255                             # @TType Encoding = omit
	.byte	1                               # Call site Encoding = uleb128
	.uleb128 .Lcst_end4-.Lcst_begin4
.Lcst_begin4:
	.uleb128 .Lfunc_begin4-.Lfunc_begin4    # >> Call Site 1 <<
	.uleb128 .Ltmp114-.Lfunc_begin4         #   Call between .Lfunc_begin4 and .Ltmp114
	.byte	0                               #     has no landing pad
	.byte	0                               #   On action: cleanup
	.uleb128 .Ltmp114-.Lfunc_begin4         # >> Call Site 2 <<
	.uleb128 .Ltmp125-.Ltmp114              #   Call between .Ltmp114 and .Ltmp125
	.uleb128 .Ltmp126-.Lfunc_begin4         #     jumps to .Ltmp126
	.byte	0                               #   On action: cleanup
	.uleb128 .Ltmp127-.Lfunc_begin4         # >> Call Site 3 <<
	.uleb128 .Ltmp128-.Ltmp127              #   Call between .Ltmp127 and .Ltmp128
	.uleb128 .Ltmp129-.Lfunc_begin4         #     jumps to .Ltmp129
	.byte	0                               #   On action: cleanup
	.uleb128 .Ltmp130-.Lfunc_begin4         # >> Call Site 4 <<
	.uleb128 .Ltmp131-.Ltmp130              #   Call between .Ltmp130 and .Ltmp131
	.uleb128 .Ltmp132-.Lfunc_begin4         #     jumps to .Ltmp132
	.byte	0                               #   On action: cleanup
	.uleb128 .Ltmp133-.Lfunc_begin4         # >> Call Site 5 <<
	.uleb128 .Ltmp136-.Ltmp133              #   Call between .Ltmp133 and .Ltmp136
	.uleb128 .Ltmp137-.Lfunc_begin4         #     jumps to .Ltmp137
	.byte	0                               #   On action: cleanup
	.uleb128 .Ltmp138-.Lfunc_begin4         # >> Call Site 6 <<
	.uleb128 .Ltmp139-.Ltmp138              #   Call between .Ltmp138 and .Ltmp139
	.uleb128 .Ltmp140-.Lfunc_begin4         #     jumps to .Ltmp140
	.byte	0                               #   On action: cleanup
	.uleb128 .Ltmp141-.Lfunc_begin4         # >> Call Site 7 <<
	.uleb128 .Ltmp144-.Ltmp141              #   Call between .Ltmp141 and .Ltmp144
	.uleb128 .Ltmp145-.Lfunc_begin4         #     jumps to .Ltmp145
	.byte	0                               #   On action: cleanup
	.uleb128 .Ltmp146-.Lfunc_begin4         # >> Call Site 8 <<
	.uleb128 .Ltmp147-.Ltmp146              #   Call between .Ltmp146 and .Ltmp147
	.uleb128 .Ltmp148-.Lfunc_begin4         #     jumps to .Ltmp148
	.byte	0                               #   On action: cleanup
	.uleb128 .Ltmp149-.Lfunc_begin4         # >> Call Site 9 <<
	.uleb128 .Ltmp150-.Ltmp149              #   Call between .Ltmp149 and .Ltmp150
	.uleb128 .Ltmp151-.Lfunc_begin4         #     jumps to .Ltmp151
	.byte	0                               #   On action: cleanup
	.uleb128 .Ltmp152-.Lfunc_begin4         # >> Call Site 10 <<
	.uleb128 .Ltmp153-.Ltmp152              #   Call between .Ltmp152 and .Ltmp153
	.uleb128 .Ltmp154-.Lfunc_begin4         #     jumps to .Ltmp154
	.byte	0                               #   On action: cleanup
	.uleb128 .Ltmp153-.Lfunc_begin4         # >> Call Site 11 <<
	.uleb128 .Lfunc_end26-.Ltmp153          #   Call between .Ltmp153 and .Lfunc_end26
	.byte	0                               #     has no landing pad
	.byte	0                               #   On action: cleanup
.Lcst_end4:
	.p2align	2, 0x0
                                        # -- End function
	.section	.text._ZN8nlohmann10basic_jsonISt3mapSt6vectorNSt7__cxx1112basic_stringIcSt11char_traitsIcESaIcEEEblmdSaNS_14adl_serializerEED2Ev,"axG",@progbits,_ZN8nlohmann10basic_jsonISt3mapSt6vectorNSt7__cxx1112basic_stringIcSt11char_traitsIcESaIcEEEblmdSaNS_14adl_serializerEED2Ev,comdat
	.weak	_ZN8nlohmann10basic_jsonISt3mapSt6vectorNSt7__cxx1112basic_stringIcSt11char_traitsIcESaIcEEEblmdSaNS_14adl_serializerEED2Ev # -- Begin function _ZN8nlohmann10basic_jsonISt3mapSt6vectorNSt7__cxx1112basic_stringIcSt11char_traitsIcESaIcEEEblmdSaNS_14adl_serializerEED2Ev
	.p2align	4
	.type	_ZN8nlohmann10basic_jsonISt3mapSt6vectorNSt7__cxx1112basic_stringIcSt11char_traitsIcESaIcEEEblmdSaNS_14adl_serializerEED2Ev,@function
_ZN8nlohmann10basic_jsonISt3mapSt6vectorNSt7__cxx1112basic_stringIcSt11char_traitsIcESaIcEEEblmdSaNS_14adl_serializerEED2Ev: # @_ZN8nlohmann10basic_jsonISt3mapSt6vectorNSt7__cxx1112basic_stringIcSt11char_traitsIcESaIcEEEblmdSaNS_14adl_serializerEED2Ev
.Lfunc_begin5:
	.cfi_startproc
	.cfi_personality 155, DW.ref.__gxx_personality_v0
	.cfi_lsda 27, .Lexception5
# %bb.0:
	pushq	%rbp
	.cfi_def_cfa_offset 16
	.cfi_offset %rbp, -16
	movq	%rsp, %rbp
	.cfi_def_cfa_register %rbp
	subq	$176, %rsp
	movq	%fs:40, %rax
	movq	%rax, -8(%rbp)
	movq	%rdi, -144(%rbp)
	movq	-144(%rbp), %rdi
	movq	%rdi, -160(%rbp)                # 8-byte Spill
	callq	_ZNK8nlohmann10basic_jsonISt3mapSt6vectorNSt7__cxx1112basic_stringIcSt11char_traitsIcESaIcEEEblmdSaNS_14adl_serializerEE16assert_invariantEv
	movq	-160(%rbp), %rax                # 8-byte Reload
	movb	(%rax), %al
	movb	%al, -145(%rbp)                 # 1-byte Spill
	subb	$1, %al
	je	.LBB27_1
	jmp	.LBB27_11
.LBB27_11:
	movb	-145(%rbp), %al                 # 1-byte Reload
	subb	$2, %al
	je	.LBB27_3
	jmp	.LBB27_12
.LBB27_12:
	movb	-145(%rbp), %al                 # 1-byte Reload
	subb	$3, %al
	je	.LBB27_5
	jmp	.LBB27_6
.LBB27_1:
	movq	-160(%rbp), %rax                # 8-byte Reload
	leaq	-9(%rbp), %rcx
	movq	%rcx, -168(%rbp)                # 8-byte Spill
	movq	%rcx, -112(%rbp)
	movq	-112(%rbp), %rdx
	movq	%rdx, -32(%rbp)
	movq	8(%rax), %rax
	movq	%rcx, -96(%rbp)
	movq	%rax, -104(%rbp)
	movq	-104(%rbp), %rdi
	callq	_ZNSt3mapINSt7__cxx1112basic_stringIcSt11char_traitsIcESaIcEEEN8nlohmann10basic_jsonIS_St6vectorS5_blmdSaNS6_14adl_serializerEEESt4lessIS5_ESaISt4pairIKS5_SA_EEED2Ev
	movq	-160(%rbp), %rax                # 8-byte Reload
	movq	-168(%rbp), %rdi                # 8-byte Reload
	movq	8(%rax), %rsi
.Ltmp157:
	movl	$1, %edx
	callq	_ZNSt15__new_allocatorISt3mapINSt7__cxx1112basic_stringIcSt11char_traitsIcESaIcEEEN8nlohmann10basic_jsonIS0_St6vectorS6_blmdSaNS7_14adl_serializerEEESt4lessIS6_ESaISt4pairIKS6_SB_EEEE10deallocateEPSI_m
.Ltmp158:
	jmp	.LBB27_2
.LBB27_2:
	leaq	-9(%rbp), %rax
	movq	%rax, -88(%rbp)
	movq	-88(%rbp), %rdi
	callq	_ZNSt15__new_allocatorISt3mapINSt7__cxx1112basic_stringIcSt11char_traitsIcESaIcEEEN8nlohmann10basic_jsonIS0_St6vectorS6_blmdSaNS7_14adl_serializerEEESt4lessIS6_ESaISt4pairIKS6_SB_EEEED2Ev
	jmp	.LBB27_7
.LBB27_3:
	movq	-160(%rbp), %rax                # 8-byte Reload
	leaq	-10(%rbp), %rcx
	movq	%rcx, -176(%rbp)                # 8-byte Spill
	movq	%rcx, -80(%rbp)
	movq	-80(%rbp), %rdx
	movq	%rdx, -24(%rbp)
	movq	8(%rax), %rax
	movq	%rcx, -64(%rbp)
	movq	%rax, -72(%rbp)
	movq	-72(%rbp), %rdi
	callq	_ZNSt6vectorIN8nlohmann10basic_jsonISt3mapS_NSt7__cxx1112basic_stringIcSt11char_traitsIcESaIcEEEblmdSaNS0_14adl_serializerEEESaISA_EED2Ev
	movq	-160(%rbp), %rax                # 8-byte Reload
	movq	-176(%rbp), %rdi                # 8-byte Reload
	movq	8(%rax), %rsi
.Ltmp155:
	movl	$1, %edx
	callq	_ZNSt15__new_allocatorISt6vectorIN8nlohmann10basic_jsonISt3mapS0_NSt7__cxx1112basic_stringIcSt11char_traitsIcESaIcEEEblmdSaNS1_14adl_serializerEEESaISB_EEE10deallocateEPSD_m
.Ltmp156:
	jmp	.LBB27_4
.LBB27_4:
	leaq	-10(%rbp), %rax
	movq	%rax, -56(%rbp)
	movq	-56(%rbp), %rdi
	callq	_ZNSt15__new_allocatorISt6vectorIN8nlohmann10basic_jsonISt3mapS0_NSt7__cxx1112basic_stringIcSt11char_traitsIcESaIcEEEblmdSaNS1_14adl_serializerEEESaISB_EEED2Ev
	jmp	.LBB27_7
.LBB27_5:
	movq	-160(%rbp), %rax                # 8-byte Reload
	leaq	-11(%rbp), %rcx
	movq	%rcx, -136(%rbp)
	movq	-136(%rbp), %rcx
	movq	%rcx, -120(%rbp)
	movq	8(%rax), %rax
	leaq	-11(%rbp), %rcx
	movq	%rcx, -40(%rbp)
	movq	%rax, -48(%rbp)
	movq	-48(%rbp), %rdi
	callq	_ZNSt7__cxx1112basic_stringIcSt11char_traitsIcESaIcEED2Ev
	movq	-160(%rbp), %rax                # 8-byte Reload
	movq	8(%rax), %rsi
	leaq	-11(%rbp), %rdi
	movl	$1, %edx
	callq	_ZNSt15__new_allocatorINSt7__cxx1112basic_stringIcSt11char_traitsIcESaIcEEEE10deallocateEPS5_m
	leaq	-11(%rbp), %rax
	movq	%rax, -128(%rbp)
	movq	-128(%rbp), %rdi
	callq	_ZNSt15__new_allocatorINSt7__cxx1112basic_stringIcSt11char_traitsIcESaIcEEEED2Ev
	jmp	.LBB27_7
.LBB27_6:
	jmp	.LBB27_7
.LBB27_7:
	movq	%fs:40, %rax
	movq	-8(%rbp), %rcx
	cmpq	%rcx, %rax
	jne	.LBB27_10
# %bb.8:
	addq	$176, %rsp
	popq	%rbp
	.cfi_def_cfa %rsp, 8
	retq
.LBB27_9:
	.cfi_def_cfa %rbp, 16
.Ltmp159:
	movq	%rax, %rdi
                                        # kill: def $eax killed $edx killed $rdx
	callq	__clang_call_terminate
.LBB27_10:
	callq	__stack_chk_fail@PLT
.Lfunc_end27:
	.size	_ZN8nlohmann10basic_jsonISt3mapSt6vectorNSt7__cxx1112basic_stringIcSt11char_traitsIcESaIcEEEblmdSaNS_14adl_serializerEED2Ev, .Lfunc_end27-_ZN8nlohmann10basic_jsonISt3mapSt6vectorNSt7__cxx1112basic_stringIcSt11char_traitsIcESaIcEEEblmdSaNS_14adl_serializerEED2Ev
	.cfi_endproc
	.section	.gcc_except_table._ZN8nlohmann10basic_jsonISt3mapSt6vectorNSt7__cxx1112basic_stringIcSt11char_traitsIcESaIcEEEblmdSaNS_14adl_serializerEED2Ev,"aG",@progbits,_ZN8nlohmann10basic_jsonISt3mapSt6vectorNSt7__cxx1112basic_stringIcSt11char_traitsIcESaIcEEEblmdSaNS_14adl_serializerEED2Ev,comdat
	.p2align	2, 0x0
GCC_except_table27:
.Lexception5:
	.byte	255                             # @LPStart Encoding = omit
	.byte	155                             # @TType Encoding = indirect pcrel sdata4
	.uleb128 .Lttbase2-.Lttbaseref2
.Lttbaseref2:
	.byte	1                               # Call site Encoding = uleb128
	.uleb128 .Lcst_end5-.Lcst_begin5
.Lcst_begin5:
	.uleb128 .Ltmp157-.Lfunc_begin5         # >> Call Site 1 <<
	.uleb128 .Ltmp156-.Ltmp157              #   Call between .Ltmp157 and .Ltmp156
	.uleb128 .Ltmp159-.Lfunc_begin5         #     jumps to .Ltmp159
	.byte	1                               #   On action: 1
	.uleb128 .Ltmp156-.Lfunc_begin5         # >> Call Site 2 <<
	.uleb128 .Lfunc_end27-.Ltmp156          #   Call between .Ltmp156 and .Lfunc_end27
	.byte	0                               #     has no landing pad
	.byte	0                               #   On action: cleanup
.Lcst_end5:
	.byte	1                               # >> Action Record 1 <<
                                        #   Catch TypeInfo 1
	.byte	0                               #   No further actions
	.p2align	2, 0x0
                                        # >> Catch TypeInfos <<
	.long	0                               # TypeInfo 1
.Lttbase2:
	.p2align	2, 0x0
                                        # -- End function
	.section	.text._ZN8nlohmann10basic_jsonISt3mapSt6vectorNSt7__cxx1112basic_stringIcSt11char_traitsIcESaIcEEEblmdSaNS_14adl_serializerEEC2ESt16initializer_listISA_EbNS_6detail7value_tE,"axG",@progbits,_ZN8nlohmann10basic_jsonISt3mapSt6vectorNSt7__cxx1112basic_stringIcSt11char_traitsIcESaIcEEEblmdSaNS_14adl_serializerEEC2ESt16initializer_listISA_EbNS_6detail7value_tE,comdat
	.weak	_ZN8nlohmann10basic_jsonISt3mapSt6vectorNSt7__cxx1112basic_stringIcSt11char_traitsIcESaIcEEEblmdSaNS_14adl_serializerEEC2ESt16initializer_listISA_EbNS_6detail7value_tE # -- Begin function _ZN8nlohmann10basic_jsonISt3mapSt6vectorNSt7__cxx1112basic_stringIcSt11char_traitsIcESaIcEEEblmdSaNS_14adl_serializerEEC2ESt16initializer_listISA_EbNS_6detail7value_tE
	.p2align	4
	.type	_ZN8nlohmann10basic_jsonISt3mapSt6vectorNSt7__cxx1112basic_stringIcSt11char_traitsIcESaIcEEEblmdSaNS_14adl_serializerEEC2ESt16initializer_listISA_EbNS_6detail7value_tE,@function
_ZN8nlohmann10basic_jsonISt3mapSt6vectorNSt7__cxx1112basic_stringIcSt11char_traitsIcESaIcEEEblmdSaNS_14adl_serializerEEC2ESt16initializer_listISA_EbNS_6detail7value_tE: # @_ZN8nlohmann10basic_jsonISt3mapSt6vectorNSt7__cxx1112basic_stringIcSt11char_traitsIcESaIcEEEblmdSaNS_14adl_serializerEEC2ESt16initializer_listISA_EbNS_6detail7value_tE
.Lfunc_begin6:
	.cfi_startproc
	.cfi_personality 155, DW.ref.__gxx_personality_v0
	.cfi_lsda 27, .Lexception6
# %bb.0:
	pushq	%rbp
	.cfi_def_cfa_offset 16
	.cfi_offset %rbp, -16
	movq	%rsp, %rbp
	.cfi_def_cfa_register %rbp
	subq	$128, %rsp
	movb	%r8b, %al
                                        # kill: def $cl killed $cl killed $ecx
	movq	%fs:40, %r8
	movq	%r8, -8(%rbp)
	movq	%rsi, -24(%rbp)
	movq	%rdx, -16(%rbp)
	movq	%rdi, -40(%rbp)
	andb	$1, %cl
	movb	%cl, -41(%rbp)
	movb	%al, -42(%rbp)
	movq	-40(%rbp), %rdi
	movq	%rdi, -96(%rbp)                 # 8-byte Spill
	movb	$0, (%rdi)
	addq	$8, %rdi
	xorl	%esi, %esi
	movl	$8, %edx
	callq	memset@PLT
	leaq	-24(%rbp), %rdi
	callq	_ZNKSt16initializer_listIN8nlohmann10basic_jsonISt3mapSt6vectorNSt7__cxx1112basic_stringIcSt11char_traitsIcESaIcEEEblmdSaNS0_14adl_serializerEEEE5beginEv
	movq	%rax, -88(%rbp)                 # 8-byte Spill
	leaq	-24(%rbp), %rdi
	callq	_ZNKSt16initializer_listIN8nlohmann10basic_jsonISt3mapSt6vectorNSt7__cxx1112basic_stringIcSt11char_traitsIcESaIcEEEblmdSaNS0_14adl_serializerEEEE3endEv
	movq	-88(%rbp), %rdi                 # 8-byte Reload
	movq	%rax, %rsi
	callq	_ZSt6all_ofIPKN8nlohmann10basic_jsonISt3mapSt6vectorNSt7__cxx1112basic_stringIcSt11char_traitsIcESaIcEEEblmdSaNS0_14adl_serializerEEEZNSB_C1ESt16initializer_listISB_EbNS0_6detail7value_tEEUlRSC_E_EbT_SK_T0_
	andb	$1, %al
	movb	%al, -43(%rbp)
	testb	$1, -41(%rbp)
	jne	.LBB28_10
# %bb.1:
	cmpb	$2, -42(%rbp)
	jne	.LBB28_3
# %bb.2:
	movb	$0, -43(%rbp)
.LBB28_3:
	cmpb	$1, -42(%rbp)
	jne	.LBB28_9
# %bb.4:
	testb	$1, -43(%rbp)
	jne	.LBB28_9
# %bb.5:
	movl	$16, %edi
	callq	__cxa_allocate_exception@PLT
	movq	%rax, %rdi
	movq	%rdi, %rax
	movq	%rax, -104(%rbp)                # 8-byte Spill
.Ltmp160:
	leaq	.L.str.71(%rip), %rsi
	callq	_ZNSt12domain_errorC1EPKc@PLT
.Ltmp161:
	jmp	.LBB28_6
.LBB28_6:
	movq	%fs:40, %rax
	movq	-8(%rbp), %rcx
	cmpq	%rcx, %rax
	jne	.LBB28_17
# %bb.7:
	movq	-104(%rbp), %rdi                # 8-byte Reload
	movq	_ZTISt12domain_error@GOTPCREL(%rip), %rsi
	movq	_ZNSt12domain_errorD1Ev@GOTPCREL(%rip), %rdx
	callq	__cxa_throw@PLT
.LBB28_8:
.Ltmp162:
	movq	-104(%rbp), %rdi                # 8-byte Reload
	movq	%rax, %rcx
	movl	%edx, %eax
	movq	%rcx, -56(%rbp)
	movl	%eax, -60(%rbp)
	callq	__cxa_free_exception@PLT
	jmp	.LBB28_15
.LBB28_9:
	jmp	.LBB28_10
.LBB28_10:
	testb	$1, -43(%rbp)
	je	.LBB28_12
# %bb.11:
	movq	-96(%rbp), %rax                 # 8-byte Reload
	movb	$1, (%rax)
	leaq	-32(%rbp), %rdi
	movl	$1, %esi
	callq	_ZN8nlohmann10basic_jsonISt3mapSt6vectorNSt7__cxx1112basic_stringIcSt11char_traitsIcESaIcEEEblmdSaNS_14adl_serializerEE10json_valueC2ENS_6detail7value_tE
	movq	-96(%rbp), %rax                 # 8-byte Reload
	movq	-32(%rbp), %rcx
	movq	%rcx, 8(%rax)
	leaq	-24(%rbp), %rdi
	callq	_ZNKSt16initializer_listIN8nlohmann10basic_jsonISt3mapSt6vectorNSt7__cxx1112basic_stringIcSt11char_traitsIcESaIcEEEblmdSaNS0_14adl_serializerEEEE5beginEv
	movq	%rax, -112(%rbp)                # 8-byte Spill
	leaq	-24(%rbp), %rdi
	callq	_ZNKSt16initializer_listIN8nlohmann10basic_jsonISt3mapSt6vectorNSt7__cxx1112basic_stringIcSt11char_traitsIcESaIcEEEblmdSaNS0_14adl_serializerEEEE3endEv
	movq	-112(%rbp), %rdi                # 8-byte Reload
	movq	%rax, %rsi
	movq	-96(%rbp), %rax                 # 8-byte Reload
	movq	%rax, -72(%rbp)
	movq	-72(%rbp), %rdx
	callq	_ZSt8for_eachIPKN8nlohmann10basic_jsonISt3mapSt6vectorNSt7__cxx1112basic_stringIcSt11char_traitsIcESaIcEEEblmdSaNS0_14adl_serializerEEEZNSB_C1ESt16initializer_listISB_EbNS0_6detail7value_tEEUlRSC_E0_ET0_T_SL_SK_
	movq	%rax, -80(%rbp)
	jmp	.LBB28_13
.LBB28_12:
	movq	-96(%rbp), %rax                 # 8-byte Reload
	movb	$2, (%rax)
	leaq	-24(%rbp), %rdi
	callq	_ZN8nlohmann10basic_jsonISt3mapSt6vectorNSt7__cxx1112basic_stringIcSt11char_traitsIcESaIcEEEblmdSaNS_14adl_serializerEE6createIS2_ISA_SaISA_EEJRSt16initializer_listISA_EEEEPT_DpOT0_
	movq	%rax, %rcx
	movq	-96(%rbp), %rax                 # 8-byte Reload
	movq	%rcx, 8(%rax)
.LBB28_13:
	movq	-96(%rbp), %rdi                 # 8-byte Reload
	callq	_ZNK8nlohmann10basic_jsonISt3mapSt6vectorNSt7__cxx1112basic_stringIcSt11char_traitsIcESaIcEEEblmdSaNS_14adl_serializerEE16assert_invariantEv
	movq	%fs:40, %rax
	movq	-8(%rbp), %rcx
	cmpq	%rcx, %rax
	jne	.LBB28_17
# %bb.14:
	addq	$128, %rsp
	popq	%rbp
	.cfi_def_cfa %rsp, 8
	retq
.LBB28_15:
	.cfi_def_cfa %rbp, 16
	movq	-56(%rbp), %rax
	movq	%rax, -120(%rbp)                # 8-byte Spill
	movq	%fs:40, %rax
	movq	-8(%rbp), %rcx
	cmpq	%rcx, %rax
	jne	.LBB28_17
# %bb.16:
	movq	-120(%rbp), %rdi                # 8-byte Reload
	callq	_Unwind_Resume@PLT
.LBB28_17:
	callq	__stack_chk_fail@PLT
.Lfunc_end28:
	.size	_ZN8nlohmann10basic_jsonISt3mapSt6vectorNSt7__cxx1112basic_stringIcSt11char_traitsIcESaIcEEEblmdSaNS_14adl_serializerEEC2ESt16initializer_listISA_EbNS_6detail7value_tE, .Lfunc_end28-_ZN8nlohmann10basic_jsonISt3mapSt6vectorNSt7__cxx1112basic_stringIcSt11char_traitsIcESaIcEEEblmdSaNS_14adl_serializerEEC2ESt16initializer_listISA_EbNS_6detail7value_tE
	.cfi_endproc
	.section	.gcc_except_table._ZN8nlohmann10basic_jsonISt3mapSt6vectorNSt7__cxx1112basic_stringIcSt11char_traitsIcESaIcEEEblmdSaNS_14adl_serializerEEC2ESt16initializer_listISA_EbNS_6detail7value_tE,"aG",@progbits,_ZN8nlohmann10basic_jsonISt3mapSt6vectorNSt7__cxx1112basic_stringIcSt11char_traitsIcESaIcEEEblmdSaNS_14adl_serializerEEC2ESt16initializer_listISA_EbNS_6detail7value_tE,comdat
	.p2align	2, 0x0
GCC_except_table28:
.Lexception6:
	.byte	255                             # @LPStart Encoding = omit
	.byte	255                             # @TType Encoding = omit
	.byte	1                               # Call site Encoding = uleb128
	.uleb128 .Lcst_end6-.Lcst_begin6
.Lcst_begin6:
	.uleb128 .Lfunc_begin6-.Lfunc_begin6    # >> Call Site 1 <<
	.uleb128 .Ltmp160-.Lfunc_begin6         #   Call between .Lfunc_begin6 and .Ltmp160
	.byte	0                               #     has no landing pad
	.byte	0                               #   On action: cleanup
	.uleb128 .Ltmp160-.Lfunc_begin6         # >> Call Site 2 <<
	.uleb128 .Ltmp161-.Ltmp160              #   Call between .Ltmp160 and .Ltmp161
	.uleb128 .Ltmp162-.Lfunc_begin6         #     jumps to .Ltmp162
	.byte	0                               #   On action: cleanup
	.uleb128 .Ltmp161-.Lfunc_begin6         # >> Call Site 3 <<
	.uleb128 .Lfunc_end28-.Ltmp161          #   Call between .Ltmp161 and .Lfunc_end28
	.byte	0                               #     has no landing pad
	.byte	0                               #   On action: cleanup
.Lcst_end6:
	.p2align	2, 0x0
                                        # -- End function
	.section	.text._ZN8nlohmann10basic_jsonISt3mapSt6vectorNSt7__cxx1112basic_stringIcSt11char_traitsIcESaIcEEEblmdSaNS_14adl_serializerEEC2IRA8_KcA8_cTnNSt9enable_ifIXaaaaaantsr3std10is_base_ofISiT0_EE5valuentsr3std7is_sameISH_SA_EE5valuentsr6detail25is_basic_json_nested_typeISA_SH_EE5valuesr6detail11has_to_jsonISA_SH_EE5valueEiE4typeELi0EEEOT_,"axG",@progbits,_ZN8nlohmann10basic_jsonISt3mapSt6vectorNSt7__cxx1112basic_stringIcSt11char_traitsIcESaIcEEEblmdSaNS_14adl_serializerEEC2IRA8_KcA8_cTnNSt9enable_ifIXaaaaaantsr3std10is_base_ofISiT0_EE5valuentsr3std7is_sameISH_SA_EE5valuentsr6detail25is_basic_json_nested_typeISA_SH_EE5valuesr6detail11has_to_jsonISA_SH_EE5valueEiE4typeELi0EEEOT_,comdat
	.weak	_ZN8nlohmann10basic_jsonISt3mapSt6vectorNSt7__cxx1112basic_stringIcSt11char_traitsIcESaIcEEEblmdSaNS_14adl_serializerEEC2IRA8_KcA8_cTnNSt9enable_ifIXaaaaaantsr3std10is_base_ofISiT0_EE5valuentsr3std7is_sameISH_SA_EE5valuentsr6detail25is_basic_json_nested_typeISA_SH_EE5valuesr6detail11has_to_jsonISA_SH_EE5valueEiE4typeELi0EEEOT_ # -- Begin function _ZN8nlohmann10basic_jsonISt3mapSt6vectorNSt7__cxx1112basic_stringIcSt11char_traitsIcESaIcEEEblmdSaNS_14adl_serializerEEC2IRA8_KcA8_cTnNSt9enable_ifIXaaaaaantsr3std10is_base_ofISiT0_EE5valuentsr3std7is_sameISH_SA_EE5valuentsr6detail25is_basic_json_nested_typeISA_SH_EE5valuesr6detail11has_to_jsonISA_SH_EE5valueEiE4typeELi0EEEOT_
	.p2align	4
	.type	_ZN8nlohmann10basic_jsonISt3mapSt6vectorNSt7__cxx1112basic_stringIcSt11char_traitsIcESaIcEEEblmdSaNS_14adl_serializerEEC2IRA8_KcA8_cTnNSt9enable_ifIXaaaaaantsr3std10is_base_ofISiT0_EE5valuentsr3std7is_sameISH_SA_EE5valuentsr6detail25is_basic_json_nested_typeISA_SH_EE5valuesr6detail11has_to_jsonISA_SH_EE5valueEiE4typeELi0EEEOT_,@function
_ZN8nlohmann10basic_jsonISt3mapSt6vectorNSt7__cxx1112basic_stringIcSt11char_traitsIcESaIcEEEblmdSaNS_14adl_serializerEEC2IRA8_KcA8_cTnNSt9enable_ifIXaaaaaantsr3std10is_base_ofISiT0_EE5valuentsr3std7is_sameISH_SA_EE5valuentsr6detail25is_basic_json_nested_typeISA_SH_EE5valuesr6detail11has_to_jsonISA_SH_EE5valueEiE4typeELi0EEEOT_: # @_ZN8nlohmann10basic_jsonISt3mapSt6vectorNSt7__cxx1112basic_stringIcSt11char_traitsIcESaIcEEEblmdSaNS_14adl_serializerEEC2IRA8_KcA8_cTnNSt9enable_ifIXaaaaaantsr3std10is_base_ofISiT0_EE5valuentsr3std7is_sameISH_SA_EE5valuentsr6detail25is_basic_json_nested_typeISA_SH_EE5valuesr6detail11has_to_jsonISA_SH_EE5valueEiE4typeELi0EEEOT_
	.cfi_startproc
# %bb.0:
	pushq	%rbp
	.cfi_def_cfa_offset 16
	.cfi_offset %rbp, -16
	movq	%rsp, %rbp
	.cfi_def_cfa_register %rbp
	subq	$32, %rsp
	movq	%rdi, -8(%rbp)
	movq	%rsi, -16(%rbp)
	movq	-8(%rbp), %rdi
	movq	%rdi, -24(%rbp)                 # 8-byte Spill
	movb	$0, (%rdi)
	addq	$8, %rdi
	xorl	%esi, %esi
	movl	$8, %edx
	callq	memset@PLT
	movq	-24(%rbp), %rdi                 # 8-byte Reload
	movq	-16(%rbp), %rsi
	callq	_ZN8nlohmann14adl_serializerIA8_cvE7to_jsonINS_10basic_jsonISt3mapSt6vectorNSt7__cxx1112basic_stringIcSt11char_traitsIcESaIcEEEblmdSaS0_EERA8_KcEEvRT_OT0_
	movq	-24(%rbp), %rdi                 # 8-byte Reload
	callq	_ZNK8nlohmann10basic_jsonISt3mapSt6vectorNSt7__cxx1112basic_stringIcSt11char_traitsIcESaIcEEEblmdSaNS_14adl_serializerEE16assert_invariantEv
	addq	$32, %rsp
	popq	%rbp
	.cfi_def_cfa %rsp, 8
	retq
.Lfunc_end29:
	.size	_ZN8nlohmann10basic_jsonISt3mapSt6vectorNSt7__cxx1112basic_stringIcSt11char_traitsIcESaIcEEEblmdSaNS_14adl_serializerEEC2IRA8_KcA8_cTnNSt9enable_ifIXaaaaaantsr3std10is_base_ofISiT0_EE5valuentsr3std7is_sameISH_SA_EE5valuentsr6detail25is_basic_json_nested_typeISA_SH_EE5valuesr6detail11has_to_jsonISA_SH_EE5valueEiE4typeELi0EEEOT_, .Lfunc_end29-_ZN8nlohmann10basic_jsonISt3mapSt6vectorNSt7__cxx1112basic_stringIcSt11char_traitsIcESaIcEEEblmdSaNS_14adl_serializerEEC2IRA8_KcA8_cTnNSt9enable_ifIXaaaaaantsr3std10is_base_ofISiT0_EE5valuentsr3std7is_sameISH_SA_EE5valuentsr6detail25is_basic_json_nested_typeISA_SH_EE5valuesr6detail11has_to_jsonISA_SH_EE5valueEiE4typeELi0EEEOT_
	.cfi_endproc
                                        # -- End function
	.section	.text._Z6encodeILj100EENSt7__cxx1112basic_stringIcSt11char_traitsIcESaIcEEERKN4llvm11SmallStringIXT_EEE,"axG",@progbits,_Z6encodeILj100EENSt7__cxx1112basic_stringIcSt11char_traitsIcESaIcEEERKN4llvm11SmallStringIXT_EEE,comdat
	.weak	_Z6encodeILj100EENSt7__cxx1112basic_stringIcSt11char_traitsIcESaIcEEERKN4llvm11SmallStringIXT_EEE # -- Begin function _Z6encodeILj100EENSt7__cxx1112basic_stringIcSt11char_traitsIcESaIcEEERKN4llvm11SmallStringIXT_EEE
	.p2align	4
	.type	_Z6encodeILj100EENSt7__cxx1112basic_stringIcSt11char_traitsIcESaIcEEERKN4llvm11SmallStringIXT_EEE,@function
_Z6encodeILj100EENSt7__cxx1112basic_stringIcSt11char_traitsIcESaIcEEERKN4llvm11SmallStringIXT_EEE: # @_Z6encodeILj100EENSt7__cxx1112basic_stringIcSt11char_traitsIcESaIcEEERKN4llvm11SmallStringIXT_EEE
	.cfi_startproc
# %bb.0:
	pushq	%rbp
	.cfi_def_cfa_offset 16
	.cfi_offset %rbp, -16
	movq	%rsp, %rbp
	.cfi_def_cfa_register %rbp
	subq	$64, %rsp
	movq	%rdi, -48(%rbp)                 # 8-byte Spill
	movq	%rdi, %rax
	movq	%rax, -56(%rbp)                 # 8-byte Spill
	movq	%fs:40, %rax
	movq	%rax, -8(%rbp)
	movq	%rdi, -32(%rbp)
	movq	%rsi, -40(%rbp)
	movq	-40(%rbp), %rdi
	callq	_ZNK4llvm11SmallStringILj100EE3strEv
	movq	-48(%rbp), %rdi                 # 8-byte Reload
	movq	%rax, -24(%rbp)
	movq	%rdx, -16(%rbp)
	leaq	-24(%rbp), %rsi
	callq	_ZNK4llvm9StringRef3strB5cxx11Ev
	movq	%fs:40, %rax
	movq	-8(%rbp), %rcx
	cmpq	%rcx, %rax
	jne	.LBB30_2
# %bb.1:
	movq	-56(%rbp), %rax                 # 8-byte Reload
	addq	$64, %rsp
	popq	%rbp
	.cfi_def_cfa %rsp, 8
	retq
.LBB30_2:
	.cfi_def_cfa %rbp, 16
	callq	__stack_chk_fail@PLT
.Lfunc_end30:
	.size	_Z6encodeILj100EENSt7__cxx1112basic_stringIcSt11char_traitsIcESaIcEEERKN4llvm11SmallStringIXT_EEE, .Lfunc_end30-_Z6encodeILj100EENSt7__cxx1112basic_stringIcSt11char_traitsIcESaIcEEERKN4llvm11SmallStringIXT_EEE
	.cfi_endproc
                                        # -- End function
	.section	.text._ZN8nlohmann10basic_jsonISt3mapSt6vectorNSt7__cxx1112basic_stringIcSt11char_traitsIcESaIcEEEblmdSaNS_14adl_serializerEEC2IS8_S8_TnNSt9enable_ifIXaaaaaantsr3std10is_base_ofISiT0_EE5valuentsr3std7is_sameISD_SA_EE5valuentsr6detail25is_basic_json_nested_typeISA_SD_EE5valuesr6detail11has_to_jsonISA_SD_EE5valueEiE4typeELi0EEEOT_,"axG",@progbits,_ZN8nlohmann10basic_jsonISt3mapSt6vectorNSt7__cxx1112basic_stringIcSt11char_traitsIcESaIcEEEblmdSaNS_14adl_serializerEEC2IS8_S8_TnNSt9enable_ifIXaaaaaantsr3std10is_base_ofISiT0_EE5valuentsr3std7is_sameISD_SA_EE5valuentsr6detail25is_basic_json_nested_typeISA_SD_EE5valuesr6detail11has_to_jsonISA_SD_EE5valueEiE4typeELi0EEEOT_,comdat
	.weak	_ZN8nlohmann10basic_jsonISt3mapSt6vectorNSt7__cxx1112basic_stringIcSt11char_traitsIcESaIcEEEblmdSaNS_14adl_serializerEEC2IS8_S8_TnNSt9enable_ifIXaaaaaantsr3std10is_base_ofISiT0_EE5valuentsr3std7is_sameISD_SA_EE5valuentsr6detail25is_basic_json_nested_typeISA_SD_EE5valuesr6detail11has_to_jsonISA_SD_EE5valueEiE4typeELi0EEEOT_ # -- Begin function _ZN8nlohmann10basic_jsonISt3mapSt6vectorNSt7__cxx1112basic_stringIcSt11char_traitsIcESaIcEEEblmdSaNS_14adl_serializerEEC2IS8_S8_TnNSt9enable_ifIXaaaaaantsr3std10is_base_ofISiT0_EE5valuentsr3std7is_sameISD_SA_EE5valuentsr6detail25is_basic_json_nested_typeISA_SD_EE5valuesr6detail11has_to_jsonISA_SD_EE5valueEiE4typeELi0EEEOT_
	.p2align	4
	.type	_ZN8nlohmann10basic_jsonISt3mapSt6vectorNSt7__cxx1112basic_stringIcSt11char_traitsIcESaIcEEEblmdSaNS_14adl_serializerEEC2IS8_S8_TnNSt9enable_ifIXaaaaaantsr3std10is_base_ofISiT0_EE5valuentsr3std7is_sameISD_SA_EE5valuentsr6detail25is_basic_json_nested_typeISA_SD_EE5valuesr6detail11has_to_jsonISA_SD_EE5valueEiE4typeELi0EEEOT_,@function
_ZN8nlohmann10basic_jsonISt3mapSt6vectorNSt7__cxx1112basic_stringIcSt11char_traitsIcESaIcEEEblmdSaNS_14adl_serializerEEC2IS8_S8_TnNSt9enable_ifIXaaaaaantsr3std10is_base_ofISiT0_EE5valuentsr3std7is_sameISD_SA_EE5valuentsr6detail25is_basic_json_nested_typeISA_SD_EE5valuesr6detail11has_to_jsonISA_SD_EE5valueEiE4typeELi0EEEOT_: # @_ZN8nlohmann10basic_jsonISt3mapSt6vectorNSt7__cxx1112basic_stringIcSt11char_traitsIcESaIcEEEblmdSaNS_14adl_serializerEEC2IS8_S8_TnNSt9enable_ifIXaaaaaantsr3std10is_base_ofISiT0_EE5valuentsr3std7is_sameISD_SA_EE5valuentsr6detail25is_basic_json_nested_typeISA_SD_EE5valuesr6detail11has_to_jsonISA_SD_EE5valueEiE4typeELi0EEEOT_
	.cfi_startproc
# %bb.0:
	pushq	%rbp
	.cfi_def_cfa_offset 16
	.cfi_offset %rbp, -16
	movq	%rsp, %rbp
	.cfi_def_cfa_register %rbp
	subq	$32, %rsp
	movq	%rdi, -8(%rbp)
	movq	%rsi, -16(%rbp)
	movq	-8(%rbp), %rdi
	movq	%rdi, -24(%rbp)                 # 8-byte Spill
	movb	$0, (%rdi)
	addq	$8, %rdi
	xorl	%esi, %esi
	movl	$8, %edx
	callq	memset@PLT
	movq	-24(%rbp), %rdi                 # 8-byte Reload
	movq	-16(%rbp), %rsi
	callq	_ZN8nlohmann14adl_serializerINSt7__cxx1112basic_stringIcSt11char_traitsIcESaIcEEEvE7to_jsonINS_10basic_jsonISt3mapSt6vectorS6_blmdSaS0_EES6_EEvRT_OT0_
	movq	-24(%rbp), %rdi                 # 8-byte Reload
	callq	_ZNK8nlohmann10basic_jsonISt3mapSt6vectorNSt7__cxx1112basic_stringIcSt11char_traitsIcESaIcEEEblmdSaNS_14adl_serializerEE16assert_invariantEv
	addq	$32, %rsp
	popq	%rbp
	.cfi_def_cfa %rsp, 8
	retq
.Lfunc_end31:
	.size	_ZN8nlohmann10basic_jsonISt3mapSt6vectorNSt7__cxx1112basic_stringIcSt11char_traitsIcESaIcEEEblmdSaNS_14adl_serializerEEC2IS8_S8_TnNSt9enable_ifIXaaaaaantsr3std10is_base_ofISiT0_EE5valuentsr3std7is_sameISD_SA_EE5valuentsr6detail25is_basic_json_nested_typeISA_SD_EE5valuesr6detail11has_to_jsonISA_SD_EE5valueEiE4typeELi0EEEOT_, .Lfunc_end31-_ZN8nlohmann10basic_jsonISt3mapSt6vectorNSt7__cxx1112basic_stringIcSt11char_traitsIcESaIcEEEblmdSaNS_14adl_serializerEEC2IS8_S8_TnNSt9enable_ifIXaaaaaantsr3std10is_base_ofISiT0_EE5valuentsr3std7is_sameISD_SA_EE5valuentsr6detail25is_basic_json_nested_typeISA_SD_EE5valuesr6detail11has_to_jsonISA_SD_EE5valueEiE4typeELi0EEEOT_
	.cfi_endproc
                                        # -- End function
	.section	.text._ZN8nlohmann10basic_jsonISt3mapSt6vectorNSt7__cxx1112basic_stringIcSt11char_traitsIcESaIcEEEblmdSaNS_14adl_serializerEEC2IRA7_KcA7_cTnNSt9enable_ifIXaaaaaantsr3std10is_base_ofISiT0_EE5valuentsr3std7is_sameISH_SA_EE5valuentsr6detail25is_basic_json_nested_typeISA_SH_EE5valuesr6detail11has_to_jsonISA_SH_EE5valueEiE4typeELi0EEEOT_,"axG",@progbits,_ZN8nlohmann10basic_jsonISt3mapSt6vectorNSt7__cxx1112basic_stringIcSt11char_traitsIcESaIcEEEblmdSaNS_14adl_serializerEEC2IRA7_KcA7_cTnNSt9enable_ifIXaaaaaantsr3std10is_base_ofISiT0_EE5valuentsr3std7is_sameISH_SA_EE5valuentsr6detail25is_basic_json_nested_typeISA_SH_EE5valuesr6detail11has_to_jsonISA_SH_EE5valueEiE4typeELi0EEEOT_,comdat
	.weak	_ZN8nlohmann10basic_jsonISt3mapSt6vectorNSt7__cxx1112basic_stringIcSt11char_traitsIcESaIcEEEblmdSaNS_14adl_serializerEEC2IRA7_KcA7_cTnNSt9enable_ifIXaaaaaantsr3std10is_base_ofISiT0_EE5valuentsr3std7is_sameISH_SA_EE5valuentsr6detail25is_basic_json_nested_typeISA_SH_EE5valuesr6detail11has_to_jsonISA_SH_EE5valueEiE4typeELi0EEEOT_ # -- Begin function _ZN8nlohmann10basic_jsonISt3mapSt6vectorNSt7__cxx1112basic_stringIcSt11char_traitsIcESaIcEEEblmdSaNS_14adl_serializerEEC2IRA7_KcA7_cTnNSt9enable_ifIXaaaaaantsr3std10is_base_ofISiT0_EE5valuentsr3std7is_sameISH_SA_EE5valuentsr6detail25is_basic_json_nested_typeISA_SH_EE5valuesr6detail11has_to_jsonISA_SH_EE5valueEiE4typeELi0EEEOT_
	.p2align	4
	.type	_ZN8nlohmann10basic_jsonISt3mapSt6vectorNSt7__cxx1112basic_stringIcSt11char_traitsIcESaIcEEEblmdSaNS_14adl_serializerEEC2IRA7_KcA7_cTnNSt9enable_ifIXaaaaaantsr3std10is_base_ofISiT0_EE5valuentsr3std7is_sameISH_SA_EE5valuentsr6detail25is_basic_json_nested_typeISA_SH_EE5valuesr6detail11has_to_jsonISA_SH_EE5valueEiE4typeELi0EEEOT_,@function
_ZN8nlohmann10basic_jsonISt3mapSt6vectorNSt7__cxx1112basic_stringIcSt11char_traitsIcESaIcEEEblmdSaNS_14adl_serializerEEC2IRA7_KcA7_cTnNSt9enable_ifIXaaaaaantsr3std10is_base_ofISiT0_EE5valuentsr3std7is_sameISH_SA_EE5valuentsr6detail25is_basic_json_nested_typeISA_SH_EE5valuesr6detail11has_to_jsonISA_SH_EE5valueEiE4typeELi0EEEOT_: # @_ZN8nlohmann10basic_jsonISt3mapSt6vectorNSt7__cxx1112basic_stringIcSt11char_traitsIcESaIcEEEblmdSaNS_14adl_serializerEEC2IRA7_KcA7_cTnNSt9enable_ifIXaaaaaantsr3std10is_base_ofISiT0_EE5valuentsr3std7is_sameISH_SA_EE5valuentsr6detail25is_basic_json_nested_typeISA_SH_EE5valuesr6detail11has_to_jsonISA_SH_EE5valueEiE4typeELi0EEEOT_
	.cfi_startproc
# %bb.0:
	pushq	%rbp
	.cfi_def_cfa_offset 16
	.cfi_offset %rbp, -16
	movq	%rsp, %rbp
	.cfi_def_cfa_register %rbp
	subq	$32, %rsp
	movq	%rdi, -8(%rbp)
	movq	%rsi, -16(%rbp)
	movq	-8(%rbp), %rdi
	movq	%rdi, -24(%rbp)                 # 8-byte Spill
	movb	$0, (%rdi)
	addq	$8, %rdi
	xorl	%esi, %esi
	movl	$8, %edx
	callq	memset@PLT
	movq	-24(%rbp), %rdi                 # 8-byte Reload
	movq	-16(%rbp), %rsi
	callq	_ZN8nlohmann14adl_serializerIA7_cvE7to_jsonINS_10basic_jsonISt3mapSt6vectorNSt7__cxx1112basic_stringIcSt11char_traitsIcESaIcEEEblmdSaS0_EERA7_KcEEvRT_OT0_
	movq	-24(%rbp), %rdi                 # 8-byte Reload
	callq	_ZNK8nlohmann10basic_jsonISt3mapSt6vectorNSt7__cxx1112basic_stringIcSt11char_traitsIcESaIcEEEblmdSaNS_14adl_serializerEE16assert_invariantEv
	addq	$32, %rsp
	popq	%rbp
	.cfi_def_cfa %rsp, 8
	retq
.Lfunc_end32:
	.size	_ZN8nlohmann10basic_jsonISt3mapSt6vectorNSt7__cxx1112basic_stringIcSt11char_traitsIcESaIcEEEblmdSaNS_14adl_serializerEEC2IRA7_KcA7_cTnNSt9enable_ifIXaaaaaantsr3std10is_base_ofISiT0_EE5valuentsr3std7is_sameISH_SA_EE5valuentsr6detail25is_basic_json_nested_typeISA_SH_EE5valuesr6detail11has_to_jsonISA_SH_EE5valueEiE4typeELi0EEEOT_, .Lfunc_end32-_ZN8nlohmann10basic_jsonISt3mapSt6vectorNSt7__cxx1112basic_stringIcSt11char_traitsIcESaIcEEEblmdSaNS_14adl_serializerEEC2IRA7_KcA7_cTnNSt9enable_ifIXaaaaaantsr3std10is_base_ofISiT0_EE5valuentsr3std7is_sameISH_SA_EE5valuentsr6detail25is_basic_json_nested_typeISA_SH_EE5valuesr6detail11has_to_jsonISA_SH_EE5valueEiE4typeELi0EEEOT_
	.cfi_endproc
                                        # -- End function
	.section	.text._Z6encodeIN5clang15CharSourceRangeEEN8nlohmann10basic_jsonISt3mapSt6vectorNSt7__cxx1112basic_stringIcSt11char_traitsIcESaIcEEEblmdSaNS2_14adl_serializerEEERKNS0_13SourceManagerERKN4llvm8ArrayRefIT_EE,"axG",@progbits,_Z6encodeIN5clang15CharSourceRangeEEN8nlohmann10basic_jsonISt3mapSt6vectorNSt7__cxx1112basic_stringIcSt11char_traitsIcESaIcEEEblmdSaNS2_14adl_serializerEEERKNS0_13SourceManagerERKN4llvm8ArrayRefIT_EE,comdat
	.weak	_Z6encodeIN5clang15CharSourceRangeEEN8nlohmann10basic_jsonISt3mapSt6vectorNSt7__cxx1112basic_stringIcSt11char_traitsIcESaIcEEEblmdSaNS2_14adl_serializerEEERKNS0_13SourceManagerERKN4llvm8ArrayRefIT_EE # -- Begin function _Z6encodeIN5clang15CharSourceRangeEEN8nlohmann10basic_jsonISt3mapSt6vectorNSt7__cxx1112basic_stringIcSt11char_traitsIcESaIcEEEblmdSaNS2_14adl_serializerEEERKNS0_13SourceManagerERKN4llvm8ArrayRefIT_EE
	.p2align	4
	.type	_Z6encodeIN5clang15CharSourceRangeEEN8nlohmann10basic_jsonISt3mapSt6vectorNSt7__cxx1112basic_stringIcSt11char_traitsIcESaIcEEEblmdSaNS2_14adl_serializerEEERKNS0_13SourceManagerERKN4llvm8ArrayRefIT_EE,@function
_Z6encodeIN5clang15CharSourceRangeEEN8nlohmann10basic_jsonISt3mapSt6vectorNSt7__cxx1112basic_stringIcSt11char_traitsIcESaIcEEEblmdSaNS2_14adl_serializerEEERKNS0_13SourceManagerERKN4llvm8ArrayRefIT_EE: # @_Z6encodeIN5clang15CharSourceRangeEEN8nlohmann10basic_jsonISt3mapSt6vectorNSt7__cxx1112basic_stringIcSt11char_traitsIcESaIcEEEblmdSaNS2_14adl_serializerEEERKNS0_13SourceManagerERKN4llvm8ArrayRefIT_EE
.Lfunc_begin7:
	.cfi_startproc
	.cfi_personality 155, DW.ref.__gxx_personality_v0
	.cfi_lsda 27, .Lexception7
# %bb.0:
	pushq	%rbp
	.cfi_def_cfa_offset 16
	.cfi_offset %rbp, -16
	movq	%rsp, %rbp
	.cfi_def_cfa_register %rbp
	subq	$176, %rsp
	movq	%rdi, -144(%rbp)                # 8-byte Spill
	movq	%rdi, %rax
	movq	%rax, -152(%rbp)                # 8-byte Spill
	movq	%fs:40, %rax
	movq	%rax, -8(%rbp)
	movq	%rdi, -64(%rbp)
	movq	%rsi, -72(%rbp)
	movq	%rdx, -80(%rbp)
	movb	$0, -81(%rbp)
	leaq	-40(%rbp), %rdi
	callq	_ZNSt16initializer_listIN8nlohmann10basic_jsonISt3mapSt6vectorNSt7__cxx1112basic_stringIcSt11char_traitsIcESaIcEEEblmdSaNS0_14adl_serializerEEEEC2Ev
	movq	-144(%rbp), %rdi                # 8-byte Reload
	movq	-40(%rbp), %rsi
	movq	-32(%rbp), %rdx
	callq	_ZN8nlohmann10basic_jsonISt3mapSt6vectorNSt7__cxx1112basic_stringIcSt11char_traitsIcESaIcEEEblmdSaNS_14adl_serializerEE5arrayESt16initializer_listISA_E
	movq	-80(%rbp), %rax
	movq	%rax, -96(%rbp)
	movq	-96(%rbp), %rdi
.Ltmp163:
	callq	_ZNK4llvm8ArrayRefIN5clang15CharSourceRangeEE5beginEv
.Ltmp164:
	movq	%rax, -136(%rbp)                # 8-byte Spill
	jmp	.LBB33_1
.LBB33_1:
	movq	-136(%rbp), %rax                # 8-byte Reload
	movq	%rax, -104(%rbp)
	movq	-96(%rbp), %rdi
.Ltmp165:
	callq	_ZNK4llvm8ArrayRefIN5clang15CharSourceRangeEE3endEv
.Ltmp166:
	movq	%rax, -160(%rbp)                # 8-byte Spill
	jmp	.LBB33_2
.LBB33_2:
	movq	-160(%rbp), %rax                # 8-byte Reload
	movq	%rax, -128(%rbp)
.LBB33_3:                               # =>This Inner Loop Header: Depth=1
	movq	-104(%rbp), %rax
	cmpq	-128(%rbp), %rax
	je	.LBB33_10
# %bb.4:                                #   in Loop: Header=BB33_3 Depth=1
	movq	-104(%rbp), %rax
	movl	8(%rax), %ecx
	movl	%ecx, -16(%rbp)
	movq	(%rax), %rax
	movq	%rax, -24(%rbp)
	movq	-72(%rbp), %rsi
.Ltmp167:
	leaq	-56(%rbp), %rdi
	leaq	-24(%rbp), %rdx
	callq	_Z6encodeB5cxx11RKN5clang13SourceManagerERKNS_15CharSourceRangeE
.Ltmp168:
	jmp	.LBB33_5
.LBB33_5:                               #   in Loop: Header=BB33_3 Depth=1
.Ltmp170:
	movq	-144(%rbp), %rdi                # 8-byte Reload
	leaq	-56(%rbp), %rsi
	callq	_ZN8nlohmann10basic_jsonISt3mapSt6vectorNSt7__cxx1112basic_stringIcSt11char_traitsIcESaIcEEEblmdSaNS_14adl_serializerEE9push_backEOSA_
.Ltmp171:
	jmp	.LBB33_6
.LBB33_6:                               #   in Loop: Header=BB33_3 Depth=1
	leaq	-56(%rbp), %rdi
	callq	_ZN8nlohmann10basic_jsonISt3mapSt6vectorNSt7__cxx1112basic_stringIcSt11char_traitsIcESaIcEEEblmdSaNS_14adl_serializerEED2Ev
# %bb.7:                                #   in Loop: Header=BB33_3 Depth=1
	movq	-104(%rbp), %rax
	addq	$12, %rax
	movq	%rax, -104(%rbp)
	jmp	.LBB33_3
.LBB33_8:
.Ltmp169:
	movq	%rax, %rcx
	movl	%edx, %eax
	movq	%rcx, -112(%rbp)
	movl	%eax, -116(%rbp)
	jmp	.LBB33_14
.LBB33_9:
.Ltmp172:
	movq	%rax, %rcx
	movl	%edx, %eax
	movq	%rcx, -112(%rbp)
	movl	%eax, -116(%rbp)
	leaq	-56(%rbp), %rdi
	callq	_ZN8nlohmann10basic_jsonISt3mapSt6vectorNSt7__cxx1112basic_stringIcSt11char_traitsIcESaIcEEEblmdSaNS_14adl_serializerEED2Ev
	jmp	.LBB33_14
.LBB33_10:
	movb	$1, -81(%rbp)
	testb	$1, -81(%rbp)
	jne	.LBB33_12
# %bb.11:
	movq	-144(%rbp), %rdi                # 8-byte Reload
	callq	_ZN8nlohmann10basic_jsonISt3mapSt6vectorNSt7__cxx1112basic_stringIcSt11char_traitsIcESaIcEEEblmdSaNS_14adl_serializerEED2Ev
.LBB33_12:
	movq	%fs:40, %rax
	movq	-8(%rbp), %rcx
	cmpq	%rcx, %rax
	jne	.LBB33_17
# %bb.13:
	movq	-152(%rbp), %rax                # 8-byte Reload
	addq	$176, %rsp
	popq	%rbp
	.cfi_def_cfa %rsp, 8
	retq
.LBB33_14:
	.cfi_def_cfa %rbp, 16
	movq	-144(%rbp), %rdi                # 8-byte Reload
	callq	_ZN8nlohmann10basic_jsonISt3mapSt6vectorNSt7__cxx1112basic_stringIcSt11char_traitsIcESaIcEEEblmdSaNS_14adl_serializerEED2Ev
# %bb.15:
	movq	-112(%rbp), %rax
	movq	%rax, -168(%rbp)                # 8-byte Spill
	movq	%fs:40, %rax
	movq	-8(%rbp), %rcx
	cmpq	%rcx, %rax
	jne	.LBB33_17
# %bb.16:
	movq	-168(%rbp), %rdi                # 8-byte Reload
	callq	_Unwind_Resume@PLT
.LBB33_17:
	callq	__stack_chk_fail@PLT
.Lfunc_end33:
	.size	_Z6encodeIN5clang15CharSourceRangeEEN8nlohmann10basic_jsonISt3mapSt6vectorNSt7__cxx1112basic_stringIcSt11char_traitsIcESaIcEEEblmdSaNS2_14adl_serializerEEERKNS0_13SourceManagerERKN4llvm8ArrayRefIT_EE, .Lfunc_end33-_Z6encodeIN5clang15CharSourceRangeEEN8nlohmann10basic_jsonISt3mapSt6vectorNSt7__cxx1112basic_stringIcSt11char_traitsIcESaIcEEEblmdSaNS2_14adl_serializerEEERKNS0_13SourceManagerERKN4llvm8ArrayRefIT_EE
	.cfi_endproc
	.section	.gcc_except_table._Z6encodeIN5clang15CharSourceRangeEEN8nlohmann10basic_jsonISt3mapSt6vectorNSt7__cxx1112basic_stringIcSt11char_traitsIcESaIcEEEblmdSaNS2_14adl_serializerEEERKNS0_13SourceManagerERKN4llvm8ArrayRefIT_EE,"aG",@progbits,_Z6encodeIN5clang15CharSourceRangeEEN8nlohmann10basic_jsonISt3mapSt6vectorNSt7__cxx1112basic_stringIcSt11char_traitsIcESaIcEEEblmdSaNS2_14adl_serializerEEERKNS0_13SourceManagerERKN4llvm8ArrayRefIT_EE,comdat
	.p2align	2, 0x0
GCC_except_table33:
.Lexception7:
	.byte	255                             # @LPStart Encoding = omit
	.byte	255                             # @TType Encoding = omit
	.byte	1                               # Call site Encoding = uleb128
	.uleb128 .Lcst_end7-.Lcst_begin7
.Lcst_begin7:
	.uleb128 .Lfunc_begin7-.Lfunc_begin7    # >> Call Site 1 <<
	.uleb128 .Ltmp163-.Lfunc_begin7         #   Call between .Lfunc_begin7 and .Ltmp163
	.byte	0                               #     has no landing pad
	.byte	0                               #   On action: cleanup
	.uleb128 .Ltmp163-.Lfunc_begin7         # >> Call Site 2 <<
	.uleb128 .Ltmp168-.Ltmp163              #   Call between .Ltmp163 and .Ltmp168
	.uleb128 .Ltmp169-.Lfunc_begin7         #     jumps to .Ltmp169
	.byte	0                               #   On action: cleanup
	.uleb128 .Ltmp170-.Lfunc_begin7         # >> Call Site 3 <<
	.uleb128 .Ltmp171-.Ltmp170              #   Call between .Ltmp170 and .Ltmp171
	.uleb128 .Ltmp172-.Lfunc_begin7         #     jumps to .Ltmp172
	.byte	0                               #   On action: cleanup
	.uleb128 .Ltmp171-.Lfunc_begin7         # >> Call Site 4 <<
	.uleb128 .Lfunc_end33-.Ltmp171          #   Call between .Ltmp171 and .Lfunc_end33
	.byte	0                               #     has no landing pad
	.byte	0                               #   On action: cleanup
.Lcst_end7:
	.p2align	2, 0x0
                                        # -- End function
	.section	.text._ZNK5clang10Diagnostic9getRangesEv,"axG",@progbits,_ZNK5clang10Diagnostic9getRangesEv,comdat
	.weak	_ZNK5clang10Diagnostic9getRangesEv # -- Begin function _ZNK5clang10Diagnostic9getRangesEv
	.p2align	4
	.type	_ZNK5clang10Diagnostic9getRangesEv,@function
_ZNK5clang10Diagnostic9getRangesEv:     # @_ZNK5clang10Diagnostic9getRangesEv
	.cfi_startproc
# %bb.0:
	pushq	%rbp
	.cfi_def_cfa_offset 16
	.cfi_offset %rbp, -16
	movq	%rsp, %rbp
	.cfi_def_cfa_register %rbp
	subq	$48, %rsp
	movq	%fs:40, %rax
	movq	%rax, -8(%rbp)
	movq	%rdi, -32(%rbp)
	movq	-32(%rbp), %rax
	movq	48(%rax), %rsi
	addq	$416, %rsi                      # imm = 0x1A0
	leaq	-24(%rbp), %rdi
	callq	_ZN4llvm8ArrayRefIN5clang15CharSourceRangeEEC2IvEERKNS_25SmallVectorTemplateCommonIS2_T_EE
	movq	-24(%rbp), %rax
	movq	%rax, -48(%rbp)                 # 8-byte Spill
	movq	-16(%rbp), %rax
	movq	%rax, -40(%rbp)                 # 8-byte Spill
	movq	%fs:40, %rax
	movq	-8(%rbp), %rcx
	cmpq	%rcx, %rax
	jne	.LBB34_2
# %bb.1:
	movq	-40(%rbp), %rdx                 # 8-byte Reload
	movq	-48(%rbp), %rax                 # 8-byte Reload
	addq	$48, %rsp
	popq	%rbp
	.cfi_def_cfa %rsp, 8
	retq
.LBB34_2:
	.cfi_def_cfa %rbp, 16
	callq	__stack_chk_fail@PLT
.Lfunc_end34:
	.size	_ZNK5clang10Diagnostic9getRangesEv, .Lfunc_end34-_ZNK5clang10Diagnostic9getRangesEv
	.cfi_endproc
                                        # -- End function
	.section	.text._ZN8nlohmann10basic_jsonISt3mapSt6vectorNSt7__cxx1112basic_stringIcSt11char_traitsIcESaIcEEEblmdSaNS_14adl_serializerEEC2IRA6_KcA6_cTnNSt9enable_ifIXaaaaaantsr3std10is_base_ofISiT0_EE5valuentsr3std7is_sameISH_SA_EE5valuentsr6detail25is_basic_json_nested_typeISA_SH_EE5valuesr6detail11has_to_jsonISA_SH_EE5valueEiE4typeELi0EEEOT_,"axG",@progbits,_ZN8nlohmann10basic_jsonISt3mapSt6vectorNSt7__cxx1112basic_stringIcSt11char_traitsIcESaIcEEEblmdSaNS_14adl_serializerEEC2IRA6_KcA6_cTnNSt9enable_ifIXaaaaaantsr3std10is_base_ofISiT0_EE5valuentsr3std7is_sameISH_SA_EE5valuentsr6detail25is_basic_json_nested_typeISA_SH_EE5valuesr6detail11has_to_jsonISA_SH_EE5valueEiE4typeELi0EEEOT_,comdat
	.weak	_ZN8nlohmann10basic_jsonISt3mapSt6vectorNSt7__cxx1112basic_stringIcSt11char_traitsIcESaIcEEEblmdSaNS_14adl_serializerEEC2IRA6_KcA6_cTnNSt9enable_ifIXaaaaaantsr3std10is_base_ofISiT0_EE5valuentsr3std7is_sameISH_SA_EE5valuentsr6detail25is_basic_json_nested_typeISA_SH_EE5valuesr6detail11has_to_jsonISA_SH_EE5valueEiE4typeELi0EEEOT_ # -- Begin function _ZN8nlohmann10basic_jsonISt3mapSt6vectorNSt7__cxx1112basic_stringIcSt11char_traitsIcESaIcEEEblmdSaNS_14adl_serializerEEC2IRA6_KcA6_cTnNSt9enable_ifIXaaaaaantsr3std10is_base_ofISiT0_EE5valuentsr3std7is_sameISH_SA_EE5valuentsr6detail25is_basic_json_nested_typeISA_SH_EE5valuesr6detail11has_to_jsonISA_SH_EE5valueEiE4typeELi0EEEOT_
	.p2align	4
	.type	_ZN8nlohmann10basic_jsonISt3mapSt6vectorNSt7__cxx1112basic_stringIcSt11char_traitsIcESaIcEEEblmdSaNS_14adl_serializerEEC2IRA6_KcA6_cTnNSt9enable_ifIXaaaaaantsr3std10is_base_ofISiT0_EE5valuentsr3std7is_sameISH_SA_EE5valuentsr6detail25is_basic_json_nested_typeISA_SH_EE5valuesr6detail11has_to_jsonISA_SH_EE5valueEiE4typeELi0EEEOT_,@function
_ZN8nlohmann10basic_jsonISt3mapSt6vectorNSt7__cxx1112basic_stringIcSt11char_traitsIcESaIcEEEblmdSaNS_14adl_serializerEEC2IRA6_KcA6_cTnNSt9enable_ifIXaaaaaantsr3std10is_base_ofISiT0_EE5valuentsr3std7is_sameISH_SA_EE5valuentsr6detail25is_basic_json_nested_typeISA_SH_EE5valuesr6detail11has_to_jsonISA_SH_EE5valueEiE4typeELi0EEEOT_: # @_ZN8nlohmann10basic_jsonISt3mapSt6vectorNSt7__cxx1112basic_stringIcSt11char_traitsIcESaIcEEEblmdSaNS_14adl_serializerEEC2IRA6_KcA6_cTnNSt9enable_ifIXaaaaaantsr3std10is_base_ofISiT0_EE5valuentsr3std7is_sameISH_SA_EE5valuentsr6detail25is_basic_json_nested_typeISA_SH_EE5valuesr6detail11has_to_jsonISA_SH_EE5valueEiE4typeELi0EEEOT_
	.cfi_startproc
# %bb.0:
	pushq	%rbp
	.cfi_def_cfa_offset 16
	.cfi_offset %rbp, -16
	movq	%rsp, %rbp
	.cfi_def_cfa_register %rbp
	subq	$32, %rsp
	movq	%rdi, -8(%rbp)
	movq	%rsi, -16(%rbp)
	movq	-8(%rbp), %rdi
	movq	%rdi, -24(%rbp)                 # 8-byte Spill
	movb	$0, (%rdi)
	addq	$8, %rdi
	xorl	%esi, %esi
	movl	$8, %edx
	callq	memset@PLT
	movq	-24(%rbp), %rdi                 # 8-byte Reload
	movq	-16(%rbp), %rsi
	callq	_ZN8nlohmann14adl_serializerIA6_cvE7to_jsonINS_10basic_jsonISt3mapSt6vectorNSt7__cxx1112basic_stringIcSt11char_traitsIcESaIcEEEblmdSaS0_EERA6_KcEEvRT_OT0_
	movq	-24(%rbp), %rdi                 # 8-byte Reload
	callq	_ZNK8nlohmann10basic_jsonISt3mapSt6vectorNSt7__cxx1112basic_stringIcSt11char_traitsIcESaIcEEEblmdSaNS_14adl_serializerEE16assert_invariantEv
	addq	$32, %rsp
	popq	%rbp
	.cfi_def_cfa %rsp, 8
	retq
.Lfunc_end35:
	.size	_ZN8nlohmann10basic_jsonISt3mapSt6vectorNSt7__cxx1112basic_stringIcSt11char_traitsIcESaIcEEEblmdSaNS_14adl_serializerEEC2IRA6_KcA6_cTnNSt9enable_ifIXaaaaaantsr3std10is_base_ofISiT0_EE5valuentsr3std7is_sameISH_SA_EE5valuentsr6detail25is_basic_json_nested_typeISA_SH_EE5valuesr6detail11has_to_jsonISA_SH_EE5valueEiE4typeELi0EEEOT_, .Lfunc_end35-_ZN8nlohmann10basic_jsonISt3mapSt6vectorNSt7__cxx1112basic_stringIcSt11char_traitsIcESaIcEEEblmdSaNS_14adl_serializerEEC2IRA6_KcA6_cTnNSt9enable_ifIXaaaaaantsr3std10is_base_ofISiT0_EE5valuentsr3std7is_sameISH_SA_EE5valuentsr6detail25is_basic_json_nested_typeISA_SH_EE5valuesr6detail11has_to_jsonISA_SH_EE5valueEiE4typeELi0EEEOT_
	.cfi_endproc
                                        # -- End function
	.section	.text._Z6encodeIN5clang9FixItHintEEN8nlohmann10basic_jsonISt3mapSt6vectorNSt7__cxx1112basic_stringIcSt11char_traitsIcESaIcEEEblmdSaNS2_14adl_serializerEEERKNS0_13SourceManagerERKN4llvm8ArrayRefIT_EE,"axG",@progbits,_Z6encodeIN5clang9FixItHintEEN8nlohmann10basic_jsonISt3mapSt6vectorNSt7__cxx1112basic_stringIcSt11char_traitsIcESaIcEEEblmdSaNS2_14adl_serializerEEERKNS0_13SourceManagerERKN4llvm8ArrayRefIT_EE,comdat
	.weak	_Z6encodeIN5clang9FixItHintEEN8nlohmann10basic_jsonISt3mapSt6vectorNSt7__cxx1112basic_stringIcSt11char_traitsIcESaIcEEEblmdSaNS2_14adl_serializerEEERKNS0_13SourceManagerERKN4llvm8ArrayRefIT_EE # -- Begin function _Z6encodeIN5clang9FixItHintEEN8nlohmann10basic_jsonISt3mapSt6vectorNSt7__cxx1112basic_stringIcSt11char_traitsIcESaIcEEEblmdSaNS2_14adl_serializerEEERKNS0_13SourceManagerERKN4llvm8ArrayRefIT_EE
	.p2align	4
	.type	_Z6encodeIN5clang9FixItHintEEN8nlohmann10basic_jsonISt3mapSt6vectorNSt7__cxx1112basic_stringIcSt11char_traitsIcESaIcEEEblmdSaNS2_14adl_serializerEEERKNS0_13SourceManagerERKN4llvm8ArrayRefIT_EE,@function
_Z6encodeIN5clang9FixItHintEEN8nlohmann10basic_jsonISt3mapSt6vectorNSt7__cxx1112basic_stringIcSt11char_traitsIcESaIcEEEblmdSaNS2_14adl_serializerEEERKNS0_13SourceManagerERKN4llvm8ArrayRefIT_EE: # @_Z6encodeIN5clang9FixItHintEEN8nlohmann10basic_jsonISt3mapSt6vectorNSt7__cxx1112basic_stringIcSt11char_traitsIcESaIcEEEblmdSaNS2_14adl_serializerEEERKNS0_13SourceManagerERKN4llvm8ArrayRefIT_EE
.Lfunc_begin8:
	.cfi_startproc
	.cfi_personality 155, DW.ref.__gxx_personality_v0
	.cfi_lsda 27, .Lexception8
# %bb.0:
	pushq	%rbp
	.cfi_def_cfa_offset 16
	.cfi_offset %rbp, -16
	movq	%rsp, %rbp
	.cfi_def_cfa_register %rbp
	subq	$224, %rsp
	movq	%rdi, -192(%rbp)                # 8-byte Spill
	movq	%rdi, %rax
	movq	%rax, -200(%rbp)                # 8-byte Spill
	movq	%fs:40, %rax
	movq	%rax, -8(%rbp)
	movq	%rdi, -112(%rbp)
	movq	%rsi, -120(%rbp)
	movq	%rdx, -128(%rbp)
	movb	$0, -129(%rbp)
	leaq	-88(%rbp), %rdi
	callq	_ZNSt16initializer_listIN8nlohmann10basic_jsonISt3mapSt6vectorNSt7__cxx1112basic_stringIcSt11char_traitsIcESaIcEEEblmdSaNS0_14adl_serializerEEEEC2Ev
	movq	-192(%rbp), %rdi                # 8-byte Reload
	movq	-88(%rbp), %rsi
	movq	-80(%rbp), %rdx
	callq	_ZN8nlohmann10basic_jsonISt3mapSt6vectorNSt7__cxx1112basic_stringIcSt11char_traitsIcESaIcEEEblmdSaNS_14adl_serializerEE5arrayESt16initializer_listISA_E
	movq	-128(%rbp), %rax
	movq	%rax, -144(%rbp)
	movq	-144(%rbp), %rdi
.Ltmp173:
	callq	_ZNK4llvm8ArrayRefIN5clang9FixItHintEE5beginEv
.Ltmp174:
	movq	%rax, -184(%rbp)                # 8-byte Spill
	jmp	.LBB36_1
.LBB36_1:
	movq	-184(%rbp), %rax                # 8-byte Reload
	movq	%rax, -152(%rbp)
	movq	-144(%rbp), %rdi
.Ltmp175:
	callq	_ZNK4llvm8ArrayRefIN5clang9FixItHintEE3endEv
.Ltmp176:
	movq	%rax, -208(%rbp)                # 8-byte Spill
	jmp	.LBB36_2
.LBB36_2:
	movq	-208(%rbp), %rax                # 8-byte Reload
	movq	%rax, -176(%rbp)
.LBB36_3:                               # =>This Inner Loop Header: Depth=1
	movq	-152(%rbp), %rax
	cmpq	-176(%rbp), %rax
	je	.LBB36_13
# %bb.4:                                #   in Loop: Header=BB36_3 Depth=1
	movq	-152(%rbp), %rsi
.Ltmp177:
	leaq	-72(%rbp), %rdi
	callq	_ZN5clang9FixItHintC2ERKS0_
.Ltmp178:
	jmp	.LBB36_5
.LBB36_5:                               #   in Loop: Header=BB36_3 Depth=1
	movq	-120(%rbp), %rsi
.Ltmp180:
	leaq	-104(%rbp), %rdi
	leaq	-72(%rbp), %rdx
	callq	_Z6encodeB5cxx11RKN5clang13SourceManagerERKNS_9FixItHintE
.Ltmp181:
	jmp	.LBB36_6
.LBB36_6:                               #   in Loop: Header=BB36_3 Depth=1
.Ltmp183:
	movq	-192(%rbp), %rdi                # 8-byte Reload
	leaq	-104(%rbp), %rsi
	callq	_ZN8nlohmann10basic_jsonISt3mapSt6vectorNSt7__cxx1112basic_stringIcSt11char_traitsIcESaIcEEEblmdSaNS_14adl_serializerEE9push_backEOSA_
.Ltmp184:
	jmp	.LBB36_7
.LBB36_7:                               #   in Loop: Header=BB36_3 Depth=1
	leaq	-104(%rbp), %rdi
	callq	_ZN8nlohmann10basic_jsonISt3mapSt6vectorNSt7__cxx1112basic_stringIcSt11char_traitsIcESaIcEEEblmdSaNS_14adl_serializerEED2Ev
	leaq	-72(%rbp), %rdi
	callq	_ZN5clang9FixItHintD2Ev
# %bb.8:                                #   in Loop: Header=BB36_3 Depth=1
	movq	-152(%rbp), %rax
	addq	$64, %rax
	movq	%rax, -152(%rbp)
	jmp	.LBB36_3
.LBB36_9:
.Ltmp179:
	movq	%rax, %rcx
	movl	%edx, %eax
	movq	%rcx, -160(%rbp)
	movl	%eax, -164(%rbp)
	jmp	.LBB36_17
.LBB36_10:
.Ltmp182:
	movq	%rax, %rcx
	movl	%edx, %eax
	movq	%rcx, -160(%rbp)
	movl	%eax, -164(%rbp)
	jmp	.LBB36_12
.LBB36_11:
.Ltmp185:
	movq	%rax, %rcx
	movl	%edx, %eax
	movq	%rcx, -160(%rbp)
	movl	%eax, -164(%rbp)
	leaq	-104(%rbp), %rdi
	callq	_ZN8nlohmann10basic_jsonISt3mapSt6vectorNSt7__cxx1112basic_stringIcSt11char_traitsIcESaIcEEEblmdSaNS_14adl_serializerEED2Ev
.LBB36_12:
	leaq	-72(%rbp), %rdi
	callq	_ZN5clang9FixItHintD2Ev
	jmp	.LBB36_17
.LBB36_13:
	movb	$1, -129(%rbp)
	testb	$1, -129(%rbp)
	jne	.LBB36_15
# %bb.14:
	movq	-192(%rbp), %rdi                # 8-byte Reload
	callq	_ZN8nlohmann10basic_jsonISt3mapSt6vectorNSt7__cxx1112basic_stringIcSt11char_traitsIcESaIcEEEblmdSaNS_14adl_serializerEED2Ev
.LBB36_15:
	movq	%fs:40, %rax
	movq	-8(%rbp), %rcx
	cmpq	%rcx, %rax
	jne	.LBB36_20
# %bb.16:
	movq	-200(%rbp), %rax                # 8-byte Reload
	addq	$224, %rsp
	popq	%rbp
	.cfi_def_cfa %rsp, 8
	retq
.LBB36_17:
	.cfi_def_cfa %rbp, 16
	movq	-192(%rbp), %rdi                # 8-byte Reload
	callq	_ZN8nlohmann10basic_jsonISt3mapSt6vectorNSt7__cxx1112basic_stringIcSt11char_traitsIcESaIcEEEblmdSaNS_14adl_serializerEED2Ev
# %bb.18:
	movq	-160(%rbp), %rax
	movq	%rax, -216(%rbp)                # 8-byte Spill
	movq	%fs:40, %rax
	movq	-8(%rbp), %rcx
	cmpq	%rcx, %rax
	jne	.LBB36_20
# %bb.19:
	movq	-216(%rbp), %rdi                # 8-byte Reload
	callq	_Unwind_Resume@PLT
.LBB36_20:
	callq	__stack_chk_fail@PLT
.Lfunc_end36:
	.size	_Z6encodeIN5clang9FixItHintEEN8nlohmann10basic_jsonISt3mapSt6vectorNSt7__cxx1112basic_stringIcSt11char_traitsIcESaIcEEEblmdSaNS2_14adl_serializerEEERKNS0_13SourceManagerERKN4llvm8ArrayRefIT_EE, .Lfunc_end36-_Z6encodeIN5clang9FixItHintEEN8nlohmann10basic_jsonISt3mapSt6vectorNSt7__cxx1112basic_stringIcSt11char_traitsIcESaIcEEEblmdSaNS2_14adl_serializerEEERKNS0_13SourceManagerERKN4llvm8ArrayRefIT_EE
	.cfi_endproc
	.section	.gcc_except_table._Z6encodeIN5clang9FixItHintEEN8nlohmann10basic_jsonISt3mapSt6vectorNSt7__cxx1112basic_stringIcSt11char_traitsIcESaIcEEEblmdSaNS2_14adl_serializerEEERKNS0_13SourceManagerERKN4llvm8ArrayRefIT_EE,"aG",@progbits,_Z6encodeIN5clang9FixItHintEEN8nlohmann10basic_jsonISt3mapSt6vectorNSt7__cxx1112basic_stringIcSt11char_traitsIcESaIcEEEblmdSaNS2_14adl_serializerEEERKNS0_13SourceManagerERKN4llvm8ArrayRefIT_EE,comdat
	.p2align	2, 0x0
GCC_except_table36:
.Lexception8:
	.byte	255                             # @LPStart Encoding = omit
	.byte	255                             # @TType Encoding = omit
	.byte	1                               # Call site Encoding = uleb128
	.uleb128 .Lcst_end8-.Lcst_begin8
.Lcst_begin8:
	.uleb128 .Lfunc_begin8-.Lfunc_begin8    # >> Call Site 1 <<
	.uleb128 .Ltmp173-.Lfunc_begin8         #   Call between .Lfunc_begin8 and .Ltmp173
	.byte	0                               #     has no landing pad
	.byte	0                               #   On action: cleanup
	.uleb128 .Ltmp173-.Lfunc_begin8         # >> Call Site 2 <<
	.uleb128 .Ltmp178-.Ltmp173              #   Call between .Ltmp173 and .Ltmp178
	.uleb128 .Ltmp179-.Lfunc_begin8         #     jumps to .Ltmp179
	.byte	0                               #   On action: cleanup
	.uleb128 .Ltmp180-.Lfunc_begin8         # >> Call Site 3 <<
	.uleb128 .Ltmp181-.Ltmp180              #   Call between .Ltmp180 and .Ltmp181
	.uleb128 .Ltmp182-.Lfunc_begin8         #     jumps to .Ltmp182
	.byte	0                               #   On action: cleanup
	.uleb128 .Ltmp183-.Lfunc_begin8         # >> Call Site 4 <<
	.uleb128 .Ltmp184-.Ltmp183              #   Call between .Ltmp183 and .Ltmp184
	.uleb128 .Ltmp185-.Lfunc_begin8         #     jumps to .Ltmp185
	.byte	0                               #   On action: cleanup
	.uleb128 .Ltmp184-.Lfunc_begin8         # >> Call Site 5 <<
	.uleb128 .Lfunc_end36-.Ltmp184          #   Call between .Ltmp184 and .Lfunc_end36
	.byte	0                               #     has no landing pad
	.byte	0                               #   On action: cleanup
.Lcst_end8:
	.p2align	2, 0x0
                                        # -- End function
	.section	.text._ZNK5clang10Diagnostic13getFixItHintsEv,"axG",@progbits,_ZNK5clang10Diagnostic13getFixItHintsEv,comdat
	.weak	_ZNK5clang10Diagnostic13getFixItHintsEv # -- Begin function _ZNK5clang10Diagnostic13getFixItHintsEv
	.p2align	4
	.type	_ZNK5clang10Diagnostic13getFixItHintsEv,@function
_ZNK5clang10Diagnostic13getFixItHintsEv: # @_ZNK5clang10Diagnostic13getFixItHintsEv
	.cfi_startproc
# %bb.0:
	pushq	%rbp
	.cfi_def_cfa_offset 16
	.cfi_offset %rbp, -16
	movq	%rsp, %rbp
	.cfi_def_cfa_register %rbp
	subq	$48, %rsp
	movq	%fs:40, %rax
	movq	%rax, -8(%rbp)
	movq	%rdi, -32(%rbp)
	movq	-32(%rbp), %rax
	movq	48(%rax), %rsi
	addq	$528, %rsi                      # imm = 0x210
	leaq	-24(%rbp), %rdi
	callq	_ZN4llvm8ArrayRefIN5clang9FixItHintEEC2IvEERKNS_25SmallVectorTemplateCommonIS2_T_EE
	movq	-24(%rbp), %rax
	movq	%rax, -48(%rbp)                 # 8-byte Spill
	movq	-16(%rbp), %rax
	movq	%rax, -40(%rbp)                 # 8-byte Spill
	movq	%fs:40, %rax
	movq	-8(%rbp), %rcx
	cmpq	%rcx, %rax
	jne	.LBB37_2
# %bb.1:
	movq	-40(%rbp), %rdx                 # 8-byte Reload
	movq	-48(%rbp), %rax                 # 8-byte Reload
	addq	$48, %rsp
	popq	%rbp
	.cfi_def_cfa %rsp, 8
	retq
.LBB37_2:
	.cfi_def_cfa %rbp, 16
	callq	__stack_chk_fail@PLT
.Lfunc_end37:
	.size	_ZNK5clang10Diagnostic13getFixItHintsEv, .Lfunc_end37-_ZNK5clang10Diagnostic13getFixItHintsEv
	.cfi_endproc
                                        # -- End function
	.section	.text._ZN4llvm11raw_ostreamlsERKNSt7__cxx1112basic_stringIcSt11char_traitsIcESaIcEEE,"axG",@progbits,_ZN4llvm11raw_ostreamlsERKNSt7__cxx1112basic_stringIcSt11char_traitsIcESaIcEEE,comdat
	.weak	_ZN4llvm11raw_ostreamlsERKNSt7__cxx1112basic_stringIcSt11char_traitsIcESaIcEEE # -- Begin function _ZN4llvm11raw_ostreamlsERKNSt7__cxx1112basic_stringIcSt11char_traitsIcESaIcEEE
	.p2align	4
	.type	_ZN4llvm11raw_ostreamlsERKNSt7__cxx1112basic_stringIcSt11char_traitsIcESaIcEEE,@function
_ZN4llvm11raw_ostreamlsERKNSt7__cxx1112basic_stringIcSt11char_traitsIcESaIcEEE: # @_ZN4llvm11raw_ostreamlsERKNSt7__cxx1112basic_stringIcSt11char_traitsIcESaIcEEE
	.cfi_startproc
# %bb.0:
	pushq	%rbp
	.cfi_def_cfa_offset 16
	.cfi_offset %rbp, -16
	movq	%rsp, %rbp
	.cfi_def_cfa_register %rbp
	subq	$32, %rsp
	movq	%rdi, -8(%rbp)
	movq	%rsi, -16(%rbp)
	movq	-8(%rbp), %rax
	movq	%rax, -32(%rbp)                 # 8-byte Spill
	movq	-16(%rbp), %rdi
	callq	_ZNKSt7__cxx1112basic_stringIcSt11char_traitsIcESaIcEE4dataEv
	movq	%rax, -24(%rbp)                 # 8-byte Spill
	movq	-16(%rbp), %rdi
	callq	_ZNKSt7__cxx1112basic_stringIcSt11char_traitsIcESaIcEE6lengthEv
	movq	-32(%rbp), %rdi                 # 8-byte Reload
	movq	-24(%rbp), %rsi                 # 8-byte Reload
	movq	%rax, %rdx
	callq	_ZN4llvm11raw_ostream5writeEPKcm@PLT
	addq	$32, %rsp
	popq	%rbp
	.cfi_def_cfa %rsp, 8
	retq
.Lfunc_end38:
	.size	_ZN4llvm11raw_ostreamlsERKNSt7__cxx1112basic_stringIcSt11char_traitsIcESaIcEEE, .Lfunc_end38-_ZN4llvm11raw_ostreamlsERKNSt7__cxx1112basic_stringIcSt11char_traitsIcESaIcEEE
	.cfi_endproc
                                        # -- End function
	.section	.text._ZNK8nlohmann10basic_jsonISt3mapSt6vectorNSt7__cxx1112basic_stringIcSt11char_traitsIcESaIcEEEblmdSaNS_14adl_serializerEE4dumpEi,"axG",@progbits,_ZNK8nlohmann10basic_jsonISt3mapSt6vectorNSt7__cxx1112basic_stringIcSt11char_traitsIcESaIcEEEblmdSaNS_14adl_serializerEE4dumpEi,comdat
	.weak	_ZNK8nlohmann10basic_jsonISt3mapSt6vectorNSt7__cxx1112basic_stringIcSt11char_traitsIcESaIcEEEblmdSaNS_14adl_serializerEE4dumpEi # -- Begin function _ZNK8nlohmann10basic_jsonISt3mapSt6vectorNSt7__cxx1112basic_stringIcSt11char_traitsIcESaIcEEEblmdSaNS_14adl_serializerEE4dumpEi
	.p2align	4
	.type	_ZNK8nlohmann10basic_jsonISt3mapSt6vectorNSt7__cxx1112basic_stringIcSt11char_traitsIcESaIcEEEblmdSaNS_14adl_serializerEE4dumpEi,@function
_ZNK8nlohmann10basic_jsonISt3mapSt6vectorNSt7__cxx1112basic_stringIcSt11char_traitsIcESaIcEEEblmdSaNS_14adl_serializerEE4dumpEi: # @_ZNK8nlohmann10basic_jsonISt3mapSt6vectorNSt7__cxx1112basic_stringIcSt11char_traitsIcESaIcEEEblmdSaNS_14adl_serializerEE4dumpEi
.Lfunc_begin9:
	.cfi_startproc
	.cfi_personality 155, DW.ref.__gxx_personality_v0
	.cfi_lsda 27, .Lexception9
# %bb.0:
	pushq	%rbp
	.cfi_def_cfa_offset 16
	.cfi_offset %rbp, -16
	movq	%rsp, %rbp
	.cfi_def_cfa_register %rbp
	subq	$480, %rsp                      # imm = 0x1E0
	movq	%rdi, -464(%rbp)                # 8-byte Spill
	movq	%rdi, %rax
	movq	%rax, -456(%rbp)                # 8-byte Spill
	movq	%fs:40, %rax
	movq	%rax, -8(%rbp)
	movq	%rdi, -408(%rbp)
	movq	%rsi, -416(%rbp)
	movl	%edx, -420(%rbp)
	movq	-416(%rbp), %rax
	movq	%rax, -448(%rbp)                # 8-byte Spill
	leaq	-400(%rbp), %rdi
	callq	_ZNSt7__cxx1118basic_stringstreamIcSt11char_traitsIcESaIcEEC1Ev@PLT
	cmpl	$0, -420(%rbp)
	jl	.LBB39_4
# %bb.1:
	movq	-448(%rbp), %rdi                # 8-byte Reload
	leaq	-384(%rbp), %rsi
	movl	-420(%rbp), %ecx
.Ltmp188:
	movl	$1, %edx
	xorl	%r8d, %r8d
	callq	_ZNK8nlohmann10basic_jsonISt3mapSt6vectorNSt7__cxx1112basic_stringIcSt11char_traitsIcESaIcEEEblmdSaNS_14adl_serializerEE4dumpERSobjj
.Ltmp189:
	jmp	.LBB39_2
.LBB39_2:
	jmp	.LBB39_6
.LBB39_3:
.Ltmp192:
	movq	%rax, %rcx
	movl	%edx, %eax
	movq	%rcx, -432(%rbp)
	movl	%eax, -436(%rbp)
	leaq	-400(%rbp), %rdi
	callq	_ZNSt7__cxx1118basic_stringstreamIcSt11char_traitsIcESaIcEED1Ev@PLT
	jmp	.LBB39_9
.LBB39_4:
	movq	-448(%rbp), %rdi                # 8-byte Reload
	leaq	-384(%rbp), %rsi
.Ltmp186:
	xorl	%r8d, %r8d
	movl	%r8d, %edx
	movl	%r8d, %ecx
	callq	_ZNK8nlohmann10basic_jsonISt3mapSt6vectorNSt7__cxx1112basic_stringIcSt11char_traitsIcESaIcEEEblmdSaNS_14adl_serializerEE4dumpERSobjj
.Ltmp187:
	jmp	.LBB39_5
.LBB39_5:
	jmp	.LBB39_6
.LBB39_6:
.Ltmp190:
	movq	-464(%rbp), %rdi                # 8-byte Reload
	leaq	-400(%rbp), %rsi
	callq	_ZNKSt7__cxx1118basic_stringstreamIcSt11char_traitsIcESaIcEE3strEv@PLT
.Ltmp191:
	jmp	.LBB39_7
.LBB39_7:
	leaq	-400(%rbp), %rdi
	callq	_ZNSt7__cxx1118basic_stringstreamIcSt11char_traitsIcESaIcEED1Ev@PLT
	movq	%fs:40, %rax
	movq	-8(%rbp), %rcx
	cmpq	%rcx, %rax
	jne	.LBB39_11
# %bb.8:
	movq	-456(%rbp), %rax                # 8-byte Reload
	addq	$480, %rsp                      # imm = 0x1E0
	popq	%rbp
	.cfi_def_cfa %rsp, 8
	retq
.LBB39_9:
	.cfi_def_cfa %rbp, 16
	movq	-432(%rbp), %rax
	movq	%rax, -472(%rbp)                # 8-byte Spill
	movq	%fs:40, %rax
	movq	-8(%rbp), %rcx
	cmpq	%rcx, %rax
	jne	.LBB39_11
# %bb.10:
	movq	-472(%rbp), %rdi                # 8-byte Reload
	callq	_Unwind_Resume@PLT
.LBB39_11:
	callq	__stack_chk_fail@PLT
.Lfunc_end39:
	.size	_ZNK8nlohmann10basic_jsonISt3mapSt6vectorNSt7__cxx1112basic_stringIcSt11char_traitsIcESaIcEEEblmdSaNS_14adl_serializerEE4dumpEi, .Lfunc_end39-_ZNK8nlohmann10basic_jsonISt3mapSt6vectorNSt7__cxx1112basic_stringIcSt11char_traitsIcESaIcEEEblmdSaNS_14adl_serializerEE4dumpEi
	.cfi_endproc
	.section	.gcc_except_table._ZNK8nlohmann10basic_jsonISt3mapSt6vectorNSt7__cxx1112basic_stringIcSt11char_traitsIcESaIcEEEblmdSaNS_14adl_serializerEE4dumpEi,"aG",@progbits,_ZNK8nlohmann10basic_jsonISt3mapSt6vectorNSt7__cxx1112basic_stringIcSt11char_traitsIcESaIcEEEblmdSaNS_14adl_serializerEE4dumpEi,comdat
	.p2align	2, 0x0
GCC_except_table39:
.Lexception9:
	.byte	255                             # @LPStart Encoding = omit
	.byte	255                             # @TType Encoding = omit
	.byte	1                               # Call site Encoding = uleb128
	.uleb128 .Lcst_end9-.Lcst_begin9
.Lcst_begin9:
	.uleb128 .Lfunc_begin9-.Lfunc_begin9    # >> Call Site 1 <<
	.uleb128 .Ltmp188-.Lfunc_begin9         #   Call between .Lfunc_begin9 and .Ltmp188
	.byte	0                               #     has no landing pad
	.byte	0                               #   On action: cleanup
	.uleb128 .Ltmp188-.Lfunc_begin9         # >> Call Site 2 <<
	.uleb128 .Ltmp191-.Ltmp188              #   Call between .Ltmp188 and .Ltmp191
	.uleb128 .Ltmp192-.Lfunc_begin9         #     jumps to .Ltmp192
	.byte	0                               #   On action: cleanup
	.uleb128 .Ltmp191-.Lfunc_begin9         # >> Call Site 3 <<
	.uleb128 .Lfunc_end39-.Ltmp191          #   Call between .Ltmp191 and .Lfunc_end39
	.byte	0                               #     has no landing pad
	.byte	0                               #   On action: cleanup
.Lcst_end9:
	.p2align	2, 0x0
                                        # -- End function
	.section	.text._ZN4llvm11raw_ostreamlsERKNS_15SmallVectorImplIcEE,"axG",@progbits,_ZN4llvm11raw_ostreamlsERKNS_15SmallVectorImplIcEE,comdat
	.weak	_ZN4llvm11raw_ostreamlsERKNS_15SmallVectorImplIcEE # -- Begin function _ZN4llvm11raw_ostreamlsERKNS_15SmallVectorImplIcEE
	.p2align	4
	.type	_ZN4llvm11raw_ostreamlsERKNS_15SmallVectorImplIcEE,@function
_ZN4llvm11raw_ostreamlsERKNS_15SmallVectorImplIcEE: # @_ZN4llvm11raw_ostreamlsERKNS_15SmallVectorImplIcEE
	.cfi_startproc
# %bb.0:
	pushq	%rbp
	.cfi_def_cfa_offset 16
	.cfi_offset %rbp, -16
	movq	%rsp, %rbp
	.cfi_def_cfa_register %rbp
	subq	$32, %rsp
	movq	%rdi, -8(%rbp)
	movq	%rsi, -16(%rbp)
	movq	-8(%rbp), %rax
	movq	%rax, -32(%rbp)                 # 8-byte Spill
	movq	-16(%rbp), %rdi
	callq	_ZNK4llvm25SmallVectorTemplateCommonIcvE4dataEv
	movq	%rax, -24(%rbp)                 # 8-byte Spill
	movq	-16(%rbp), %rdi
	callq	_ZNK4llvm15SmallVectorBaseImE4sizeEv@PLT
	movq	-32(%rbp), %rdi                 # 8-byte Reload
	movq	-24(%rbp), %rsi                 # 8-byte Reload
	movq	%rax, %rdx
	callq	_ZN4llvm11raw_ostream5writeEPKcm@PLT
	addq	$32, %rsp
	popq	%rbp
	.cfi_def_cfa %rsp, 8
	retq
.Lfunc_end40:
	.size	_ZN4llvm11raw_ostreamlsERKNS_15SmallVectorImplIcEE, .Lfunc_end40-_ZN4llvm11raw_ostreamlsERKNS_15SmallVectorImplIcEE
	.cfi_endproc
                                        # -- End function
	.section	.text._ZN25ArduinoDiagnosticConsumerD2Ev,"axG",@progbits,_ZN25ArduinoDiagnosticConsumerD2Ev,comdat
	.weak	_ZN25ArduinoDiagnosticConsumerD2Ev # -- Begin function _ZN25ArduinoDiagnosticConsumerD2Ev
	.p2align	4
	.type	_ZN25ArduinoDiagnosticConsumerD2Ev,@function
_ZN25ArduinoDiagnosticConsumerD2Ev:     # @_ZN25ArduinoDiagnosticConsumerD2Ev
	.cfi_startproc
# %bb.0:
	pushq	%rbp
	.cfi_def_cfa_offset 16
	.cfi_offset %rbp, -16
	movq	%rsp, %rbp
	.cfi_def_cfa_register %rbp
	subq	$16, %rsp
	movq	%rdi, -8(%rbp)
	movq	-8(%rbp), %rdi
	callq	_ZN5clang18DiagnosticConsumerD2Ev@PLT
	addq	$16, %rsp
	popq	%rbp
	.cfi_def_cfa %rsp, 8
	retq
.Lfunc_end41:
	.size	_ZN25ArduinoDiagnosticConsumerD2Ev, .Lfunc_end41-_ZN25ArduinoDiagnosticConsumerD2Ev
	.cfi_endproc
                                        # -- End function
	.section	.text._ZN25ArduinoDiagnosticConsumerD0Ev,"axG",@progbits,_ZN25ArduinoDiagnosticConsumerD0Ev,comdat
	.weak	_ZN25ArduinoDiagnosticConsumerD0Ev # -- Begin function _ZN25ArduinoDiagnosticConsumerD0Ev
	.p2align	4
	.type	_ZN25ArduinoDiagnosticConsumerD0Ev,@function
_ZN25ArduinoDiagnosticConsumerD0Ev:     # @_ZN25ArduinoDiagnosticConsumerD0Ev
	.cfi_startproc
# %bb.0:
	pushq	%rbp
	.cfi_def_cfa_offset 16
	.cfi_offset %rbp, -16
	movq	%rsp, %rbp
	.cfi_def_cfa_register %rbp
	subq	$16, %rsp
	movq	%rdi, -8(%rbp)
	movq	-8(%rbp), %rdi
	movq	%rdi, -16(%rbp)                 # 8-byte Spill
	callq	_ZN25ArduinoDiagnosticConsumerD2Ev
	movq	-16(%rbp), %rdi                 # 8-byte Reload
	movl	$32, %esi
	callq	_ZdlPvm@PLT
	addq	$16, %rsp
	popq	%rbp
	.cfi_def_cfa %rsp, 8
	retq
.Lfunc_end42:
	.size	_ZN25ArduinoDiagnosticConsumerD0Ev, .Lfunc_end42-_ZN25ArduinoDiagnosticConsumerD0Ev
	.cfi_endproc
                                        # -- End function
	.section	.text._ZN5clang18DiagnosticConsumer5clearEv,"axG",@progbits,_ZN5clang18DiagnosticConsumer5clearEv,comdat
	.weak	_ZN5clang18DiagnosticConsumer5clearEv # -- Begin function _ZN5clang18DiagnosticConsumer5clearEv
	.p2align	4
	.type	_ZN5clang18DiagnosticConsumer5clearEv,@function
_ZN5clang18DiagnosticConsumer5clearEv:  # @_ZN5clang18DiagnosticConsumer5clearEv
	.cfi_startproc
# %bb.0:
	pushq	%rbp
	.cfi_def_cfa_offset 16
	.cfi_offset %rbp, -16
	movq	%rsp, %rbp
	.cfi_def_cfa_register %rbp
	movq	%rdi, -8(%rbp)
	movq	-8(%rbp), %rax
	movl	$0, 12(%rax)
	movl	$0, 8(%rax)
	popq	%rbp
	.cfi_def_cfa %rsp, 8
	retq
.Lfunc_end43:
	.size	_ZN5clang18DiagnosticConsumer5clearEv, .Lfunc_end43-_ZN5clang18DiagnosticConsumer5clearEv
	.cfi_endproc
                                        # -- End function
	.section	.text._ZN5clang18DiagnosticConsumer15BeginSourceFileERKNS_11LangOptionsEPKNS_12PreprocessorE,"axG",@progbits,_ZN5clang18DiagnosticConsumer15BeginSourceFileERKNS_11LangOptionsEPKNS_12PreprocessorE,comdat
	.weak	_ZN5clang18DiagnosticConsumer15BeginSourceFileERKNS_11LangOptionsEPKNS_12PreprocessorE # -- Begin function _ZN5clang18DiagnosticConsumer15BeginSourceFileERKNS_11LangOptionsEPKNS_12PreprocessorE
	.p2align	4
	.type	_ZN5clang18DiagnosticConsumer15BeginSourceFileERKNS_11LangOptionsEPKNS_12PreprocessorE,@function
_ZN5clang18DiagnosticConsumer15BeginSourceFileERKNS_11LangOptionsEPKNS_12PreprocessorE: # @_ZN5clang18DiagnosticConsumer15BeginSourceFileERKNS_11LangOptionsEPKNS_12PreprocessorE
	.cfi_startproc
# %bb.0:
	pushq	%rbp
	.cfi_def_cfa_offset 16
	.cfi_offset %rbp, -16
	movq	%rsp, %rbp
	.cfi_def_cfa_register %rbp
	movq	%rdi, -8(%rbp)
	movq	%rsi, -16(%rbp)
	movq	%rdx, -24(%rbp)
	popq	%rbp
	.cfi_def_cfa %rsp, 8
	retq
.Lfunc_end44:
	.size	_ZN5clang18DiagnosticConsumer15BeginSourceFileERKNS_11LangOptionsEPKNS_12PreprocessorE, .Lfunc_end44-_ZN5clang18DiagnosticConsumer15BeginSourceFileERKNS_11LangOptionsEPKNS_12PreprocessorE
	.cfi_endproc
                                        # -- End function
	.section	.text._ZN5clang18DiagnosticConsumer13EndSourceFileEv,"axG",@progbits,_ZN5clang18DiagnosticConsumer13EndSourceFileEv,comdat
	.weak	_ZN5clang18DiagnosticConsumer13EndSourceFileEv # -- Begin function _ZN5clang18DiagnosticConsumer13EndSourceFileEv
	.p2align	4
	.type	_ZN5clang18DiagnosticConsumer13EndSourceFileEv,@function
_ZN5clang18DiagnosticConsumer13EndSourceFileEv: # @_ZN5clang18DiagnosticConsumer13EndSourceFileEv
	.cfi_startproc
# %bb.0:
	pushq	%rbp
	.cfi_def_cfa_offset 16
	.cfi_offset %rbp, -16
	movq	%rsp, %rbp
	.cfi_def_cfa_register %rbp
	movq	%rdi, -8(%rbp)
	popq	%rbp
	.cfi_def_cfa %rsp, 8
	retq
.Lfunc_end45:
	.size	_ZN5clang18DiagnosticConsumer13EndSourceFileEv, .Lfunc_end45-_ZN5clang18DiagnosticConsumer13EndSourceFileEv
	.cfi_endproc
                                        # -- End function
	.section	.text._ZN5clang18DiagnosticConsumer6finishEv,"axG",@progbits,_ZN5clang18DiagnosticConsumer6finishEv,comdat
	.weak	_ZN5clang18DiagnosticConsumer6finishEv # -- Begin function _ZN5clang18DiagnosticConsumer6finishEv
	.p2align	4
	.type	_ZN5clang18DiagnosticConsumer6finishEv,@function
_ZN5clang18DiagnosticConsumer6finishEv: # @_ZN5clang18DiagnosticConsumer6finishEv
	.cfi_startproc
# %bb.0:
	pushq	%rbp
	.cfi_def_cfa_offset 16
	.cfi_offset %rbp, -16
	movq	%rsp, %rbp
	.cfi_def_cfa_register %rbp
	movq	%rdi, -8(%rbp)
	popq	%rbp
	.cfi_def_cfa %rsp, 8
	retq
.Lfunc_end46:
	.size	_ZN5clang18DiagnosticConsumer6finishEv, .Lfunc_end46-_ZN5clang18DiagnosticConsumer6finishEv
	.cfi_endproc
                                        # -- End function
	.section	.text._ZNSt11char_traitsIcE6lengthEPKc,"axG",@progbits,_ZNSt11char_traitsIcE6lengthEPKc,comdat
	.weak	_ZNSt11char_traitsIcE6lengthEPKc # -- Begin function _ZNSt11char_traitsIcE6lengthEPKc
	.p2align	4
	.type	_ZNSt11char_traitsIcE6lengthEPKc,@function
_ZNSt11char_traitsIcE6lengthEPKc:       # @_ZNSt11char_traitsIcE6lengthEPKc
	.cfi_startproc
# %bb.0:
	pushq	%rbp
	.cfi_def_cfa_offset 16
	.cfi_offset %rbp, -16
	movq	%rsp, %rbp
	.cfi_def_cfa_register %rbp
	subq	$16, %rsp
	movq	%rdi, -8(%rbp)
	movq	-8(%rbp), %rdi
	callq	strlen@PLT
	addq	$16, %rsp
	popq	%rbp
	.cfi_def_cfa %rsp, 8
	retq
.Lfunc_end47:
	.size	_ZNSt11char_traitsIcE6lengthEPKc, .Lfunc_end47-_ZNSt11char_traitsIcE6lengthEPKc
	.cfi_endproc
                                        # -- End function
	.section	.text._ZNK5clang17DiagnosticsEngine16getSourceManagerEv,"axG",@progbits,_ZNK5clang17DiagnosticsEngine16getSourceManagerEv,comdat
	.weak	_ZNK5clang17DiagnosticsEngine16getSourceManagerEv # -- Begin function _ZNK5clang17DiagnosticsEngine16getSourceManagerEv
	.p2align	4
	.type	_ZNK5clang17DiagnosticsEngine16getSourceManagerEv,@function
_ZNK5clang17DiagnosticsEngine16getSourceManagerEv: # @_ZNK5clang17DiagnosticsEngine16getSourceManagerEv
	.cfi_startproc
# %bb.0:
	pushq	%rbp
	.cfi_def_cfa_offset 16
	.cfi_offset %rbp, -16
	movq	%rsp, %rbp
	.cfi_def_cfa_register %rbp
	subq	$32, %rsp
	movq	%rdi, -8(%rbp)
	movq	-8(%rbp), %rcx
	movq	%rcx, -24(%rbp)                 # 8-byte Spill
	xorl	%eax, %eax
                                        # kill: def $al killed $al killed $eax
	cmpq	$0, 64(%rcx)
	movb	%al, -9(%rbp)                   # 1-byte Spill
	je	.LBB48_2
# %bb.1:
	movb	$1, %al
	movb	%al, -9(%rbp)                   # 1-byte Spill
	jmp	.LBB48_2
.LBB48_2:
	movb	-9(%rbp), %al                   # 1-byte Reload
	testb	$1, %al
	jne	.LBB48_3
	jmp	.LBB48_4
.LBB48_3:
	jmp	.LBB48_5
.LBB48_4:
	leaq	.L.str.27(%rip), %rdi
	leaq	.L.str.28(%rip), %rsi
	movl	$610, %edx                      # imm = 0x262
	leaq	.L__PRETTY_FUNCTION__._ZNK5clang17DiagnosticsEngine16getSourceManagerEv(%rip), %rcx
	callq	__assert_fail@PLT
.LBB48_5:
	movq	-24(%rbp), %rax                 # 8-byte Reload
	movq	64(%rax), %rax
	addq	$32, %rsp
	popq	%rbp
	.cfi_def_cfa %rsp, 8
	retq
.Lfunc_end48:
	.size	_ZNK5clang17DiagnosticsEngine16getSourceManagerEv, .Lfunc_end48-_ZNK5clang17DiagnosticsEngine16getSourceManagerEv
	.cfi_endproc
                                        # -- End function
	.section	.text._ZNK5clang14SourceLocation8isFileIDEv,"axG",@progbits,_ZNK5clang14SourceLocation8isFileIDEv,comdat
	.weak	_ZNK5clang14SourceLocation8isFileIDEv # -- Begin function _ZNK5clang14SourceLocation8isFileIDEv
	.p2align	4
	.type	_ZNK5clang14SourceLocation8isFileIDEv,@function
_ZNK5clang14SourceLocation8isFileIDEv:  # @_ZNK5clang14SourceLocation8isFileIDEv
	.cfi_startproc
# %bb.0:
	pushq	%rbp
	.cfi_def_cfa_offset 16
	.cfi_offset %rbp, -16
	movq	%rsp, %rbp
	.cfi_def_cfa_register %rbp
	movq	%rdi, -8(%rbp)
	movq	-8(%rbp), %rax
	movl	(%rax), %eax
	andl	$-2147483648, %eax              # imm = 0x80000000
	cmpl	$0, %eax
	sete	%al
	andb	$1, %al
	popq	%rbp
	.cfi_def_cfa %rsp, 8
	retq
.Lfunc_end49:
	.size	_ZNK5clang14SourceLocation8isFileIDEv, .Lfunc_end49-_ZNK5clang14SourceLocation8isFileIDEv
	.cfi_endproc
                                        # -- End function
	.section	.text._ZNK5clang11PresumedLoc7isValidEv,"axG",@progbits,_ZNK5clang11PresumedLoc7isValidEv,comdat
	.weak	_ZNK5clang11PresumedLoc7isValidEv # -- Begin function _ZNK5clang11PresumedLoc7isValidEv
	.p2align	4
	.type	_ZNK5clang11PresumedLoc7isValidEv,@function
_ZNK5clang11PresumedLoc7isValidEv:      # @_ZNK5clang11PresumedLoc7isValidEv
	.cfi_startproc
# %bb.0:
	pushq	%rbp
	.cfi_def_cfa_offset 16
	.cfi_offset %rbp, -16
	movq	%rsp, %rbp
	.cfi_def_cfa_register %rbp
	movq	%rdi, -8(%rbp)
	movq	-8(%rbp), %rax
	cmpq	$0, (%rax)
	setne	%al
	andb	$1, %al
	popq	%rbp
	.cfi_def_cfa %rsp, 8
	retq
.Lfunc_end50:
	.size	_ZNK5clang11PresumedLoc7isValidEv, .Lfunc_end50-_ZNK5clang11PresumedLoc7isValidEv
	.cfi_endproc
                                        # -- End function
	.section	.text._ZN4llvm11SmallVectorIcLj100EEC2Ev,"axG",@progbits,_ZN4llvm11SmallVectorIcLj100EEC2Ev,comdat
	.weak	_ZN4llvm11SmallVectorIcLj100EEC2Ev # -- Begin function _ZN4llvm11SmallVectorIcLj100EEC2Ev
	.p2align	4
	.type	_ZN4llvm11SmallVectorIcLj100EEC2Ev,@function
_ZN4llvm11SmallVectorIcLj100EEC2Ev:     # @_ZN4llvm11SmallVectorIcLj100EEC2Ev
	.cfi_startproc
# %bb.0:
	pushq	%rbp
	.cfi_def_cfa_offset 16
	.cfi_offset %rbp, -16
	movq	%rsp, %rbp
	.cfi_def_cfa_register %rbp
	subq	$16, %rsp
	movq	%rdi, -8(%rbp)
	movq	-8(%rbp), %rdi
	movl	$100, %esi
	callq	_ZN4llvm15SmallVectorImplIcEC2Ej
	addq	$16, %rsp
	popq	%rbp
	.cfi_def_cfa %rsp, 8
	retq
.Lfunc_end51:
	.size	_ZN4llvm11SmallVectorIcLj100EEC2Ev, .Lfunc_end51-_ZN4llvm11SmallVectorIcLj100EEC2Ev
	.cfi_endproc
                                        # -- End function
	.section	.text._ZN4llvm15SmallVectorImplIcEC2Ej,"axG",@progbits,_ZN4llvm15SmallVectorImplIcEC2Ej,comdat
	.weak	_ZN4llvm15SmallVectorImplIcEC2Ej # -- Begin function _ZN4llvm15SmallVectorImplIcEC2Ej
	.p2align	4
	.type	_ZN4llvm15SmallVectorImplIcEC2Ej,@function
_ZN4llvm15SmallVectorImplIcEC2Ej:       # @_ZN4llvm15SmallVectorImplIcEC2Ej
	.cfi_startproc
# %bb.0:
	pushq	%rbp
	.cfi_def_cfa_offset 16
	.cfi_offset %rbp, -16
	movq	%rsp, %rbp
	.cfi_def_cfa_register %rbp
	subq	$16, %rsp
	movq	%rdi, -8(%rbp)
	movl	%esi, -12(%rbp)
	movq	-8(%rbp), %rdi
	movl	-12(%rbp), %eax
	movl	%eax, %esi
	callq	_ZN4llvm23SmallVectorTemplateBaseIcLb1EEC2Em
	addq	$16, %rsp
	popq	%rbp
	.cfi_def_cfa %rsp, 8
	retq
.Lfunc_end52:
	.size	_ZN4llvm15SmallVectorImplIcEC2Ej, .Lfunc_end52-_ZN4llvm15SmallVectorImplIcEC2Ej
	.cfi_endproc
                                        # -- End function
	.section	.text._ZN4llvm23SmallVectorTemplateBaseIcLb1EEC2Em,"axG",@progbits,_ZN4llvm23SmallVectorTemplateBaseIcLb1EEC2Em,comdat
	.weak	_ZN4llvm23SmallVectorTemplateBaseIcLb1EEC2Em # -- Begin function _ZN4llvm23SmallVectorTemplateBaseIcLb1EEC2Em
	.p2align	4
	.type	_ZN4llvm23SmallVectorTemplateBaseIcLb1EEC2Em,@function
_ZN4llvm23SmallVectorTemplateBaseIcLb1EEC2Em: # @_ZN4llvm23SmallVectorTemplateBaseIcLb1EEC2Em
	.cfi_startproc
# %bb.0:
	pushq	%rbp
	.cfi_def_cfa_offset 16
	.cfi_offset %rbp, -16
	movq	%rsp, %rbp
	.cfi_def_cfa_register %rbp
	subq	$16, %rsp
	movq	%rdi, -8(%rbp)
	movq	%rsi, -16(%rbp)
	movq	-8(%rbp), %rdi
	movq	-16(%rbp), %rsi
	callq	_ZN4llvm25SmallVectorTemplateCommonIcvEC2Em
	addq	$16, %rsp
	popq	%rbp
	.cfi_def_cfa %rsp, 8
	retq
.Lfunc_end53:
	.size	_ZN4llvm23SmallVectorTemplateBaseIcLb1EEC2Em, .Lfunc_end53-_ZN4llvm23SmallVectorTemplateBaseIcLb1EEC2Em
	.cfi_endproc
                                        # -- End function
	.section	.text._ZN4llvm25SmallVectorTemplateCommonIcvEC2Em,"axG",@progbits,_ZN4llvm25SmallVectorTemplateCommonIcvEC2Em,comdat
	.weak	_ZN4llvm25SmallVectorTemplateCommonIcvEC2Em # -- Begin function _ZN4llvm25SmallVectorTemplateCommonIcvEC2Em
	.p2align	4
	.type	_ZN4llvm25SmallVectorTemplateCommonIcvEC2Em,@function
_ZN4llvm25SmallVectorTemplateCommonIcvEC2Em: # @_ZN4llvm25SmallVectorTemplateCommonIcvEC2Em
	.cfi_startproc
# %bb.0:
	pushq	%rbp
	.cfi_def_cfa_offset 16
	.cfi_offset %rbp, -16
	movq	%rsp, %rbp
	.cfi_def_cfa_register %rbp
	subq	$32, %rsp
	movq	%rdi, -8(%rbp)
	movq	%rsi, -16(%rbp)
	movq	-8(%rbp), %rdi
	movq	%rdi, -24(%rbp)                 # 8-byte Spill
	callq	_ZNK4llvm25SmallVectorTemplateCommonIcvE10getFirstElEv
	movq	-24(%rbp), %rdi                 # 8-byte Reload
	movq	%rax, %rsi
	movq	-16(%rbp), %rdx
	callq	_ZN4llvm15SmallVectorBaseImEC2EPvm@PLT
	addq	$32, %rsp
	popq	%rbp
	.cfi_def_cfa %rsp, 8
	retq
.Lfunc_end54:
	.size	_ZN4llvm25SmallVectorTemplateCommonIcvEC2Em, .Lfunc_end54-_ZN4llvm25SmallVectorTemplateCommonIcvEC2Em
	.cfi_endproc
                                        # -- End function
	.section	.text._ZNK4llvm25SmallVectorTemplateCommonIcvE10getFirstElEv,"axG",@progbits,_ZNK4llvm25SmallVectorTemplateCommonIcvE10getFirstElEv,comdat
	.weak	_ZNK4llvm25SmallVectorTemplateCommonIcvE10getFirstElEv # -- Begin function _ZNK4llvm25SmallVectorTemplateCommonIcvE10getFirstElEv
	.p2align	4
	.type	_ZNK4llvm25SmallVectorTemplateCommonIcvE10getFirstElEv,@function
_ZNK4llvm25SmallVectorTemplateCommonIcvE10getFirstElEv: # @_ZNK4llvm25SmallVectorTemplateCommonIcvE10getFirstElEv
	.cfi_startproc
# %bb.0:
	pushq	%rbp
	.cfi_def_cfa_offset 16
	.cfi_offset %rbp, -16
	movq	%rsp, %rbp
	.cfi_def_cfa_register %rbp
	movq	%rdi, -8(%rbp)
	movq	-8(%rbp), %rax
	addq	$24, %rax
	popq	%rbp
	.cfi_def_cfa %rsp, 8
	retq
.Lfunc_end55:
	.size	_ZNK4llvm25SmallVectorTemplateCommonIcvE10getFirstElEv, .Lfunc_end55-_ZNK4llvm25SmallVectorTemplateCommonIcvE10getFirstElEv
	.cfi_endproc
                                        # -- End function
	.section	.text._ZNK4llvm9StringRef4sizeEv,"axG",@progbits,_ZNK4llvm9StringRef4sizeEv,comdat
	.weak	_ZNK4llvm9StringRef4sizeEv      # -- Begin function _ZNK4llvm9StringRef4sizeEv
	.p2align	4
	.type	_ZNK4llvm9StringRef4sizeEv,@function
_ZNK4llvm9StringRef4sizeEv:             # @_ZNK4llvm9StringRef4sizeEv
	.cfi_startproc
# %bb.0:
	pushq	%rbp
	.cfi_def_cfa_offset 16
	.cfi_offset %rbp, -16
	movq	%rsp, %rbp
	.cfi_def_cfa_register %rbp
	movq	%rdi, -8(%rbp)
	movq	-8(%rbp), %rax
	movq	8(%rax), %rax
	popq	%rbp
	.cfi_def_cfa %rsp, 8
	retq
.Lfunc_end56:
	.size	_ZNK4llvm9StringRef4sizeEv, .Lfunc_end56-_ZNK4llvm9StringRef4sizeEv
	.cfi_endproc
                                        # -- End function
	.section	.text._ZNK4llvm9StringRef4dataEv,"axG",@progbits,_ZNK4llvm9StringRef4dataEv,comdat
	.weak	_ZNK4llvm9StringRef4dataEv      # -- Begin function _ZNK4llvm9StringRef4dataEv
	.p2align	4
	.type	_ZNK4llvm9StringRef4dataEv,@function
_ZNK4llvm9StringRef4dataEv:             # @_ZNK4llvm9StringRef4dataEv
	.cfi_startproc
# %bb.0:
	pushq	%rbp
	.cfi_def_cfa_offset 16
	.cfi_offset %rbp, -16
	movq	%rsp, %rbp
	.cfi_def_cfa_register %rbp
	movq	%rdi, -8(%rbp)
	movq	-8(%rbp), %rax
	movq	(%rax), %rax
	popq	%rbp
	.cfi_def_cfa %rsp, 8
	retq
.Lfunc_end57:
	.size	_ZNK4llvm9StringRef4dataEv, .Lfunc_end57-_ZNK4llvm9StringRef4dataEv
	.cfi_endproc
                                        # -- End function
	.section	.text._ZN5clang13FullSourceLocC2Ev,"axG",@progbits,_ZN5clang13FullSourceLocC2Ev,comdat
	.weak	_ZN5clang13FullSourceLocC2Ev    # -- Begin function _ZN5clang13FullSourceLocC2Ev
	.p2align	4
	.type	_ZN5clang13FullSourceLocC2Ev,@function
_ZN5clang13FullSourceLocC2Ev:           # @_ZN5clang13FullSourceLocC2Ev
	.cfi_startproc
# %bb.0:
	pushq	%rbp
	.cfi_def_cfa_offset 16
	.cfi_offset %rbp, -16
	movq	%rsp, %rbp
	.cfi_def_cfa_register %rbp
	subq	$16, %rsp
	movq	%rdi, -8(%rbp)
	movq	-8(%rbp), %rdi
	movq	%rdi, -16(%rbp)                 # 8-byte Spill
	callq	_ZN5clang14SourceLocationC2Ev
	movq	-16(%rbp), %rax                 # 8-byte Reload
	movq	$0, 8(%rax)
	addq	$16, %rsp
	popq	%rbp
	.cfi_def_cfa %rsp, 8
	retq
.Lfunc_end58:
	.size	_ZN5clang13FullSourceLocC2Ev, .Lfunc_end58-_ZN5clang13FullSourceLocC2Ev
	.cfi_endproc
                                        # -- End function
	.section	.text._ZNSt7__cxx1112basic_stringIcSt11char_traitsIcESaIcEEC2Ev,"axG",@progbits,_ZNSt7__cxx1112basic_stringIcSt11char_traitsIcESaIcEEC2Ev,comdat
	.weak	_ZNSt7__cxx1112basic_stringIcSt11char_traitsIcESaIcEEC2Ev # -- Begin function _ZNSt7__cxx1112basic_stringIcSt11char_traitsIcESaIcEEC2Ev
	.p2align	4
	.type	_ZNSt7__cxx1112basic_stringIcSt11char_traitsIcESaIcEEC2Ev,@function
_ZNSt7__cxx1112basic_stringIcSt11char_traitsIcESaIcEEC2Ev: # @_ZNSt7__cxx1112basic_stringIcSt11char_traitsIcESaIcEEC2Ev
.Lfunc_begin10:
	.cfi_startproc
	.cfi_personality 155, DW.ref.__gxx_personality_v0
	.cfi_lsda 27, .Lexception10
# %bb.0:
	pushq	%rbp
	.cfi_def_cfa_offset 16
	.cfi_offset %rbp, -16
	movq	%rsp, %rbp
	.cfi_def_cfa_register %rbp
	subq	$80, %rsp
	movq	%fs:40, %rax
	movq	%rax, -8(%rbp)
	movq	%rdi, -56(%rbp)
	movq	-56(%rbp), %rdi
	movq	%rdi, -80(%rbp)                 # 8-byte Spill
	movq	%rdi, %rax
	movq	%rax, -72(%rbp)                 # 8-byte Spill
.Ltmp193:
	callq	_ZNSt7__cxx1112basic_stringIcSt11char_traitsIcESaIcEE13_M_local_dataEv
.Ltmp194:
	movq	%rax, -64(%rbp)                 # 8-byte Spill
	jmp	.LBB59_1
.LBB59_1:
	movq	-64(%rbp), %rsi                 # 8-byte Reload
	movq	-80(%rbp), %rdi                 # 8-byte Reload
	leaq	-9(%rbp), %rdx
	movq	%rdx, -48(%rbp)
	movq	-48(%rbp), %rax
	movq	%rax, -24(%rbp)
.Ltmp195:
	callq	_ZNSt7__cxx1112basic_stringIcSt11char_traitsIcESaIcEE12_Alloc_hiderC2EPcOS3_
.Ltmp196:
	jmp	.LBB59_2
.LBB59_2:
	leaq	-9(%rbp), %rax
	movq	%rax, -40(%rbp)
	movq	-40(%rbp), %rdi
	callq	_ZNSt15__new_allocatorIcED2Ev
	movq	-72(%rbp), %rdi                 # 8-byte Reload
	movq	%rdi, -32(%rbp)
.Ltmp197:
	xorl	%eax, %eax
	movl	%eax, %esi
	callq	_ZNSt7__cxx1112basic_stringIcSt11char_traitsIcESaIcEE13_M_set_lengthEm
.Ltmp198:
	jmp	.LBB59_3
.LBB59_3:
	movq	%fs:40, %rax
	movq	-8(%rbp), %rcx
	cmpq	%rcx, %rax
	jne	.LBB59_6
# %bb.4:
	addq	$80, %rsp
	popq	%rbp
	.cfi_def_cfa %rsp, 8
	retq
.LBB59_5:
	.cfi_def_cfa %rbp, 16
.Ltmp199:
	movq	%rax, %rdi
                                        # kill: def $eax killed $edx killed $rdx
	callq	__clang_call_terminate
.LBB59_6:
	callq	__stack_chk_fail@PLT
.Lfunc_end59:
	.size	_ZNSt7__cxx1112basic_stringIcSt11char_traitsIcESaIcEEC2Ev, .Lfunc_end59-_ZNSt7__cxx1112basic_stringIcSt11char_traitsIcESaIcEEC2Ev
	.cfi_endproc
	.section	.gcc_except_table._ZNSt7__cxx1112basic_stringIcSt11char_traitsIcESaIcEEC2Ev,"aG",@progbits,_ZNSt7__cxx1112basic_stringIcSt11char_traitsIcESaIcEEC2Ev,comdat
	.p2align	2, 0x0
GCC_except_table59:
.Lexception10:
	.byte	255                             # @LPStart Encoding = omit
	.byte	155                             # @TType Encoding = indirect pcrel sdata4
	.uleb128 .Lttbase3-.Lttbaseref3
.Lttbaseref3:
	.byte	1                               # Call site Encoding = uleb128
	.uleb128 .Lcst_end10-.Lcst_begin10
.Lcst_begin10:
	.uleb128 .Ltmp193-.Lfunc_begin10        # >> Call Site 1 <<
	.uleb128 .Ltmp198-.Ltmp193              #   Call between .Ltmp193 and .Ltmp198
	.uleb128 .Ltmp199-.Lfunc_begin10        #     jumps to .Ltmp199
	.byte	1                               #   On action: 1
	.uleb128 .Ltmp198-.Lfunc_begin10        # >> Call Site 2 <<
	.uleb128 .Lfunc_end59-.Ltmp198          #   Call between .Ltmp198 and .Lfunc_end59
	.byte	0                               #     has no landing pad
	.byte	0                               #   On action: cleanup
.Lcst_end10:
	.byte	1                               # >> Action Record 1 <<
                                        #   Catch TypeInfo 1
	.byte	0                               #   No further actions
	.p2align	2, 0x0
                                        # >> Catch TypeInfos <<
	.long	0                               # TypeInfo 1
.Lttbase3:
	.p2align	2, 0x0
                                        # -- End function
	.section	.text._ZN5clang14SourceLocationC2Ev,"axG",@progbits,_ZN5clang14SourceLocationC2Ev,comdat
	.weak	_ZN5clang14SourceLocationC2Ev   # -- Begin function _ZN5clang14SourceLocationC2Ev
	.p2align	4
	.type	_ZN5clang14SourceLocationC2Ev,@function
_ZN5clang14SourceLocationC2Ev:          # @_ZN5clang14SourceLocationC2Ev
	.cfi_startproc
# %bb.0:
	pushq	%rbp
	.cfi_def_cfa_offset 16
	.cfi_offset %rbp, -16
	movq	%rsp, %rbp
	.cfi_def_cfa_register %rbp
	movq	%rdi, -8(%rbp)
	movq	-8(%rbp), %rax
	movl	$0, (%rax)
	popq	%rbp
	.cfi_def_cfa %rsp, 8
	retq
.Lfunc_end60:
	.size	_ZN5clang14SourceLocationC2Ev, .Lfunc_end60-_ZN5clang14SourceLocationC2Ev
	.cfi_endproc
                                        # -- End function
	.section	.text._ZNSt7__cxx1112basic_stringIcSt11char_traitsIcESaIcEE13_M_local_dataEv,"axG",@progbits,_ZNSt7__cxx1112basic_stringIcSt11char_traitsIcESaIcEE13_M_local_dataEv,comdat
	.weak	_ZNSt7__cxx1112basic_stringIcSt11char_traitsIcESaIcEE13_M_local_dataEv # -- Begin function _ZNSt7__cxx1112basic_stringIcSt11char_traitsIcESaIcEE13_M_local_dataEv
	.p2align	4
	.type	_ZNSt7__cxx1112basic_stringIcSt11char_traitsIcESaIcEE13_M_local_dataEv,@function
_ZNSt7__cxx1112basic_stringIcSt11char_traitsIcESaIcEE13_M_local_dataEv: # @_ZNSt7__cxx1112basic_stringIcSt11char_traitsIcESaIcEE13_M_local_dataEv
	.cfi_startproc
# %bb.0:
	pushq	%rbp
	.cfi_def_cfa_offset 16
	.cfi_offset %rbp, -16
	movq	%rsp, %rbp
	.cfi_def_cfa_register %rbp
	subq	$16, %rsp
	movq	%rdi, -8(%rbp)
	movq	-8(%rbp), %rdi
	addq	$16, %rdi
	callq	_ZNSt19__ptr_traits_ptr_toIPccLb0EE10pointer_toERc
	addq	$16, %rsp
	popq	%rbp
	.cfi_def_cfa %rsp, 8
	retq
.Lfunc_end61:
	.size	_ZNSt7__cxx1112basic_stringIcSt11char_traitsIcESaIcEE13_M_local_dataEv, .Lfunc_end61-_ZNSt7__cxx1112basic_stringIcSt11char_traitsIcESaIcEE13_M_local_dataEv
	.cfi_endproc
                                        # -- End function
	.section	.text.__clang_call_terminate,"axG",@progbits,__clang_call_terminate,comdat
	.hidden	__clang_call_terminate          # -- Begin function __clang_call_terminate
	.weak	__clang_call_terminate
	.p2align	4
	.type	__clang_call_terminate,@function
__clang_call_terminate:                 # @__clang_call_terminate
	.cfi_startproc
# %bb.0:
	pushq	%rbp
	.cfi_def_cfa_offset 16
	.cfi_offset %rbp, -16
	movq	%rsp, %rbp
	.cfi_def_cfa_register %rbp
	callq	__cxa_begin_catch@PLT
	callq	_ZSt9terminatev@PLT
.Lfunc_end62:
	.size	__clang_call_terminate, .Lfunc_end62-__clang_call_terminate
	.cfi_endproc
                                        # -- End function
	.section	.text._ZNSt7__cxx1112basic_stringIcSt11char_traitsIcESaIcEE12_Alloc_hiderC2EPcOS3_,"axG",@progbits,_ZNSt7__cxx1112basic_stringIcSt11char_traitsIcESaIcEE12_Alloc_hiderC2EPcOS3_,comdat
	.weak	_ZNSt7__cxx1112basic_stringIcSt11char_traitsIcESaIcEE12_Alloc_hiderC2EPcOS3_ # -- Begin function _ZNSt7__cxx1112basic_stringIcSt11char_traitsIcESaIcEE12_Alloc_hiderC2EPcOS3_
	.p2align	4
	.type	_ZNSt7__cxx1112basic_stringIcSt11char_traitsIcESaIcEE12_Alloc_hiderC2EPcOS3_,@function
_ZNSt7__cxx1112basic_stringIcSt11char_traitsIcESaIcEE12_Alloc_hiderC2EPcOS3_: # @_ZNSt7__cxx1112basic_stringIcSt11char_traitsIcESaIcEE12_Alloc_hiderC2EPcOS3_
	.cfi_startproc
# %bb.0:
	pushq	%rbp
	.cfi_def_cfa_offset 16
	.cfi_offset %rbp, -16
	movq	%rsp, %rbp
	.cfi_def_cfa_register %rbp
	movq	%rdi, -40(%rbp)
	movq	%rsi, -48(%rbp)
	movq	%rdx, -56(%rbp)
	movq	-40(%rbp), %rax
	movq	-56(%rbp), %rcx
	movq	%rax, -24(%rbp)
	movq	%rcx, -32(%rbp)
	movq	-24(%rbp), %rdx
	movq	-32(%rbp), %rcx
	movq	%rdx, -8(%rbp)
	movq	%rcx, -16(%rbp)
	movq	-48(%rbp), %rcx
	movq	%rcx, (%rax)
	popq	%rbp
	.cfi_def_cfa %rsp, 8
	retq
.Lfunc_end63:
	.size	_ZNSt7__cxx1112basic_stringIcSt11char_traitsIcESaIcEE12_Alloc_hiderC2EPcOS3_, .Lfunc_end63-_ZNSt7__cxx1112basic_stringIcSt11char_traitsIcESaIcEE12_Alloc_hiderC2EPcOS3_
	.cfi_endproc
                                        # -- End function
	.section	.text._ZNSt7__cxx1112basic_stringIcSt11char_traitsIcESaIcEE13_M_set_lengthEm,"axG",@progbits,_ZNSt7__cxx1112basic_stringIcSt11char_traitsIcESaIcEE13_M_set_lengthEm,comdat
	.weak	_ZNSt7__cxx1112basic_stringIcSt11char_traitsIcESaIcEE13_M_set_lengthEm # -- Begin function _ZNSt7__cxx1112basic_stringIcSt11char_traitsIcESaIcEE13_M_set_lengthEm
	.p2align	4
	.type	_ZNSt7__cxx1112basic_stringIcSt11char_traitsIcESaIcEE13_M_set_lengthEm,@function
_ZNSt7__cxx1112basic_stringIcSt11char_traitsIcESaIcEE13_M_set_lengthEm: # @_ZNSt7__cxx1112basic_stringIcSt11char_traitsIcESaIcEE13_M_set_lengthEm
	.cfi_startproc
# %bb.0:
	pushq	%rbp
	.cfi_def_cfa_offset 16
	.cfi_offset %rbp, -16
	movq	%rsp, %rbp
	.cfi_def_cfa_register %rbp
	subq	$48, %rsp
	movq	%fs:40, %rax
	movq	%rax, -8(%rbp)
	movq	%rdi, -24(%rbp)
	movq	%rsi, -32(%rbp)
	movq	-24(%rbp), %rdi
	movq	%rdi, -40(%rbp)                 # 8-byte Spill
	movq	-32(%rbp), %rsi
	callq	_ZNSt7__cxx1112basic_stringIcSt11char_traitsIcESaIcEE9_M_lengthEm
	movq	-40(%rbp), %rdi                 # 8-byte Reload
	callq	_ZNKSt7__cxx1112basic_stringIcSt11char_traitsIcESaIcEE7_M_dataEv
	movq	%rax, %rdi
	movq	-32(%rbp), %rax
	addq	%rax, %rdi
	movb	$0, -9(%rbp)
	leaq	-9(%rbp), %rsi
	callq	_ZNSt11char_traitsIcE6assignERcRKc
	movq	%fs:40, %rax
	movq	-8(%rbp), %rcx
	cmpq	%rcx, %rax
	jne	.LBB64_2
# %bb.1:
	addq	$48, %rsp
	popq	%rbp
	.cfi_def_cfa %rsp, 8
	retq
.LBB64_2:
	.cfi_def_cfa %rbp, 16
	callq	__stack_chk_fail@PLT
.Lfunc_end64:
	.size	_ZNSt7__cxx1112basic_stringIcSt11char_traitsIcESaIcEE13_M_set_lengthEm, .Lfunc_end64-_ZNSt7__cxx1112basic_stringIcSt11char_traitsIcESaIcEE13_M_set_lengthEm
	.cfi_endproc
                                        # -- End function
	.section	.text._ZNSt19__ptr_traits_ptr_toIPccLb0EE10pointer_toERc,"axG",@progbits,_ZNSt19__ptr_traits_ptr_toIPccLb0EE10pointer_toERc,comdat
	.weak	_ZNSt19__ptr_traits_ptr_toIPccLb0EE10pointer_toERc # -- Begin function _ZNSt19__ptr_traits_ptr_toIPccLb0EE10pointer_toERc
	.p2align	4
	.type	_ZNSt19__ptr_traits_ptr_toIPccLb0EE10pointer_toERc,@function
_ZNSt19__ptr_traits_ptr_toIPccLb0EE10pointer_toERc: # @_ZNSt19__ptr_traits_ptr_toIPccLb0EE10pointer_toERc
	.cfi_startproc
# %bb.0:
	pushq	%rbp
	.cfi_def_cfa_offset 16
	.cfi_offset %rbp, -16
	movq	%rsp, %rbp
	.cfi_def_cfa_register %rbp
	movq	%rdi, -8(%rbp)
	movq	-8(%rbp), %rax
	popq	%rbp
	.cfi_def_cfa %rsp, 8
	retq
.Lfunc_end65:
	.size	_ZNSt19__ptr_traits_ptr_toIPccLb0EE10pointer_toERc, .Lfunc_end65-_ZNSt19__ptr_traits_ptr_toIPccLb0EE10pointer_toERc
	.cfi_endproc
                                        # -- End function
	.section	.text._ZNSt15__new_allocatorIcED2Ev,"axG",@progbits,_ZNSt15__new_allocatorIcED2Ev,comdat
	.weak	_ZNSt15__new_allocatorIcED2Ev   # -- Begin function _ZNSt15__new_allocatorIcED2Ev
	.p2align	4
	.type	_ZNSt15__new_allocatorIcED2Ev,@function
_ZNSt15__new_allocatorIcED2Ev:          # @_ZNSt15__new_allocatorIcED2Ev
	.cfi_startproc
# %bb.0:
	pushq	%rbp
	.cfi_def_cfa_offset 16
	.cfi_offset %rbp, -16
	movq	%rsp, %rbp
	.cfi_def_cfa_register %rbp
	movq	%rdi, -8(%rbp)
	popq	%rbp
	.cfi_def_cfa %rsp, 8
	retq
.Lfunc_end66:
	.size	_ZNSt15__new_allocatorIcED2Ev, .Lfunc_end66-_ZNSt15__new_allocatorIcED2Ev
	.cfi_endproc
                                        # -- End function
	.section	.text._ZNSt7__cxx1112basic_stringIcSt11char_traitsIcESaIcEE9_M_lengthEm,"axG",@progbits,_ZNSt7__cxx1112basic_stringIcSt11char_traitsIcESaIcEE9_M_lengthEm,comdat
	.weak	_ZNSt7__cxx1112basic_stringIcSt11char_traitsIcESaIcEE9_M_lengthEm # -- Begin function _ZNSt7__cxx1112basic_stringIcSt11char_traitsIcESaIcEE9_M_lengthEm
	.p2align	4
	.type	_ZNSt7__cxx1112basic_stringIcSt11char_traitsIcESaIcEE9_M_lengthEm,@function
_ZNSt7__cxx1112basic_stringIcSt11char_traitsIcESaIcEE9_M_lengthEm: # @_ZNSt7__cxx1112basic_stringIcSt11char_traitsIcESaIcEE9_M_lengthEm
	.cfi_startproc
# %bb.0:
	pushq	%rbp
	.cfi_def_cfa_offset 16
	.cfi_offset %rbp, -16
	movq	%rsp, %rbp
	.cfi_def_cfa_register %rbp
	movq	%rdi, -8(%rbp)
	movq	%rsi, -16(%rbp)
	movq	-8(%rbp), %rax
	movq	-16(%rbp), %rcx
	movq	%rcx, 8(%rax)
	popq	%rbp
	.cfi_def_cfa %rsp, 8
	retq
.Lfunc_end67:
	.size	_ZNSt7__cxx1112basic_stringIcSt11char_traitsIcESaIcEE9_M_lengthEm, .Lfunc_end67-_ZNSt7__cxx1112basic_stringIcSt11char_traitsIcESaIcEE9_M_lengthEm
	.cfi_endproc
                                        # -- End function
	.section	.text._ZNSt11char_traitsIcE6assignERcRKc,"axG",@progbits,_ZNSt11char_traitsIcE6assignERcRKc,comdat
	.weak	_ZNSt11char_traitsIcE6assignERcRKc # -- Begin function _ZNSt11char_traitsIcE6assignERcRKc
	.p2align	4
	.type	_ZNSt11char_traitsIcE6assignERcRKc,@function
_ZNSt11char_traitsIcE6assignERcRKc:     # @_ZNSt11char_traitsIcE6assignERcRKc
	.cfi_startproc
# %bb.0:
	pushq	%rbp
	.cfi_def_cfa_offset 16
	.cfi_offset %rbp, -16
	movq	%rsp, %rbp
	.cfi_def_cfa_register %rbp
	movq	%rdi, -8(%rbp)
	movq	%rsi, -16(%rbp)
	movq	-16(%rbp), %rax
	movb	(%rax), %cl
	movq	-8(%rbp), %rax
	movb	%cl, (%rax)
	popq	%rbp
	.cfi_def_cfa %rsp, 8
	retq
.Lfunc_end68:
	.size	_ZNSt11char_traitsIcE6assignERcRKc, .Lfunc_end68-_ZNSt11char_traitsIcE6assignERcRKc
	.cfi_endproc
                                        # -- End function
	.section	.text._ZNKSt7__cxx1112basic_stringIcSt11char_traitsIcESaIcEE7_M_dataEv,"axG",@progbits,_ZNKSt7__cxx1112basic_stringIcSt11char_traitsIcESaIcEE7_M_dataEv,comdat
	.weak	_ZNKSt7__cxx1112basic_stringIcSt11char_traitsIcESaIcEE7_M_dataEv # -- Begin function _ZNKSt7__cxx1112basic_stringIcSt11char_traitsIcESaIcEE7_M_dataEv
	.p2align	4
	.type	_ZNKSt7__cxx1112basic_stringIcSt11char_traitsIcESaIcEE7_M_dataEv,@function
_ZNKSt7__cxx1112basic_stringIcSt11char_traitsIcESaIcEE7_M_dataEv: # @_ZNKSt7__cxx1112basic_stringIcSt11char_traitsIcESaIcEE7_M_dataEv
	.cfi_startproc
# %bb.0:
	pushq	%rbp
	.cfi_def_cfa_offset 16
	.cfi_offset %rbp, -16
	movq	%rsp, %rbp
	.cfi_def_cfa_register %rbp
	movq	%rdi, -8(%rbp)
	movq	-8(%rbp), %rax
	movq	(%rax), %rax
	popq	%rbp
	.cfi_def_cfa %rsp, 8
	retq
.Lfunc_end69:
	.size	_ZNKSt7__cxx1112basic_stringIcSt11char_traitsIcESaIcEE7_M_dataEv, .Lfunc_end69-_ZNKSt7__cxx1112basic_stringIcSt11char_traitsIcESaIcEE7_M_dataEv
	.cfi_endproc
                                        # -- End function
	.section	.text._ZNSt7__cxx1112basic_stringIcSt11char_traitsIcESaIcEEC2EPKcmRKS3_,"axG",@progbits,_ZNSt7__cxx1112basic_stringIcSt11char_traitsIcESaIcEEC2EPKcmRKS3_,comdat
	.weak	_ZNSt7__cxx1112basic_stringIcSt11char_traitsIcESaIcEEC2EPKcmRKS3_ # -- Begin function _ZNSt7__cxx1112basic_stringIcSt11char_traitsIcESaIcEEC2EPKcmRKS3_
	.p2align	4
	.type	_ZNSt7__cxx1112basic_stringIcSt11char_traitsIcESaIcEEC2EPKcmRKS3_,@function
_ZNSt7__cxx1112basic_stringIcSt11char_traitsIcESaIcEEC2EPKcmRKS3_: # @_ZNSt7__cxx1112basic_stringIcSt11char_traitsIcESaIcEEC2EPKcmRKS3_
.Lfunc_begin11:
	.cfi_startproc
	.cfi_personality 155, DW.ref.__gxx_personality_v0
	.cfi_lsda 27, .Lexception11
# %bb.0:
	pushq	%rbp
	.cfi_def_cfa_offset 16
	.cfi_offset %rbp, -16
	movq	%rsp, %rbp
	.cfi_def_cfa_register %rbp
	subq	$64, %rsp
	movq	%rdi, -8(%rbp)
	movq	%rsi, -16(%rbp)
	movq	%rdx, -24(%rbp)
	movq	%rcx, -32(%rbp)
	movq	-8(%rbp), %rdi
	movq	%rdi, -56(%rbp)                 # 8-byte Spill
	callq	_ZNSt7__cxx1112basic_stringIcSt11char_traitsIcESaIcEE13_M_local_dataEv
	movq	-56(%rbp), %rdi                 # 8-byte Reload
	movq	%rax, %rsi
	movq	-32(%rbp), %rdx
	callq	_ZNSt7__cxx1112basic_stringIcSt11char_traitsIcESaIcEE12_Alloc_hiderC2EPcRKS3_
	cmpq	$0, -16(%rbp)
	jne	.LBB70_5
# %bb.1:
	cmpq	$0, -24(%rbp)
	jbe	.LBB70_5
# %bb.2:
.Ltmp202:
	leaq	.L.str.31(%rip), %rdi
	callq	_ZSt19__throw_logic_errorPKc@PLT
.Ltmp203:
	jmp	.LBB70_3
.LBB70_3:
.LBB70_4:
.Ltmp204:
	movq	-56(%rbp), %rdi                 # 8-byte Reload
	movq	%rax, %rcx
	movl	%edx, %eax
	movq	%rcx, -40(%rbp)
	movl	%eax, -44(%rbp)
	callq	_ZNSt7__cxx1112basic_stringIcSt11char_traitsIcESaIcEE12_Alloc_hiderD2Ev
	jmp	.LBB70_7
.LBB70_5:
	movq	-56(%rbp), %rdi                 # 8-byte Reload
	movq	-16(%rbp), %rsi
	movq	-24(%rbp), %rax
	movq	%rsi, %rdx
	addq	%rax, %rdx
.Ltmp200:
	callq	_ZNSt7__cxx1112basic_stringIcSt11char_traitsIcESaIcEE12_M_constructIPKcEEvT_S8_St20forward_iterator_tag
.Ltmp201:
	jmp	.LBB70_6
.LBB70_6:
	addq	$64, %rsp
	popq	%rbp
	.cfi_def_cfa %rsp, 8
	retq
.LBB70_7:
	.cfi_def_cfa %rbp, 16
	movq	-40(%rbp), %rdi
	callq	_Unwind_Resume@PLT
.Lfunc_end70:
	.size	_ZNSt7__cxx1112basic_stringIcSt11char_traitsIcESaIcEEC2EPKcmRKS3_, .Lfunc_end70-_ZNSt7__cxx1112basic_stringIcSt11char_traitsIcESaIcEEC2EPKcmRKS3_
	.cfi_endproc
	.section	.gcc_except_table._ZNSt7__cxx1112basic_stringIcSt11char_traitsIcESaIcEEC2EPKcmRKS3_,"aG",@progbits,_ZNSt7__cxx1112basic_stringIcSt11char_traitsIcESaIcEEC2EPKcmRKS3_,comdat
	.p2align	2, 0x0
GCC_except_table70:
.Lexception11:
	.byte	255                             # @LPStart Encoding = omit
	.byte	255                             # @TType Encoding = omit
	.byte	1                               # Call site Encoding = uleb128
	.uleb128 .Lcst_end11-.Lcst_begin11
.Lcst_begin11:
	.uleb128 .Ltmp202-.Lfunc_begin11        # >> Call Site 1 <<
	.uleb128 .Ltmp201-.Ltmp202              #   Call between .Ltmp202 and .Ltmp201
	.uleb128 .Ltmp204-.Lfunc_begin11        #     jumps to .Ltmp204
	.byte	0                               #   On action: cleanup
	.uleb128 .Ltmp201-.Lfunc_begin11        # >> Call Site 2 <<
	.uleb128 .Lfunc_end70-.Ltmp201          #   Call between .Ltmp201 and .Lfunc_end70
	.byte	0                               #     has no landing pad
	.byte	0                               #   On action: cleanup
.Lcst_end11:
	.p2align	2, 0x0
                                        # -- End function
	.section	.text._ZNSt7__cxx1112basic_stringIcSt11char_traitsIcESaIcEE12_Alloc_hiderC2EPcRKS3_,"axG",@progbits,_ZNSt7__cxx1112basic_stringIcSt11char_traitsIcESaIcEE12_Alloc_hiderC2EPcRKS3_,comdat
	.weak	_ZNSt7__cxx1112basic_stringIcSt11char_traitsIcESaIcEE12_Alloc_hiderC2EPcRKS3_ # -- Begin function _ZNSt7__cxx1112basic_stringIcSt11char_traitsIcESaIcEE12_Alloc_hiderC2EPcRKS3_
	.p2align	4
	.type	_ZNSt7__cxx1112basic_stringIcSt11char_traitsIcESaIcEE12_Alloc_hiderC2EPcRKS3_,@function
_ZNSt7__cxx1112basic_stringIcSt11char_traitsIcESaIcEE12_Alloc_hiderC2EPcRKS3_: # @_ZNSt7__cxx1112basic_stringIcSt11char_traitsIcESaIcEE12_Alloc_hiderC2EPcRKS3_
	.cfi_startproc
# %bb.0:
	pushq	%rbp
	.cfi_def_cfa_offset 16
	.cfi_offset %rbp, -16
	movq	%rsp, %rbp
	.cfi_def_cfa_register %rbp
	movq	%rdi, -40(%rbp)
	movq	%rsi, -48(%rbp)
	movq	%rdx, -56(%rbp)
	movq	-40(%rbp), %rax
	movq	-56(%rbp), %rcx
	movq	%rax, -24(%rbp)
	movq	%rcx, -32(%rbp)
	movq	-24(%rbp), %rdx
	movq	-32(%rbp), %rcx
	movq	%rdx, -8(%rbp)
	movq	%rcx, -16(%rbp)
	movq	-48(%rbp), %rcx
	movq	%rcx, (%rax)
	popq	%rbp
	.cfi_def_cfa %rsp, 8
	retq
.Lfunc_end71:
	.size	_ZNSt7__cxx1112basic_stringIcSt11char_traitsIcESaIcEE12_Alloc_hiderC2EPcRKS3_, .Lfunc_end71-_ZNSt7__cxx1112basic_stringIcSt11char_traitsIcESaIcEE12_Alloc_hiderC2EPcRKS3_
	.cfi_endproc
                                        # -- End function
	.section	.text._ZNSt7__cxx1112basic_stringIcSt11char_traitsIcESaIcEE12_M_constructIPKcEEvT_S8_St20forward_iterator_tag,"axG",@progbits,_ZNSt7__cxx1112basic_stringIcSt11char_traitsIcESaIcEE12_M_constructIPKcEEvT_S8_St20forward_iterator_tag,comdat
	.weak	_ZNSt7__cxx1112basic_stringIcSt11char_traitsIcESaIcEE12_M_constructIPKcEEvT_S8_St20forward_iterator_tag # -- Begin function _ZNSt7__cxx1112basic_stringIcSt11char_traitsIcESaIcEE12_M_constructIPKcEEvT_S8_St20forward_iterator_tag
	.p2align	4
	.type	_ZNSt7__cxx1112basic_stringIcSt11char_traitsIcESaIcEE12_M_constructIPKcEEvT_S8_St20forward_iterator_tag,@function
_ZNSt7__cxx1112basic_stringIcSt11char_traitsIcESaIcEE12_M_constructIPKcEEvT_S8_St20forward_iterator_tag: # @_ZNSt7__cxx1112basic_stringIcSt11char_traitsIcESaIcEE12_M_constructIPKcEEvT_S8_St20forward_iterator_tag
.Lfunc_begin12:
	.cfi_startproc
	.cfi_personality 155, DW.ref.__gxx_personality_v0
	.cfi_lsda 27, .Lexception12
# %bb.0:
	pushq	%rbp
	.cfi_def_cfa_offset 16
	.cfi_offset %rbp, -16
	movq	%rsp, %rbp
	.cfi_def_cfa_register %rbp
	subq	$144, %rsp
	movq	%fs:40, %rax
	movq	%rax, -8(%rbp)
	movq	%rdi, -88(%rbp)
	movq	%rsi, -96(%rbp)
	movq	%rdx, -104(%rbp)
	movq	-88(%rbp), %rax
	movq	%rax, -128(%rbp)                # 8-byte Spill
	movq	-96(%rbp), %rcx
	movq	-104(%rbp), %rax
	movq	%rcx, -16(%rbp)
	movq	%rax, -64(%rbp)
	movq	-16(%rbp), %rcx
	movq	-64(%rbp), %rax
	leaq	-16(%rbp), %rdx
	movq	%rdx, -40(%rbp)
	movq	%rcx, -48(%rbp)
	movq	%rax, -56(%rbp)
	movq	-56(%rbp), %rax
	movq	-48(%rbp), %rcx
	subq	%rcx, %rax
	movq	%rax, -24(%rbp)
	cmpq	$15, -24(%rbp)
	jbe	.LBB72_2
# %bb.1:
	movq	-128(%rbp), %rdi                # 8-byte Reload
	leaq	-24(%rbp), %rsi
	xorl	%eax, %eax
	movl	%eax, %edx
	callq	_ZNSt7__cxx1112basic_stringIcSt11char_traitsIcESaIcEE9_M_createERmm
	movq	-128(%rbp), %rdi                # 8-byte Reload
	movq	%rax, %rsi
	callq	_ZNSt7__cxx1112basic_stringIcSt11char_traitsIcESaIcEE7_M_dataEPc
	movq	-128(%rbp), %rdi                # 8-byte Reload
	movq	-24(%rbp), %rsi
	callq	_ZNSt7__cxx1112basic_stringIcSt11char_traitsIcESaIcEE11_M_capacityEm
	jmp	.LBB72_3
.LBB72_2:
	movq	-128(%rbp), %rax                # 8-byte Reload
	movq	%rax, -72(%rbp)
.LBB72_3:
	movq	-128(%rbp), %rsi                # 8-byte Reload
	leaq	-32(%rbp), %rdi
	callq	_ZZNSt7__cxx1112basic_stringIcSt11char_traitsIcESaIcEE12_M_constructIPKcEEvT_S8_St20forward_iterator_tagEN6_GuardC2EPS4_
	movq	-128(%rbp), %rdi                # 8-byte Reload
	callq	_ZNKSt7__cxx1112basic_stringIcSt11char_traitsIcESaIcEE7_M_dataEv
	movq	%rax, %rdi
	movq	-96(%rbp), %rsi
	movq	-104(%rbp), %rdx
.Ltmp205:
	callq	_ZNSt7__cxx1112basic_stringIcSt11char_traitsIcESaIcEE13_S_copy_charsIPKcEEvPcT_S9_
.Ltmp206:
	jmp	.LBB72_4
.LBB72_4:
	movq	-128(%rbp), %rdi                # 8-byte Reload
	movq	$0, -32(%rbp)
	movq	-24(%rbp), %rsi
.Ltmp207:
	callq	_ZNSt7__cxx1112basic_stringIcSt11char_traitsIcESaIcEE13_M_set_lengthEm
.Ltmp208:
	jmp	.LBB72_5
.LBB72_5:
	leaq	-32(%rbp), %rdi
	callq	_ZZNSt7__cxx1112basic_stringIcSt11char_traitsIcESaIcEE12_M_constructIPKcEEvT_S8_St20forward_iterator_tagEN6_GuardD2Ev
	movq	%fs:40, %rax
	movq	-8(%rbp), %rcx
	cmpq	%rcx, %rax
	jne	.LBB72_10
# %bb.6:
	addq	$144, %rsp
	popq	%rbp
	.cfi_def_cfa %rsp, 8
	retq
.LBB72_7:
	.cfi_def_cfa %rbp, 16
.Ltmp209:
	movq	%rax, %rcx
	movl	%edx, %eax
	movq	%rcx, -112(%rbp)
	movl	%eax, -116(%rbp)
	leaq	-32(%rbp), %rdi
	callq	_ZZNSt7__cxx1112basic_stringIcSt11char_traitsIcESaIcEE12_M_constructIPKcEEvT_S8_St20forward_iterator_tagEN6_GuardD2Ev
# %bb.8:
	movq	-112(%rbp), %rax
	movq	%rax, -136(%rbp)                # 8-byte Spill
	movq	%fs:40, %rax
	movq	-8(%rbp), %rcx
	cmpq	%rcx, %rax
	jne	.LBB72_10
# %bb.9:
	movq	-136(%rbp), %rdi                # 8-byte Reload
	callq	_Unwind_Resume@PLT
.LBB72_10:
	callq	__stack_chk_fail@PLT
.Lfunc_end72:
	.size	_ZNSt7__cxx1112basic_stringIcSt11char_traitsIcESaIcEE12_M_constructIPKcEEvT_S8_St20forward_iterator_tag, .Lfunc_end72-_ZNSt7__cxx1112basic_stringIcSt11char_traitsIcESaIcEE12_M_constructIPKcEEvT_S8_St20forward_iterator_tag
	.cfi_endproc
	.section	.gcc_except_table._ZNSt7__cxx1112basic_stringIcSt11char_traitsIcESaIcEE12_M_constructIPKcEEvT_S8_St20forward_iterator_tag,"aG",@progbits,_ZNSt7__cxx1112basic_stringIcSt11char_traitsIcESaIcEE12_M_constructIPKcEEvT_S8_St20forward_iterator_tag,comdat
	.p2align	2, 0x0
GCC_except_table72:
.Lexception12:
	.byte	255                             # @LPStart Encoding = omit
	.byte	255                             # @TType Encoding = omit
	.byte	1                               # Call site Encoding = uleb128
	.uleb128 .Lcst_end12-.Lcst_begin12
.Lcst_begin12:
	.uleb128 .Lfunc_begin12-.Lfunc_begin12  # >> Call Site 1 <<
	.uleb128 .Ltmp205-.Lfunc_begin12        #   Call between .Lfunc_begin12 and .Ltmp205
	.byte	0                               #     has no landing pad
	.byte	0                               #   On action: cleanup
	.uleb128 .Ltmp205-.Lfunc_begin12        # >> Call Site 2 <<
	.uleb128 .Ltmp208-.Ltmp205              #   Call between .Ltmp205 and .Ltmp208
	.uleb128 .Ltmp209-.Lfunc_begin12        #     jumps to .Ltmp209
	.byte	0                               #   On action: cleanup
	.uleb128 .Ltmp208-.Lfunc_begin12        # >> Call Site 3 <<
	.uleb128 .Lfunc_end72-.Ltmp208          #   Call between .Ltmp208 and .Lfunc_end72
	.byte	0                               #     has no landing pad
	.byte	0                               #   On action: cleanup
.Lcst_end12:
	.p2align	2, 0x0
                                        # -- End function
	.section	.text._ZNSt7__cxx1112basic_stringIcSt11char_traitsIcESaIcEE12_Alloc_hiderD2Ev,"axG",@progbits,_ZNSt7__cxx1112basic_stringIcSt11char_traitsIcESaIcEE12_Alloc_hiderD2Ev,comdat
	.weak	_ZNSt7__cxx1112basic_stringIcSt11char_traitsIcESaIcEE12_Alloc_hiderD2Ev # -- Begin function _ZNSt7__cxx1112basic_stringIcSt11char_traitsIcESaIcEE12_Alloc_hiderD2Ev
	.p2align	4
	.type	_ZNSt7__cxx1112basic_stringIcSt11char_traitsIcESaIcEE12_Alloc_hiderD2Ev,@function
_ZNSt7__cxx1112basic_stringIcSt11char_traitsIcESaIcEE12_Alloc_hiderD2Ev: # @_ZNSt7__cxx1112basic_stringIcSt11char_traitsIcESaIcEE12_Alloc_hiderD2Ev
	.cfi_startproc
# %bb.0:
	pushq	%rbp
	.cfi_def_cfa_offset 16
	.cfi_offset %rbp, -16
	movq	%rsp, %rbp
	.cfi_def_cfa_register %rbp
	subq	$16, %rsp
	movq	%rdi, -16(%rbp)
	movq	-16(%rbp), %rax
	movq	%rax, -8(%rbp)
	movq	-8(%rbp), %rdi
	callq	_ZNSt15__new_allocatorIcED2Ev
	addq	$16, %rsp
	popq	%rbp
	.cfi_def_cfa %rsp, 8
	retq
.Lfunc_end73:
	.size	_ZNSt7__cxx1112basic_stringIcSt11char_traitsIcESaIcEE12_Alloc_hiderD2Ev, .Lfunc_end73-_ZNSt7__cxx1112basic_stringIcSt11char_traitsIcESaIcEE12_Alloc_hiderD2Ev
	.cfi_endproc
                                        # -- End function
	.section	.text._ZNSt7__cxx1112basic_stringIcSt11char_traitsIcESaIcEE7_M_dataEPc,"axG",@progbits,_ZNSt7__cxx1112basic_stringIcSt11char_traitsIcESaIcEE7_M_dataEPc,comdat
	.weak	_ZNSt7__cxx1112basic_stringIcSt11char_traitsIcESaIcEE7_M_dataEPc # -- Begin function _ZNSt7__cxx1112basic_stringIcSt11char_traitsIcESaIcEE7_M_dataEPc
	.p2align	4
	.type	_ZNSt7__cxx1112basic_stringIcSt11char_traitsIcESaIcEE7_M_dataEPc,@function
_ZNSt7__cxx1112basic_stringIcSt11char_traitsIcESaIcEE7_M_dataEPc: # @_ZNSt7__cxx1112basic_stringIcSt11char_traitsIcESaIcEE7_M_dataEPc
	.cfi_startproc
# %bb.0:
	pushq	%rbp
	.cfi_def_cfa_offset 16
	.cfi_offset %rbp, -16
	movq	%rsp, %rbp
	.cfi_def_cfa_register %rbp
	movq	%rdi, -8(%rbp)
	movq	%rsi, -16(%rbp)
	movq	-8(%rbp), %rax
	movq	-16(%rbp), %rcx
	movq	%rcx, (%rax)
	popq	%rbp
	.cfi_def_cfa %rsp, 8
	retq
.Lfunc_end74:
	.size	_ZNSt7__cxx1112basic_stringIcSt11char_traitsIcESaIcEE7_M_dataEPc, .Lfunc_end74-_ZNSt7__cxx1112basic_stringIcSt11char_traitsIcESaIcEE7_M_dataEPc
	.cfi_endproc
                                        # -- End function
	.section	.text._ZNSt7__cxx1112basic_stringIcSt11char_traitsIcESaIcEE9_M_createERmm,"axG",@progbits,_ZNSt7__cxx1112basic_stringIcSt11char_traitsIcESaIcEE9_M_createERmm,comdat
	.weak	_ZNSt7__cxx1112basic_stringIcSt11char_traitsIcESaIcEE9_M_createERmm # -- Begin function _ZNSt7__cxx1112basic_stringIcSt11char_traitsIcESaIcEE9_M_createERmm
	.p2align	4
	.type	_ZNSt7__cxx1112basic_stringIcSt11char_traitsIcESaIcEE9_M_createERmm,@function
_ZNSt7__cxx1112basic_stringIcSt11char_traitsIcESaIcEE9_M_createERmm: # @_ZNSt7__cxx1112basic_stringIcSt11char_traitsIcESaIcEE9_M_createERmm
	.cfi_startproc
# %bb.0:
	pushq	%rbp
	.cfi_def_cfa_offset 16
	.cfi_offset %rbp, -16
	movq	%rsp, %rbp
	.cfi_def_cfa_register %rbp
	subq	$48, %rsp
	movq	%rdi, -8(%rbp)
	movq	%rsi, -16(%rbp)
	movq	%rdx, -24(%rbp)
	movq	-8(%rbp), %rdi
	movq	%rdi, -40(%rbp)                 # 8-byte Spill
	movq	-16(%rbp), %rax
	movq	(%rax), %rax
	movq	%rax, -32(%rbp)                 # 8-byte Spill
	callq	_ZNKSt7__cxx1112basic_stringIcSt11char_traitsIcESaIcEE8max_sizeEv
	movq	%rax, %rcx
	movq	-32(%rbp), %rax                 # 8-byte Reload
	cmpq	%rcx, %rax
	jbe	.LBB75_2
# %bb.1:
	leaq	.L.str.32(%rip), %rdi
	callq	_ZSt20__throw_length_errorPKc@PLT
.LBB75_2:
	movq	-16(%rbp), %rax
	movq	(%rax), %rax
	cmpq	-24(%rbp), %rax
	jbe	.LBB75_7
# %bb.3:
	movq	-16(%rbp), %rax
	movq	(%rax), %rax
	movq	-24(%rbp), %rcx
	shlq	%rcx
	cmpq	%rcx, %rax
	jae	.LBB75_7
# %bb.4:
	movq	-40(%rbp), %rdi                 # 8-byte Reload
	movq	-24(%rbp), %rcx
	shlq	%rcx
	movq	-16(%rbp), %rax
	movq	%rcx, (%rax)
	movq	-16(%rbp), %rax
	movq	(%rax), %rax
	movq	%rax, -48(%rbp)                 # 8-byte Spill
	callq	_ZNKSt7__cxx1112basic_stringIcSt11char_traitsIcESaIcEE8max_sizeEv
	movq	%rax, %rcx
	movq	-48(%rbp), %rax                 # 8-byte Reload
	cmpq	%rcx, %rax
	jbe	.LBB75_6
# %bb.5:
	movq	-40(%rbp), %rdi                 # 8-byte Reload
	callq	_ZNKSt7__cxx1112basic_stringIcSt11char_traitsIcESaIcEE8max_sizeEv
	movq	%rax, %rcx
	movq	-16(%rbp), %rax
	movq	%rcx, (%rax)
.LBB75_6:
	jmp	.LBB75_7
.LBB75_7:
	movq	-40(%rbp), %rdi                 # 8-byte Reload
	callq	_ZNSt7__cxx1112basic_stringIcSt11char_traitsIcESaIcEE16_M_get_allocatorEv
	movq	%rax, %rdi
	movq	-16(%rbp), %rax
	movq	(%rax), %rsi
	addq	$1, %rsi
	callq	_ZNSt7__cxx1112basic_stringIcSt11char_traitsIcESaIcEE11_S_allocateERS3_m
	addq	$48, %rsp
	popq	%rbp
	.cfi_def_cfa %rsp, 8
	retq
.Lfunc_end75:
	.size	_ZNSt7__cxx1112basic_stringIcSt11char_traitsIcESaIcEE9_M_createERmm, .Lfunc_end75-_ZNSt7__cxx1112basic_stringIcSt11char_traitsIcESaIcEE9_M_createERmm
	.cfi_endproc
                                        # -- End function
	.section	.text._ZNSt7__cxx1112basic_stringIcSt11char_traitsIcESaIcEE11_M_capacityEm,"axG",@progbits,_ZNSt7__cxx1112basic_stringIcSt11char_traitsIcESaIcEE11_M_capacityEm,comdat
	.weak	_ZNSt7__cxx1112basic_stringIcSt11char_traitsIcESaIcEE11_M_capacityEm # -- Begin function _ZNSt7__cxx1112basic_stringIcSt11char_traitsIcESaIcEE11_M_capacityEm
	.p2align	4
	.type	_ZNSt7__cxx1112basic_stringIcSt11char_traitsIcESaIcEE11_M_capacityEm,@function
_ZNSt7__cxx1112basic_stringIcSt11char_traitsIcESaIcEE11_M_capacityEm: # @_ZNSt7__cxx1112basic_stringIcSt11char_traitsIcESaIcEE11_M_capacityEm
	.cfi_startproc
# %bb.0:
	pushq	%rbp
	.cfi_def_cfa_offset 16
	.cfi_offset %rbp, -16
	movq	%rsp, %rbp
	.cfi_def_cfa_register %rbp
	movq	%rdi, -8(%rbp)
	movq	%rsi, -16(%rbp)
	movq	-8(%rbp), %rax
	movq	-16(%rbp), %rcx
	movq	%rcx, 16(%rax)
	popq	%rbp
	.cfi_def_cfa %rsp, 8
	retq
.Lfunc_end76:
	.size	_ZNSt7__cxx1112basic_stringIcSt11char_traitsIcESaIcEE11_M_capacityEm, .Lfunc_end76-_ZNSt7__cxx1112basic_stringIcSt11char_traitsIcESaIcEE11_M_capacityEm
	.cfi_endproc
                                        # -- End function
	.section	.text._ZZNSt7__cxx1112basic_stringIcSt11char_traitsIcESaIcEE12_M_constructIPKcEEvT_S8_St20forward_iterator_tagEN6_GuardC2EPS4_,"axG",@progbits,_ZZNSt7__cxx1112basic_stringIcSt11char_traitsIcESaIcEE12_M_constructIPKcEEvT_S8_St20forward_iterator_tagEN6_GuardC2EPS4_,comdat
	.weak	_ZZNSt7__cxx1112basic_stringIcSt11char_traitsIcESaIcEE12_M_constructIPKcEEvT_S8_St20forward_iterator_tagEN6_GuardC2EPS4_ # -- Begin function _ZZNSt7__cxx1112basic_stringIcSt11char_traitsIcESaIcEE12_M_constructIPKcEEvT_S8_St20forward_iterator_tagEN6_GuardC2EPS4_
	.p2align	4
	.type	_ZZNSt7__cxx1112basic_stringIcSt11char_traitsIcESaIcEE12_M_constructIPKcEEvT_S8_St20forward_iterator_tagEN6_GuardC2EPS4_,@function
_ZZNSt7__cxx1112basic_stringIcSt11char_traitsIcESaIcEE12_M_constructIPKcEEvT_S8_St20forward_iterator_tagEN6_GuardC2EPS4_: # @_ZZNSt7__cxx1112basic_stringIcSt11char_traitsIcESaIcEE12_M_constructIPKcEEvT_S8_St20forward_iterator_tagEN6_GuardC2EPS4_
	.cfi_startproc
# %bb.0:
	pushq	%rbp
	.cfi_def_cfa_offset 16
	.cfi_offset %rbp, -16
	movq	%rsp, %rbp
	.cfi_def_cfa_register %rbp
	movq	%rdi, -8(%rbp)
	movq	%rsi, -16(%rbp)
	movq	-8(%rbp), %rax
	movq	-16(%rbp), %rcx
	movq	%rcx, (%rax)
	popq	%rbp
	.cfi_def_cfa %rsp, 8
	retq
.Lfunc_end77:
	.size	_ZZNSt7__cxx1112basic_stringIcSt11char_traitsIcESaIcEE12_M_constructIPKcEEvT_S8_St20forward_iterator_tagEN6_GuardC2EPS4_, .Lfunc_end77-_ZZNSt7__cxx1112basic_stringIcSt11char_traitsIcESaIcEE12_M_constructIPKcEEvT_S8_St20forward_iterator_tagEN6_GuardC2EPS4_
	.cfi_endproc
                                        # -- End function
	.section	.text._ZNSt7__cxx1112basic_stringIcSt11char_traitsIcESaIcEE13_S_copy_charsIPKcEEvPcT_S9_,"axG",@progbits,_ZNSt7__cxx1112basic_stringIcSt11char_traitsIcESaIcEE13_S_copy_charsIPKcEEvPcT_S9_,comdat
	.weak	_ZNSt7__cxx1112basic_stringIcSt11char_traitsIcESaIcEE13_S_copy_charsIPKcEEvPcT_S9_ # -- Begin function _ZNSt7__cxx1112basic_stringIcSt11char_traitsIcESaIcEE13_S_copy_charsIPKcEEvPcT_S9_
	.p2align	4
	.type	_ZNSt7__cxx1112basic_stringIcSt11char_traitsIcESaIcEE13_S_copy_charsIPKcEEvPcT_S9_,@function
_ZNSt7__cxx1112basic_stringIcSt11char_traitsIcESaIcEE13_S_copy_charsIPKcEEvPcT_S9_: # @_ZNSt7__cxx1112basic_stringIcSt11char_traitsIcESaIcEE13_S_copy_charsIPKcEEvPcT_S9_
	.cfi_startproc
# %bb.0:
	pushq	%rbp
	.cfi_def_cfa_offset 16
	.cfi_offset %rbp, -16
	movq	%rsp, %rbp
	.cfi_def_cfa_register %rbp
	subq	$32, %rsp
	movq	%rdi, -16(%rbp)
	movq	%rsi, -24(%rbp)
	movq	%rdx, -32(%rbp)
	movq	-16(%rbp), %rdi
	movq	-24(%rbp), %rax
	movq	%rax, -8(%rbp)
	movq	-8(%rbp), %rsi
	movq	-32(%rbp), %rdx
	movq	-24(%rbp), %rax
	subq	%rax, %rdx
	callq	_ZNSt7__cxx1112basic_stringIcSt11char_traitsIcESaIcEE7_S_copyEPcPKcm
	addq	$32, %rsp
	popq	%rbp
	.cfi_def_cfa %rsp, 8
	retq
.Lfunc_end78:
	.size	_ZNSt7__cxx1112basic_stringIcSt11char_traitsIcESaIcEE13_S_copy_charsIPKcEEvPcT_S9_, .Lfunc_end78-_ZNSt7__cxx1112basic_stringIcSt11char_traitsIcESaIcEE13_S_copy_charsIPKcEEvPcT_S9_
	.cfi_endproc
                                        # -- End function
	.section	.text._ZZNSt7__cxx1112basic_stringIcSt11char_traitsIcESaIcEE12_M_constructIPKcEEvT_S8_St20forward_iterator_tagEN6_GuardD2Ev,"axG",@progbits,_ZZNSt7__cxx1112basic_stringIcSt11char_traitsIcESaIcEE12_M_constructIPKcEEvT_S8_St20forward_iterator_tagEN6_GuardD2Ev,comdat
	.weak	_ZZNSt7__cxx1112basic_stringIcSt11char_traitsIcESaIcEE12_M_constructIPKcEEvT_S8_St20forward_iterator_tagEN6_GuardD2Ev # -- Begin function _ZZNSt7__cxx1112basic_stringIcSt11char_traitsIcESaIcEE12_M_constructIPKcEEvT_S8_St20forward_iterator_tagEN6_GuardD2Ev
	.p2align	4
	.type	_ZZNSt7__cxx1112basic_stringIcSt11char_traitsIcESaIcEE12_M_constructIPKcEEvT_S8_St20forward_iterator_tagEN6_GuardD2Ev,@function
_ZZNSt7__cxx1112basic_stringIcSt11char_traitsIcESaIcEE12_M_constructIPKcEEvT_S8_St20forward_iterator_tagEN6_GuardD2Ev: # @_ZZNSt7__cxx1112basic_stringIcSt11char_traitsIcESaIcEE12_M_constructIPKcEEvT_S8_St20forward_iterator_tagEN6_GuardD2Ev
.Lfunc_begin13:
	.cfi_startproc
	.cfi_personality 155, DW.ref.__gxx_personality_v0
	.cfi_lsda 27, .Lexception13
# %bb.0:
	pushq	%rbp
	.cfi_def_cfa_offset 16
	.cfi_offset %rbp, -16
	movq	%rsp, %rbp
	.cfi_def_cfa_register %rbp
	subq	$16, %rsp
	movq	%rdi, -8(%rbp)
	movq	-8(%rbp), %rax
	movq	%rax, -16(%rbp)                 # 8-byte Spill
	cmpq	$0, (%rax)
	je	.LBB79_3
# %bb.1:
	movq	-16(%rbp), %rax                 # 8-byte Reload
	movq	(%rax), %rdi
.Ltmp210:
	callq	_ZNSt7__cxx1112basic_stringIcSt11char_traitsIcESaIcEE10_M_disposeEv
.Ltmp211:
	jmp	.LBB79_2
.LBB79_2:
	jmp	.LBB79_3
.LBB79_3:
	addq	$16, %rsp
	popq	%rbp
	.cfi_def_cfa %rsp, 8
	retq
.LBB79_4:
	.cfi_def_cfa %rbp, 16
.Ltmp212:
	movq	%rax, %rdi
                                        # kill: def $eax killed $edx killed $rdx
	callq	__clang_call_terminate
.Lfunc_end79:
	.size	_ZZNSt7__cxx1112basic_stringIcSt11char_traitsIcESaIcEE12_M_constructIPKcEEvT_S8_St20forward_iterator_tagEN6_GuardD2Ev, .Lfunc_end79-_ZZNSt7__cxx1112basic_stringIcSt11char_traitsIcESaIcEE12_M_constructIPKcEEvT_S8_St20forward_iterator_tagEN6_GuardD2Ev
	.cfi_endproc
	.section	.gcc_except_table._ZZNSt7__cxx1112basic_stringIcSt11char_traitsIcESaIcEE12_M_constructIPKcEEvT_S8_St20forward_iterator_tagEN6_GuardD2Ev,"aG",@progbits,_ZZNSt7__cxx1112basic_stringIcSt11char_traitsIcESaIcEE12_M_constructIPKcEEvT_S8_St20forward_iterator_tagEN6_GuardD2Ev,comdat
	.p2align	2, 0x0
GCC_except_table79:
.Lexception13:
	.byte	255                             # @LPStart Encoding = omit
	.byte	155                             # @TType Encoding = indirect pcrel sdata4
	.uleb128 .Lttbase4-.Lttbaseref4
.Lttbaseref4:
	.byte	1                               # Call site Encoding = uleb128
	.uleb128 .Lcst_end13-.Lcst_begin13
.Lcst_begin13:
	.uleb128 .Ltmp210-.Lfunc_begin13        # >> Call Site 1 <<
	.uleb128 .Ltmp211-.Ltmp210              #   Call between .Ltmp210 and .Ltmp211
	.uleb128 .Ltmp212-.Lfunc_begin13        #     jumps to .Ltmp212
	.byte	1                               #   On action: 1
.Lcst_end13:
	.byte	1                               # >> Action Record 1 <<
                                        #   Catch TypeInfo 1
	.byte	0                               #   No further actions
	.p2align	2, 0x0
                                        # >> Catch TypeInfos <<
	.long	0                               # TypeInfo 1
.Lttbase4:
	.p2align	2, 0x0
                                        # -- End function
	.section	.text._ZNKSt7__cxx1112basic_stringIcSt11char_traitsIcESaIcEE8max_sizeEv,"axG",@progbits,_ZNKSt7__cxx1112basic_stringIcSt11char_traitsIcESaIcEE8max_sizeEv,comdat
	.weak	_ZNKSt7__cxx1112basic_stringIcSt11char_traitsIcESaIcEE8max_sizeEv # -- Begin function _ZNKSt7__cxx1112basic_stringIcSt11char_traitsIcESaIcEE8max_sizeEv
	.p2align	4
	.type	_ZNKSt7__cxx1112basic_stringIcSt11char_traitsIcESaIcEE8max_sizeEv,@function
_ZNKSt7__cxx1112basic_stringIcSt11char_traitsIcESaIcEE8max_sizeEv: # @_ZNKSt7__cxx1112basic_stringIcSt11char_traitsIcESaIcEE8max_sizeEv
.Lfunc_begin14:
	.cfi_startproc
	.cfi_personality 155, DW.ref.__gxx_personality_v0
	.cfi_lsda 27, .Lexception14
# %bb.0:
	pushq	%rbp
	.cfi_def_cfa_offset 16
	.cfi_offset %rbp, -16
	movq	%rsp, %rbp
	.cfi_def_cfa_register %rbp
	subq	$80, %rsp
	movq	%fs:40, %rax
	movq	%rax, -8(%rbp)
	movq	%rdi, -56(%rbp)
	movq	-56(%rbp), %rdi
	movabsq	$9223372036854775807, %rax      # imm = 0x7FFFFFFFFFFFFFFF
	movq	%rax, -16(%rbp)
.Ltmp213:
	callq	_ZNKSt7__cxx1112basic_stringIcSt11char_traitsIcESaIcEE16_M_get_allocatorEv
.Ltmp214:
	movq	%rax, -64(%rbp)                 # 8-byte Spill
	jmp	.LBB80_1
.LBB80_1:
	movq	-64(%rbp), %rax                 # 8-byte Reload
	movq	%rax, -48(%rbp)
	movq	-48(%rbp), %rax
	movq	%rax, -40(%rbp)
	movq	-40(%rbp), %rax
	movq	%rax, -32(%rbp)
	movabsq	$9223372036854775807, %rax      # imm = 0x7FFFFFFFFFFFFFFF
	movq	%rax, -24(%rbp)
.Ltmp215:
	leaq	-16(%rbp), %rdi
	leaq	-24(%rbp), %rsi
	callq	_ZSt3minImERKT_S2_S2_
.Ltmp216:
	movq	%rax, -72(%rbp)                 # 8-byte Spill
	jmp	.LBB80_2
.LBB80_2:
	movq	-72(%rbp), %rax                 # 8-byte Reload
	movq	(%rax), %rax
	decq	%rax
	movq	%rax, -80(%rbp)                 # 8-byte Spill
	movq	%fs:40, %rax
	movq	-8(%rbp), %rcx
	cmpq	%rcx, %rax
	jne	.LBB80_5
# %bb.3:
	movq	-80(%rbp), %rax                 # 8-byte Reload
	addq	$80, %rsp
	popq	%rbp
	.cfi_def_cfa %rsp, 8
	retq
.LBB80_4:
	.cfi_def_cfa %rbp, 16
.Ltmp217:
	movq	%rax, %rdi
                                        # kill: def $eax killed $edx killed $rdx
	callq	__clang_call_terminate
.LBB80_5:
	callq	__stack_chk_fail@PLT
.Lfunc_end80:
	.size	_ZNKSt7__cxx1112basic_stringIcSt11char_traitsIcESaIcEE8max_sizeEv, .Lfunc_end80-_ZNKSt7__cxx1112basic_stringIcSt11char_traitsIcESaIcEE8max_sizeEv
	.cfi_endproc
	.section	.gcc_except_table._ZNKSt7__cxx1112basic_stringIcSt11char_traitsIcESaIcEE8max_sizeEv,"aG",@progbits,_ZNKSt7__cxx1112basic_stringIcSt11char_traitsIcESaIcEE8max_sizeEv,comdat
	.p2align	2, 0x0
GCC_except_table80:
.Lexception14:
	.byte	255                             # @LPStart Encoding = omit
	.byte	155                             # @TType Encoding = indirect pcrel sdata4
	.uleb128 .Lttbase5-.Lttbaseref5
.Lttbaseref5:
	.byte	1                               # Call site Encoding = uleb128
	.uleb128 .Lcst_end14-.Lcst_begin14
.Lcst_begin14:
	.uleb128 .Ltmp213-.Lfunc_begin14        # >> Call Site 1 <<
	.uleb128 .Ltmp216-.Ltmp213              #   Call between .Ltmp213 and .Ltmp216
	.uleb128 .Ltmp217-.Lfunc_begin14        #     jumps to .Ltmp217
	.byte	1                               #   On action: 1
	.uleb128 .Ltmp216-.Lfunc_begin14        # >> Call Site 2 <<
	.uleb128 .Lfunc_end80-.Ltmp216          #   Call between .Ltmp216 and .Lfunc_end80
	.byte	0                               #     has no landing pad
	.byte	0                               #   On action: cleanup
.Lcst_end14:
	.byte	1                               # >> Action Record 1 <<
                                        #   Catch TypeInfo 1
	.byte	0                               #   No further actions
	.p2align	2, 0x0
                                        # >> Catch TypeInfos <<
	.long	0                               # TypeInfo 1
.Lttbase5:
	.p2align	2, 0x0
                                        # -- End function
	.section	.text._ZNSt7__cxx1112basic_stringIcSt11char_traitsIcESaIcEE11_S_allocateERS3_m,"axG",@progbits,_ZNSt7__cxx1112basic_stringIcSt11char_traitsIcESaIcEE11_S_allocateERS3_m,comdat
	.weak	_ZNSt7__cxx1112basic_stringIcSt11char_traitsIcESaIcEE11_S_allocateERS3_m # -- Begin function _ZNSt7__cxx1112basic_stringIcSt11char_traitsIcESaIcEE11_S_allocateERS3_m
	.p2align	4
	.type	_ZNSt7__cxx1112basic_stringIcSt11char_traitsIcESaIcEE11_S_allocateERS3_m,@function
_ZNSt7__cxx1112basic_stringIcSt11char_traitsIcESaIcEE11_S_allocateERS3_m: # @_ZNSt7__cxx1112basic_stringIcSt11char_traitsIcESaIcEE11_S_allocateERS3_m
	.cfi_startproc
# %bb.0:
	pushq	%rbp
	.cfi_def_cfa_offset 16
	.cfi_offset %rbp, -16
	movq	%rsp, %rbp
	.cfi_def_cfa_register %rbp
	subq	$48, %rsp
	movq	%rdi, -24(%rbp)
	movq	%rsi, -32(%rbp)
	movq	-24(%rbp), %rcx
	movq	-32(%rbp), %rax
	movq	%rcx, -8(%rbp)
	movq	%rax, -16(%rbp)
	movq	-8(%rbp), %rdi
	movq	-16(%rbp), %rsi
	xorl	%eax, %eax
	movl	%eax, %edx
	callq	_ZNSt15__new_allocatorIcE8allocateEmPKv
	movq	%rax, -40(%rbp)
	movq	-40(%rbp), %rax
	addq	$48, %rsp
	popq	%rbp
	.cfi_def_cfa %rsp, 8
	retq
.Lfunc_end81:
	.size	_ZNSt7__cxx1112basic_stringIcSt11char_traitsIcESaIcEE11_S_allocateERS3_m, .Lfunc_end81-_ZNSt7__cxx1112basic_stringIcSt11char_traitsIcESaIcEE11_S_allocateERS3_m
	.cfi_endproc
                                        # -- End function
	.section	.text._ZNSt7__cxx1112basic_stringIcSt11char_traitsIcESaIcEE16_M_get_allocatorEv,"axG",@progbits,_ZNSt7__cxx1112basic_stringIcSt11char_traitsIcESaIcEE16_M_get_allocatorEv,comdat
	.weak	_ZNSt7__cxx1112basic_stringIcSt11char_traitsIcESaIcEE16_M_get_allocatorEv # -- Begin function _ZNSt7__cxx1112basic_stringIcSt11char_traitsIcESaIcEE16_M_get_allocatorEv
	.p2align	4
	.type	_ZNSt7__cxx1112basic_stringIcSt11char_traitsIcESaIcEE16_M_get_allocatorEv,@function
_ZNSt7__cxx1112basic_stringIcSt11char_traitsIcESaIcEE16_M_get_allocatorEv: # @_ZNSt7__cxx1112basic_stringIcSt11char_traitsIcESaIcEE16_M_get_allocatorEv
	.cfi_startproc
# %bb.0:
	pushq	%rbp
	.cfi_def_cfa_offset 16
	.cfi_offset %rbp, -16
	movq	%rsp, %rbp
	.cfi_def_cfa_register %rbp
	movq	%rdi, -8(%rbp)
	movq	-8(%rbp), %rax
	popq	%rbp
	.cfi_def_cfa %rsp, 8
	retq
.Lfunc_end82:
	.size	_ZNSt7__cxx1112basic_stringIcSt11char_traitsIcESaIcEE16_M_get_allocatorEv, .Lfunc_end82-_ZNSt7__cxx1112basic_stringIcSt11char_traitsIcESaIcEE16_M_get_allocatorEv
	.cfi_endproc
                                        # -- End function
	.section	.text._ZNKSt7__cxx1112basic_stringIcSt11char_traitsIcESaIcEE16_M_get_allocatorEv,"axG",@progbits,_ZNKSt7__cxx1112basic_stringIcSt11char_traitsIcESaIcEE16_M_get_allocatorEv,comdat
	.weak	_ZNKSt7__cxx1112basic_stringIcSt11char_traitsIcESaIcEE16_M_get_allocatorEv # -- Begin function _ZNKSt7__cxx1112basic_stringIcSt11char_traitsIcESaIcEE16_M_get_allocatorEv
	.p2align	4
	.type	_ZNKSt7__cxx1112basic_stringIcSt11char_traitsIcESaIcEE16_M_get_allocatorEv,@function
_ZNKSt7__cxx1112basic_stringIcSt11char_traitsIcESaIcEE16_M_get_allocatorEv: # @_ZNKSt7__cxx1112basic_stringIcSt11char_traitsIcESaIcEE16_M_get_allocatorEv
	.cfi_startproc
# %bb.0:
	pushq	%rbp
	.cfi_def_cfa_offset 16
	.cfi_offset %rbp, -16
	movq	%rsp, %rbp
	.cfi_def_cfa_register %rbp
	movq	%rdi, -8(%rbp)
	movq	-8(%rbp), %rax
	popq	%rbp
	.cfi_def_cfa %rsp, 8
	retq
.Lfunc_end83:
	.size	_ZNKSt7__cxx1112basic_stringIcSt11char_traitsIcESaIcEE16_M_get_allocatorEv, .Lfunc_end83-_ZNKSt7__cxx1112basic_stringIcSt11char_traitsIcESaIcEE16_M_get_allocatorEv
	.cfi_endproc
                                        # -- End function
	.section	.text._ZSt3minImERKT_S2_S2_,"axG",@progbits,_ZSt3minImERKT_S2_S2_,comdat
	.weak	_ZSt3minImERKT_S2_S2_           # -- Begin function _ZSt3minImERKT_S2_S2_
	.p2align	4
	.type	_ZSt3minImERKT_S2_S2_,@function
_ZSt3minImERKT_S2_S2_:                  # @_ZSt3minImERKT_S2_S2_
	.cfi_startproc
# %bb.0:
	pushq	%rbp
	.cfi_def_cfa_offset 16
	.cfi_offset %rbp, -16
	movq	%rsp, %rbp
	.cfi_def_cfa_register %rbp
	movq	%rdi, -16(%rbp)
	movq	%rsi, -24(%rbp)
	movq	-24(%rbp), %rax
	movq	(%rax), %rax
	movq	-16(%rbp), %rcx
	cmpq	(%rcx), %rax
	jae	.LBB84_2
# %bb.1:
	movq	-24(%rbp), %rax
	movq	%rax, -8(%rbp)
	jmp	.LBB84_3
.LBB84_2:
	movq	-16(%rbp), %rax
	movq	%rax, -8(%rbp)
.LBB84_3:
	movq	-8(%rbp), %rax
	popq	%rbp
	.cfi_def_cfa %rsp, 8
	retq
.Lfunc_end84:
	.size	_ZSt3minImERKT_S2_S2_, .Lfunc_end84-_ZSt3minImERKT_S2_S2_
	.cfi_endproc
                                        # -- End function
	.section	.text._ZNSt15__new_allocatorIcE8allocateEmPKv,"axG",@progbits,_ZNSt15__new_allocatorIcE8allocateEmPKv,comdat
	.weak	_ZNSt15__new_allocatorIcE8allocateEmPKv # -- Begin function _ZNSt15__new_allocatorIcE8allocateEmPKv
	.p2align	4
	.type	_ZNSt15__new_allocatorIcE8allocateEmPKv,@function
_ZNSt15__new_allocatorIcE8allocateEmPKv: # @_ZNSt15__new_allocatorIcE8allocateEmPKv
	.cfi_startproc
# %bb.0:
	pushq	%rbp
	.cfi_def_cfa_offset 16
	.cfi_offset %rbp, -16
	movq	%rsp, %rbp
	.cfi_def_cfa_register %rbp
	subq	$32, %rsp
	movq	%rdi, -16(%rbp)
	movq	%rsi, -24(%rbp)
	movq	%rdx, -32(%rbp)
	movq	-16(%rbp), %rcx
	movq	-24(%rbp), %rax
	movq	%rcx, -8(%rbp)
	movabsq	$9223372036854775807, %rcx      # imm = 0x7FFFFFFFFFFFFFFF
	cmpq	%rcx, %rax
	jbe	.LBB85_4
# %bb.1:
	cmpq	$-1, -24(%rbp)
	jbe	.LBB85_3
# %bb.2:
	callq	_ZSt28__throw_bad_array_new_lengthv@PLT
.LBB85_3:
	callq	_ZSt17__throw_bad_allocv@PLT
.LBB85_4:
	movq	-24(%rbp), %rdi
	shlq	$0, %rdi
	callq	_Znwm@PLT
	addq	$32, %rsp
	popq	%rbp
	.cfi_def_cfa %rsp, 8
	retq
.Lfunc_end85:
	.size	_ZNSt15__new_allocatorIcE8allocateEmPKv, .Lfunc_end85-_ZNSt15__new_allocatorIcE8allocateEmPKv
	.cfi_endproc
                                        # -- End function
	.section	.text._ZNSt7__cxx1112basic_stringIcSt11char_traitsIcESaIcEE7_S_copyEPcPKcm,"axG",@progbits,_ZNSt7__cxx1112basic_stringIcSt11char_traitsIcESaIcEE7_S_copyEPcPKcm,comdat
	.weak	_ZNSt7__cxx1112basic_stringIcSt11char_traitsIcESaIcEE7_S_copyEPcPKcm # -- Begin function _ZNSt7__cxx1112basic_stringIcSt11char_traitsIcESaIcEE7_S_copyEPcPKcm
	.p2align	4
	.type	_ZNSt7__cxx1112basic_stringIcSt11char_traitsIcESaIcEE7_S_copyEPcPKcm,@function
_ZNSt7__cxx1112basic_stringIcSt11char_traitsIcESaIcEE7_S_copyEPcPKcm: # @_ZNSt7__cxx1112basic_stringIcSt11char_traitsIcESaIcEE7_S_copyEPcPKcm
	.cfi_startproc
# %bb.0:
	pushq	%rbp
	.cfi_def_cfa_offset 16
	.cfi_offset %rbp, -16
	movq	%rsp, %rbp
	.cfi_def_cfa_register %rbp
	subq	$32, %rsp
	movq	%rdi, -8(%rbp)
	movq	%rsi, -16(%rbp)
	movq	%rdx, -24(%rbp)
	cmpq	$1, -24(%rbp)
	jne	.LBB86_2
# %bb.1:
	movq	-8(%rbp), %rdi
	movq	-16(%rbp), %rsi
	callq	_ZNSt11char_traitsIcE6assignERcRKc
	jmp	.LBB86_3
.LBB86_2:
	movq	-8(%rbp), %rdi
	movq	-16(%rbp), %rsi
	movq	-24(%rbp), %rdx
	callq	_ZNSt11char_traitsIcE4copyEPcPKcm
.LBB86_3:
	addq	$32, %rsp
	popq	%rbp
	.cfi_def_cfa %rsp, 8
	retq
.Lfunc_end86:
	.size	_ZNSt7__cxx1112basic_stringIcSt11char_traitsIcESaIcEE7_S_copyEPcPKcm, .Lfunc_end86-_ZNSt7__cxx1112basic_stringIcSt11char_traitsIcESaIcEE7_S_copyEPcPKcm
	.cfi_endproc
                                        # -- End function
	.section	.text._ZNSt11char_traitsIcE4copyEPcPKcm,"axG",@progbits,_ZNSt11char_traitsIcE4copyEPcPKcm,comdat
	.weak	_ZNSt11char_traitsIcE4copyEPcPKcm # -- Begin function _ZNSt11char_traitsIcE4copyEPcPKcm
	.p2align	4
	.type	_ZNSt11char_traitsIcE4copyEPcPKcm,@function
_ZNSt11char_traitsIcE4copyEPcPKcm:      # @_ZNSt11char_traitsIcE4copyEPcPKcm
	.cfi_startproc
# %bb.0:
	pushq	%rbp
	.cfi_def_cfa_offset 16
	.cfi_offset %rbp, -16
	movq	%rsp, %rbp
	.cfi_def_cfa_register %rbp
	subq	$48, %rsp
	movq	%rdi, -16(%rbp)
	movq	%rsi, -24(%rbp)
	movq	%rdx, -32(%rbp)
	cmpq	$0, -32(%rbp)
	jne	.LBB87_2
# %bb.1:
	movq	-16(%rbp), %rax
	movq	%rax, -8(%rbp)
	jmp	.LBB87_3
.LBB87_2:
	movq	-16(%rbp), %rdi
	movq	%rdi, -40(%rbp)                 # 8-byte Spill
	movq	-24(%rbp), %rsi
	movq	-32(%rbp), %rdx
	callq	memcpy@PLT
	movq	-40(%rbp), %rax                 # 8-byte Reload
	movq	%rax, -8(%rbp)
.LBB87_3:
	movq	-8(%rbp), %rax
	addq	$48, %rsp
	popq	%rbp
	.cfi_def_cfa %rsp, 8
	retq
.Lfunc_end87:
	.size	_ZNSt11char_traitsIcE4copyEPcPKcm, .Lfunc_end87-_ZNSt11char_traitsIcE4copyEPcPKcm
	.cfi_endproc
                                        # -- End function
	.section	.text._ZNSt7__cxx1112basic_stringIcSt11char_traitsIcESaIcEE10_M_disposeEv,"axG",@progbits,_ZNSt7__cxx1112basic_stringIcSt11char_traitsIcESaIcEE10_M_disposeEv,comdat
	.weak	_ZNSt7__cxx1112basic_stringIcSt11char_traitsIcESaIcEE10_M_disposeEv # -- Begin function _ZNSt7__cxx1112basic_stringIcSt11char_traitsIcESaIcEE10_M_disposeEv
	.p2align	4
	.type	_ZNSt7__cxx1112basic_stringIcSt11char_traitsIcESaIcEE10_M_disposeEv,@function
_ZNSt7__cxx1112basic_stringIcSt11char_traitsIcESaIcEE10_M_disposeEv: # @_ZNSt7__cxx1112basic_stringIcSt11char_traitsIcESaIcEE10_M_disposeEv
	.cfi_startproc
# %bb.0:
	pushq	%rbp
	.cfi_def_cfa_offset 16
	.cfi_offset %rbp, -16
	movq	%rsp, %rbp
	.cfi_def_cfa_register %rbp
	subq	$16, %rsp
	movq	%rdi, -8(%rbp)
	movq	-8(%rbp), %rdi
	movq	%rdi, -16(%rbp)                 # 8-byte Spill
	callq	_ZNKSt7__cxx1112basic_stringIcSt11char_traitsIcESaIcEE11_M_is_localEv
	testb	$1, %al
	jne	.LBB88_2
# %bb.1:
	movq	-16(%rbp), %rdi                 # 8-byte Reload
	movq	16(%rdi), %rsi
	callq	_ZNSt7__cxx1112basic_stringIcSt11char_traitsIcESaIcEE10_M_destroyEm
.LBB88_2:
	addq	$16, %rsp
	popq	%rbp
	.cfi_def_cfa %rsp, 8
	retq
.Lfunc_end88:
	.size	_ZNSt7__cxx1112basic_stringIcSt11char_traitsIcESaIcEE10_M_disposeEv, .Lfunc_end88-_ZNSt7__cxx1112basic_stringIcSt11char_traitsIcESaIcEE10_M_disposeEv
	.cfi_endproc
                                        # -- End function
	.section	.text._ZNKSt7__cxx1112basic_stringIcSt11char_traitsIcESaIcEE11_M_is_localEv,"axG",@progbits,_ZNKSt7__cxx1112basic_stringIcSt11char_traitsIcESaIcEE11_M_is_localEv,comdat
	.weak	_ZNKSt7__cxx1112basic_stringIcSt11char_traitsIcESaIcEE11_M_is_localEv # -- Begin function _ZNKSt7__cxx1112basic_stringIcSt11char_traitsIcESaIcEE11_M_is_localEv
	.p2align	4
	.type	_ZNKSt7__cxx1112basic_stringIcSt11char_traitsIcESaIcEE11_M_is_localEv,@function
_ZNKSt7__cxx1112basic_stringIcSt11char_traitsIcESaIcEE11_M_is_localEv: # @_ZNKSt7__cxx1112basic_stringIcSt11char_traitsIcESaIcEE11_M_is_localEv
	.cfi_startproc
# %bb.0:
	pushq	%rbp
	.cfi_def_cfa_offset 16
	.cfi_offset %rbp, -16
	movq	%rsp, %rbp
	.cfi_def_cfa_register %rbp
	subq	$32, %rsp
	movq	%rdi, -16(%rbp)
	movq	-16(%rbp), %rdi
	movq	%rdi, -32(%rbp)                 # 8-byte Spill
	callq	_ZNKSt7__cxx1112basic_stringIcSt11char_traitsIcESaIcEE7_M_dataEv
	movq	-32(%rbp), %rdi                 # 8-byte Reload
	movq	%rax, -24(%rbp)                 # 8-byte Spill
	callq	_ZNKSt7__cxx1112basic_stringIcSt11char_traitsIcESaIcEE13_M_local_dataEv
	movq	%rax, %rcx
	movq	-24(%rbp), %rax                 # 8-byte Reload
	cmpq	%rcx, %rax
	jne	.LBB89_4
# %bb.1:
	movq	-32(%rbp), %rax                 # 8-byte Reload
	cmpq	$15, 8(%rax)
	jbe	.LBB89_3
# %bb.2:
.LBB89_3:
	movb	$1, -1(%rbp)
	jmp	.LBB89_5
.LBB89_4:
	movb	$0, -1(%rbp)
.LBB89_5:
	movb	-1(%rbp), %al
	andb	$1, %al
	addq	$32, %rsp
	popq	%rbp
	.cfi_def_cfa %rsp, 8
	retq
.Lfunc_end89:
	.size	_ZNKSt7__cxx1112basic_stringIcSt11char_traitsIcESaIcEE11_M_is_localEv, .Lfunc_end89-_ZNKSt7__cxx1112basic_stringIcSt11char_traitsIcESaIcEE11_M_is_localEv
	.cfi_endproc
                                        # -- End function
	.section	.text._ZNSt7__cxx1112basic_stringIcSt11char_traitsIcESaIcEE10_M_destroyEm,"axG",@progbits,_ZNSt7__cxx1112basic_stringIcSt11char_traitsIcESaIcEE10_M_destroyEm,comdat
	.weak	_ZNSt7__cxx1112basic_stringIcSt11char_traitsIcESaIcEE10_M_destroyEm # -- Begin function _ZNSt7__cxx1112basic_stringIcSt11char_traitsIcESaIcEE10_M_destroyEm
	.p2align	4
	.type	_ZNSt7__cxx1112basic_stringIcSt11char_traitsIcESaIcEE10_M_destroyEm,@function
_ZNSt7__cxx1112basic_stringIcSt11char_traitsIcESaIcEE10_M_destroyEm: # @_ZNSt7__cxx1112basic_stringIcSt11char_traitsIcESaIcEE10_M_destroyEm
	.cfi_startproc
# %bb.0:
	pushq	%rbp
	.cfi_def_cfa_offset 16
	.cfi_offset %rbp, -16
	movq	%rsp, %rbp
	.cfi_def_cfa_register %rbp
	subq	$64, %rsp
	movq	%rdi, -32(%rbp)
	movq	%rsi, -40(%rbp)
	movq	-32(%rbp), %rdi
	movq	%rdi, -56(%rbp)                 # 8-byte Spill
	callq	_ZNSt7__cxx1112basic_stringIcSt11char_traitsIcESaIcEE16_M_get_allocatorEv
	movq	-56(%rbp), %rdi                 # 8-byte Reload
	movq	%rax, -48(%rbp)                 # 8-byte Spill
	callq	_ZNKSt7__cxx1112basic_stringIcSt11char_traitsIcESaIcEE7_M_dataEv
	movq	-48(%rbp), %rdx                 # 8-byte Reload
	movq	%rax, %rcx
	movq	-40(%rbp), %rax
	addq	$1, %rax
	movq	%rdx, -8(%rbp)
	movq	%rcx, -16(%rbp)
	movq	%rax, -24(%rbp)
	movq	-8(%rbp), %rdi
	movq	-16(%rbp), %rsi
	movq	-24(%rbp), %rdx
	callq	_ZNSt15__new_allocatorIcE10deallocateEPcm
# %bb.1:
	addq	$64, %rsp
	popq	%rbp
	.cfi_def_cfa %rsp, 8
	retq
.Lfunc_end90:
	.size	_ZNSt7__cxx1112basic_stringIcSt11char_traitsIcESaIcEE10_M_destroyEm, .Lfunc_end90-_ZNSt7__cxx1112basic_stringIcSt11char_traitsIcESaIcEE10_M_destroyEm
	.cfi_endproc
                                        # -- End function
	.section	.text._ZNKSt7__cxx1112basic_stringIcSt11char_traitsIcESaIcEE13_M_local_dataEv,"axG",@progbits,_ZNKSt7__cxx1112basic_stringIcSt11char_traitsIcESaIcEE13_M_local_dataEv,comdat
	.weak	_ZNKSt7__cxx1112basic_stringIcSt11char_traitsIcESaIcEE13_M_local_dataEv # -- Begin function _ZNKSt7__cxx1112basic_stringIcSt11char_traitsIcESaIcEE13_M_local_dataEv
	.p2align	4
	.type	_ZNKSt7__cxx1112basic_stringIcSt11char_traitsIcESaIcEE13_M_local_dataEv,@function
_ZNKSt7__cxx1112basic_stringIcSt11char_traitsIcESaIcEE13_M_local_dataEv: # @_ZNKSt7__cxx1112basic_stringIcSt11char_traitsIcESaIcEE13_M_local_dataEv
	.cfi_startproc
# %bb.0:
	pushq	%rbp
	.cfi_def_cfa_offset 16
	.cfi_offset %rbp, -16
	movq	%rsp, %rbp
	.cfi_def_cfa_register %rbp
	subq	$16, %rsp
	movq	%rdi, -8(%rbp)
	movq	-8(%rbp), %rdi
	addq	$16, %rdi
	callq	_ZNSt19__ptr_traits_ptr_toIPKcS0_Lb0EE10pointer_toERS0_
	addq	$16, %rsp
	popq	%rbp
	.cfi_def_cfa %rsp, 8
	retq
.Lfunc_end91:
	.size	_ZNKSt7__cxx1112basic_stringIcSt11char_traitsIcESaIcEE13_M_local_dataEv, .Lfunc_end91-_ZNKSt7__cxx1112basic_stringIcSt11char_traitsIcESaIcEE13_M_local_dataEv
	.cfi_endproc
                                        # -- End function
	.section	.text._ZNSt19__ptr_traits_ptr_toIPKcS0_Lb0EE10pointer_toERS0_,"axG",@progbits,_ZNSt19__ptr_traits_ptr_toIPKcS0_Lb0EE10pointer_toERS0_,comdat
	.weak	_ZNSt19__ptr_traits_ptr_toIPKcS0_Lb0EE10pointer_toERS0_ # -- Begin function _ZNSt19__ptr_traits_ptr_toIPKcS0_Lb0EE10pointer_toERS0_
	.p2align	4
	.type	_ZNSt19__ptr_traits_ptr_toIPKcS0_Lb0EE10pointer_toERS0_,@function
_ZNSt19__ptr_traits_ptr_toIPKcS0_Lb0EE10pointer_toERS0_: # @_ZNSt19__ptr_traits_ptr_toIPKcS0_Lb0EE10pointer_toERS0_
	.cfi_startproc
# %bb.0:
	pushq	%rbp
	.cfi_def_cfa_offset 16
	.cfi_offset %rbp, -16
	movq	%rsp, %rbp
	.cfi_def_cfa_register %rbp
	movq	%rdi, -8(%rbp)
	movq	-8(%rbp), %rax
	popq	%rbp
	.cfi_def_cfa %rsp, 8
	retq
.Lfunc_end92:
	.size	_ZNSt19__ptr_traits_ptr_toIPKcS0_Lb0EE10pointer_toERS0_, .Lfunc_end92-_ZNSt19__ptr_traits_ptr_toIPKcS0_Lb0EE10pointer_toERS0_
	.cfi_endproc
                                        # -- End function
	.section	.text._ZNSt15__new_allocatorIcE10deallocateEPcm,"axG",@progbits,_ZNSt15__new_allocatorIcE10deallocateEPcm,comdat
	.weak	_ZNSt15__new_allocatorIcE10deallocateEPcm # -- Begin function _ZNSt15__new_allocatorIcE10deallocateEPcm
	.p2align	4
	.type	_ZNSt15__new_allocatorIcE10deallocateEPcm,@function
_ZNSt15__new_allocatorIcE10deallocateEPcm: # @_ZNSt15__new_allocatorIcE10deallocateEPcm
	.cfi_startproc
# %bb.0:
	pushq	%rbp
	.cfi_def_cfa_offset 16
	.cfi_offset %rbp, -16
	movq	%rsp, %rbp
	.cfi_def_cfa_register %rbp
	subq	$32, %rsp
	movq	%rdi, -8(%rbp)
	movq	%rsi, -16(%rbp)
	movq	%rdx, -24(%rbp)
	movq	-16(%rbp), %rdi
	movq	-24(%rbp), %rsi
	shlq	$0, %rsi
	callq	_ZdlPvm@PLT
	addq	$32, %rsp
	popq	%rbp
	.cfi_def_cfa %rsp, 8
	retq
.Lfunc_end93:
	.size	_ZNSt15__new_allocatorIcE10deallocateEPcm, .Lfunc_end93-_ZNSt15__new_allocatorIcE10deallocateEPcm
	.cfi_endproc
                                        # -- End function
	.section	.text._ZN4llvm11SmallVectorIcLj100EED2Ev,"axG",@progbits,_ZN4llvm11SmallVectorIcLj100EED2Ev,comdat
	.weak	_ZN4llvm11SmallVectorIcLj100EED2Ev # -- Begin function _ZN4llvm11SmallVectorIcLj100EED2Ev
	.p2align	4
	.type	_ZN4llvm11SmallVectorIcLj100EED2Ev,@function
_ZN4llvm11SmallVectorIcLj100EED2Ev:     # @_ZN4llvm11SmallVectorIcLj100EED2Ev
.Lfunc_begin15:
	.cfi_startproc
	.cfi_personality 155, DW.ref.__gxx_personality_v0
	.cfi_lsda 27, .Lexception15
# %bb.0:
	pushq	%rbp
	.cfi_def_cfa_offset 16
	.cfi_offset %rbp, -16
	movq	%rsp, %rbp
	.cfi_def_cfa_register %rbp
	subq	$32, %rsp
	movq	%rdi, -8(%rbp)
	movq	-8(%rbp), %rdi
	movq	%rdi, -24(%rbp)                 # 8-byte Spill
.Ltmp218:
	callq	_ZN4llvm25SmallVectorTemplateCommonIcvE5beginEv
.Ltmp219:
	movq	%rax, -16(%rbp)                 # 8-byte Spill
	jmp	.LBB94_1
.LBB94_1:
.Ltmp220:
	movq	-24(%rbp), %rdi                 # 8-byte Reload
	callq	_ZN4llvm25SmallVectorTemplateCommonIcvE3endEv
.Ltmp221:
	movq	%rax, -32(%rbp)                 # 8-byte Spill
	jmp	.LBB94_2
.LBB94_2:
.Ltmp222:
	movq	-32(%rbp), %rsi                 # 8-byte Reload
	movq	-16(%rbp), %rdi                 # 8-byte Reload
	callq	_ZN4llvm23SmallVectorTemplateBaseIcLb1EE13destroy_rangeEPcS2_
.Ltmp223:
	jmp	.LBB94_3
.LBB94_3:
	movq	-24(%rbp), %rdi                 # 8-byte Reload
	callq	_ZN4llvm15SmallVectorImplIcED2Ev
	addq	$32, %rsp
	popq	%rbp
	.cfi_def_cfa %rsp, 8
	retq
.LBB94_4:
	.cfi_def_cfa %rbp, 16
.Ltmp224:
	movq	%rax, %rdi
                                        # kill: def $eax killed $edx killed $rdx
	callq	__clang_call_terminate
.Lfunc_end94:
	.size	_ZN4llvm11SmallVectorIcLj100EED2Ev, .Lfunc_end94-_ZN4llvm11SmallVectorIcLj100EED2Ev
	.cfi_endproc
	.section	.gcc_except_table._ZN4llvm11SmallVectorIcLj100EED2Ev,"aG",@progbits,_ZN4llvm11SmallVectorIcLj100EED2Ev,comdat
	.p2align	2, 0x0
GCC_except_table94:
.Lexception15:
	.byte	255                             # @LPStart Encoding = omit
	.byte	155                             # @TType Encoding = indirect pcrel sdata4
	.uleb128 .Lttbase6-.Lttbaseref6
.Lttbaseref6:
	.byte	1                               # Call site Encoding = uleb128
	.uleb128 .Lcst_end15-.Lcst_begin15
.Lcst_begin15:
	.uleb128 .Ltmp218-.Lfunc_begin15        # >> Call Site 1 <<
	.uleb128 .Ltmp223-.Ltmp218              #   Call between .Ltmp218 and .Ltmp223
	.uleb128 .Ltmp224-.Lfunc_begin15        #     jumps to .Ltmp224
	.byte	1                               #   On action: 1
.Lcst_end15:
	.byte	1                               # >> Action Record 1 <<
                                        #   Catch TypeInfo 1
	.byte	0                               #   No further actions
	.p2align	2, 0x0
                                        # >> Catch TypeInfos <<
	.long	0                               # TypeInfo 1
.Lttbase6:
	.p2align	2, 0x0
                                        # -- End function
	.section	.text._ZN4llvm23SmallVectorTemplateBaseIcLb1EE13destroy_rangeEPcS2_,"axG",@progbits,_ZN4llvm23SmallVectorTemplateBaseIcLb1EE13destroy_rangeEPcS2_,comdat
	.weak	_ZN4llvm23SmallVectorTemplateBaseIcLb1EE13destroy_rangeEPcS2_ # -- Begin function _ZN4llvm23SmallVectorTemplateBaseIcLb1EE13destroy_rangeEPcS2_
	.p2align	4
	.type	_ZN4llvm23SmallVectorTemplateBaseIcLb1EE13destroy_rangeEPcS2_,@function
_ZN4llvm23SmallVectorTemplateBaseIcLb1EE13destroy_rangeEPcS2_: # @_ZN4llvm23SmallVectorTemplateBaseIcLb1EE13destroy_rangeEPcS2_
	.cfi_startproc
# %bb.0:
	pushq	%rbp
	.cfi_def_cfa_offset 16
	.cfi_offset %rbp, -16
	movq	%rsp, %rbp
	.cfi_def_cfa_register %rbp
	movq	%rdi, -8(%rbp)
	movq	%rsi, -16(%rbp)
	popq	%rbp
	.cfi_def_cfa %rsp, 8
	retq
.Lfunc_end95:
	.size	_ZN4llvm23SmallVectorTemplateBaseIcLb1EE13destroy_rangeEPcS2_, .Lfunc_end95-_ZN4llvm23SmallVectorTemplateBaseIcLb1EE13destroy_rangeEPcS2_
	.cfi_endproc
                                        # -- End function
	.section	.text._ZN4llvm25SmallVectorTemplateCommonIcvE5beginEv,"axG",@progbits,_ZN4llvm25SmallVectorTemplateCommonIcvE5beginEv,comdat
	.weak	_ZN4llvm25SmallVectorTemplateCommonIcvE5beginEv # -- Begin function _ZN4llvm25SmallVectorTemplateCommonIcvE5beginEv
	.p2align	4
	.type	_ZN4llvm25SmallVectorTemplateCommonIcvE5beginEv,@function
_ZN4llvm25SmallVectorTemplateCommonIcvE5beginEv: # @_ZN4llvm25SmallVectorTemplateCommonIcvE5beginEv
	.cfi_startproc
# %bb.0:
	pushq	%rbp
	.cfi_def_cfa_offset 16
	.cfi_offset %rbp, -16
	movq	%rsp, %rbp
	.cfi_def_cfa_register %rbp
	movq	%rdi, -8(%rbp)
	movq	-8(%rbp), %rax
	movq	(%rax), %rax
	popq	%rbp
	.cfi_def_cfa %rsp, 8
	retq
.Lfunc_end96:
	.size	_ZN4llvm25SmallVectorTemplateCommonIcvE5beginEv, .Lfunc_end96-_ZN4llvm25SmallVectorTemplateCommonIcvE5beginEv
	.cfi_endproc
                                        # -- End function
	.section	.text._ZN4llvm25SmallVectorTemplateCommonIcvE3endEv,"axG",@progbits,_ZN4llvm25SmallVectorTemplateCommonIcvE3endEv,comdat
	.weak	_ZN4llvm25SmallVectorTemplateCommonIcvE3endEv # -- Begin function _ZN4llvm25SmallVectorTemplateCommonIcvE3endEv
	.p2align	4
	.type	_ZN4llvm25SmallVectorTemplateCommonIcvE3endEv,@function
_ZN4llvm25SmallVectorTemplateCommonIcvE3endEv: # @_ZN4llvm25SmallVectorTemplateCommonIcvE3endEv
	.cfi_startproc
# %bb.0:
	pushq	%rbp
	.cfi_def_cfa_offset 16
	.cfi_offset %rbp, -16
	movq	%rsp, %rbp
	.cfi_def_cfa_register %rbp
	subq	$32, %rsp
	movq	%rdi, -8(%rbp)
	movq	-8(%rbp), %rdi
	movq	%rdi, -24(%rbp)                 # 8-byte Spill
	callq	_ZN4llvm25SmallVectorTemplateCommonIcvE5beginEv
	movq	-24(%rbp), %rdi                 # 8-byte Reload
	movq	%rax, -16(%rbp)                 # 8-byte Spill
	callq	_ZNK4llvm15SmallVectorBaseImE4sizeEv@PLT
	movq	%rax, %rcx
	movq	-16(%rbp), %rax                 # 8-byte Reload
	addq	%rcx, %rax
	addq	$32, %rsp
	popq	%rbp
	.cfi_def_cfa %rsp, 8
	retq
.Lfunc_end97:
	.size	_ZN4llvm25SmallVectorTemplateCommonIcvE3endEv, .Lfunc_end97-_ZN4llvm25SmallVectorTemplateCommonIcvE3endEv
	.cfi_endproc
                                        # -- End function
	.section	.text._ZN4llvm15SmallVectorImplIcED2Ev,"axG",@progbits,_ZN4llvm15SmallVectorImplIcED2Ev,comdat
	.weak	_ZN4llvm15SmallVectorImplIcED2Ev # -- Begin function _ZN4llvm15SmallVectorImplIcED2Ev
	.p2align	4
	.type	_ZN4llvm15SmallVectorImplIcED2Ev,@function
_ZN4llvm15SmallVectorImplIcED2Ev:       # @_ZN4llvm15SmallVectorImplIcED2Ev
.Lfunc_begin16:
	.cfi_startproc
	.cfi_personality 155, DW.ref.__gxx_personality_v0
	.cfi_lsda 27, .Lexception16
# %bb.0:
	pushq	%rbp
	.cfi_def_cfa_offset 16
	.cfi_offset %rbp, -16
	movq	%rsp, %rbp
	.cfi_def_cfa_register %rbp
	subq	$32, %rsp
	movq	%rdi, -8(%rbp)
	movq	-8(%rbp), %rdi
	movq	%rdi, -24(%rbp)                 # 8-byte Spill
.Ltmp225:
	callq	_ZNK4llvm25SmallVectorTemplateCommonIcvE7isSmallEv
.Ltmp226:
	movb	%al, -9(%rbp)                   # 1-byte Spill
	jmp	.LBB98_1
.LBB98_1:
	movb	-9(%rbp), %al                   # 1-byte Reload
	testb	$1, %al
	jne	.LBB98_3
	jmp	.LBB98_2
.LBB98_2:
	movq	-24(%rbp), %rdi                 # 8-byte Reload
	callq	_ZN4llvm25SmallVectorTemplateCommonIcvE5beginEv
	movq	%rax, %rdi
	callq	free@PLT
.LBB98_3:
	addq	$32, %rsp
	popq	%rbp
	.cfi_def_cfa %rsp, 8
	retq
.LBB98_4:
	.cfi_def_cfa %rbp, 16
.Ltmp227:
	movq	%rax, %rdi
                                        # kill: def $eax killed $edx killed $rdx
	callq	__clang_call_terminate
.Lfunc_end98:
	.size	_ZN4llvm15SmallVectorImplIcED2Ev, .Lfunc_end98-_ZN4llvm15SmallVectorImplIcED2Ev
	.cfi_endproc
	.section	.gcc_except_table._ZN4llvm15SmallVectorImplIcED2Ev,"aG",@progbits,_ZN4llvm15SmallVectorImplIcED2Ev,comdat
	.p2align	2, 0x0
GCC_except_table98:
.Lexception16:
	.byte	255                             # @LPStart Encoding = omit
	.byte	155                             # @TType Encoding = indirect pcrel sdata4
	.uleb128 .Lttbase7-.Lttbaseref7
.Lttbaseref7:
	.byte	1                               # Call site Encoding = uleb128
	.uleb128 .Lcst_end16-.Lcst_begin16
.Lcst_begin16:
	.uleb128 .Ltmp225-.Lfunc_begin16        # >> Call Site 1 <<
	.uleb128 .Ltmp226-.Ltmp225              #   Call between .Ltmp225 and .Ltmp226
	.uleb128 .Ltmp227-.Lfunc_begin16        #     jumps to .Ltmp227
	.byte	1                               #   On action: 1
.Lcst_end16:
	.byte	1                               # >> Action Record 1 <<
                                        #   Catch TypeInfo 1
	.byte	0                               #   No further actions
	.p2align	2, 0x0
                                        # >> Catch TypeInfos <<
	.long	0                               # TypeInfo 1
.Lttbase7:
	.p2align	2, 0x0
                                        # -- End function
	.section	.text._ZNK4llvm25SmallVectorTemplateCommonIcvE7isSmallEv,"axG",@progbits,_ZNK4llvm25SmallVectorTemplateCommonIcvE7isSmallEv,comdat
	.weak	_ZNK4llvm25SmallVectorTemplateCommonIcvE7isSmallEv # -- Begin function _ZNK4llvm25SmallVectorTemplateCommonIcvE7isSmallEv
	.p2align	4
	.type	_ZNK4llvm25SmallVectorTemplateCommonIcvE7isSmallEv,@function
_ZNK4llvm25SmallVectorTemplateCommonIcvE7isSmallEv: # @_ZNK4llvm25SmallVectorTemplateCommonIcvE7isSmallEv
	.cfi_startproc
# %bb.0:
	pushq	%rbp
	.cfi_def_cfa_offset 16
	.cfi_offset %rbp, -16
	movq	%rsp, %rbp
	.cfi_def_cfa_register %rbp
	subq	$16, %rsp
	movq	%rdi, -8(%rbp)
	movq	-8(%rbp), %rdi
	movq	(%rdi), %rax
	movq	%rax, -16(%rbp)                 # 8-byte Spill
	callq	_ZNK4llvm25SmallVectorTemplateCommonIcvE10getFirstElEv
	movq	%rax, %rcx
	movq	-16(%rbp), %rax                 # 8-byte Reload
	cmpq	%rcx, %rax
	sete	%al
	andb	$1, %al
	addq	$16, %rsp
	popq	%rbp
	.cfi_def_cfa %rsp, 8
	retq
.Lfunc_end99:
	.size	_ZNK4llvm25SmallVectorTemplateCommonIcvE7isSmallEv, .Lfunc_end99-_ZNK4llvm25SmallVectorTemplateCommonIcvE7isSmallEv
	.cfi_endproc
                                        # -- End function
	.section	.text._ZNK5clang11PresumedLoc7getLineEv,"axG",@progbits,_ZNK5clang11PresumedLoc7getLineEv,comdat
	.weak	_ZNK5clang11PresumedLoc7getLineEv # -- Begin function _ZNK5clang11PresumedLoc7getLineEv
	.p2align	4
	.type	_ZNK5clang11PresumedLoc7getLineEv,@function
_ZNK5clang11PresumedLoc7getLineEv:      # @_ZNK5clang11PresumedLoc7getLineEv
	.cfi_startproc
# %bb.0:
	pushq	%rbp
	.cfi_def_cfa_offset 16
	.cfi_offset %rbp, -16
	movq	%rsp, %rbp
	.cfi_def_cfa_register %rbp
	subq	$16, %rsp
	movq	%rdi, -8(%rbp)
	movq	-8(%rbp), %rdi
	movq	%rdi, -16(%rbp)                 # 8-byte Spill
	callq	_ZNK5clang11PresumedLoc7isValidEv
	testb	$1, %al
	jne	.LBB100_1
	jmp	.LBB100_2
.LBB100_1:
	jmp	.LBB100_3
.LBB100_2:
	leaq	.L.str.29(%rip), %rdi
	leaq	.L.str.30(%rip), %rsi
	movl	$341, %edx                      # imm = 0x155
	leaq	.L__PRETTY_FUNCTION__._ZNK5clang11PresumedLoc7getLineEv(%rip), %rcx
	callq	__assert_fail@PLT
.LBB100_3:
	movq	-16(%rbp), %rax                 # 8-byte Reload
	movl	12(%rax), %eax
	addq	$16, %rsp
	popq	%rbp
	.cfi_def_cfa %rsp, 8
	retq
.Lfunc_end100:
	.size	_ZNK5clang11PresumedLoc7getLineEv, .Lfunc_end100-_ZNK5clang11PresumedLoc7getLineEv
	.cfi_endproc
                                        # -- End function
	.section	.text._ZNK5clang11PresumedLoc9getColumnEv,"axG",@progbits,_ZNK5clang11PresumedLoc9getColumnEv,comdat
	.weak	_ZNK5clang11PresumedLoc9getColumnEv # -- Begin function _ZNK5clang11PresumedLoc9getColumnEv
	.p2align	4
	.type	_ZNK5clang11PresumedLoc9getColumnEv,@function
_ZNK5clang11PresumedLoc9getColumnEv:    # @_ZNK5clang11PresumedLoc9getColumnEv
	.cfi_startproc
# %bb.0:
	pushq	%rbp
	.cfi_def_cfa_offset 16
	.cfi_offset %rbp, -16
	movq	%rsp, %rbp
	.cfi_def_cfa_register %rbp
	subq	$16, %rsp
	movq	%rdi, -8(%rbp)
	movq	-8(%rbp), %rdi
	movq	%rdi, -16(%rbp)                 # 8-byte Spill
	callq	_ZNK5clang11PresumedLoc7isValidEv
	testb	$1, %al
	jne	.LBB101_1
	jmp	.LBB101_2
.LBB101_1:
	jmp	.LBB101_3
.LBB101_2:
	leaq	.L.str.29(%rip), %rdi
	leaq	.L.str.30(%rip), %rsi
	movl	$349, %edx                      # imm = 0x15D
	leaq	.L__PRETTY_FUNCTION__._ZNK5clang11PresumedLoc9getColumnEv(%rip), %rcx
	callq	__assert_fail@PLT
.LBB101_3:
	movq	-16(%rbp), %rax                 # 8-byte Reload
	movl	16(%rax), %eax
	addq	$16, %rsp
	popq	%rbp
	.cfi_def_cfa %rsp, 8
	retq
.Lfunc_end101:
	.size	_ZNK5clang11PresumedLoc9getColumnEv, .Lfunc_end101-_ZNK5clang11PresumedLoc9getColumnEv
	.cfi_endproc
                                        # -- End function
	.section	.text._ZNSt7__cxx1112basic_stringIcSt11char_traitsIcESaIcEEC2IS3_EEPKcRKS3_,"axG",@progbits,_ZNSt7__cxx1112basic_stringIcSt11char_traitsIcESaIcEEC2IS3_EEPKcRKS3_,comdat
	.weak	_ZNSt7__cxx1112basic_stringIcSt11char_traitsIcESaIcEEC2IS3_EEPKcRKS3_ # -- Begin function _ZNSt7__cxx1112basic_stringIcSt11char_traitsIcESaIcEEC2IS3_EEPKcRKS3_
	.p2align	4
	.type	_ZNSt7__cxx1112basic_stringIcSt11char_traitsIcESaIcEEC2IS3_EEPKcRKS3_,@function
_ZNSt7__cxx1112basic_stringIcSt11char_traitsIcESaIcEEC2IS3_EEPKcRKS3_: # @_ZNSt7__cxx1112basic_stringIcSt11char_traitsIcESaIcEEC2IS3_EEPKcRKS3_
.Lfunc_begin17:
	.cfi_startproc
	.cfi_personality 155, DW.ref.__gxx_personality_v0
	.cfi_lsda 27, .Lexception17
# %bb.0:
	pushq	%rbp
	.cfi_def_cfa_offset 16
	.cfi_offset %rbp, -16
	movq	%rsp, %rbp
	.cfi_def_cfa_register %rbp
	subq	$80, %rsp
	movq	%rdi, -8(%rbp)
	movq	%rsi, -16(%rbp)
	movq	%rdx, -24(%rbp)
	movq	-8(%rbp), %rdi
	movq	%rdi, -64(%rbp)                 # 8-byte Spill
	callq	_ZNSt7__cxx1112basic_stringIcSt11char_traitsIcESaIcEE13_M_local_dataEv
	movq	-64(%rbp), %rdi                 # 8-byte Reload
	movq	%rax, %rsi
	movq	-24(%rbp), %rdx
	callq	_ZNSt7__cxx1112basic_stringIcSt11char_traitsIcESaIcEE12_Alloc_hiderC2EPcRKS3_
	cmpq	$0, -16(%rbp)
	jne	.LBB102_4
# %bb.1:
.Ltmp230:
	leaq	.L.str.31(%rip), %rdi
	callq	_ZSt19__throw_logic_errorPKc@PLT
.Ltmp231:
	jmp	.LBB102_2
.LBB102_2:
.LBB102_3:
.Ltmp232:
	movq	-64(%rbp), %rdi                 # 8-byte Reload
	movq	%rax, %rcx
	movl	%edx, %eax
	movq	%rcx, -32(%rbp)
	movl	%eax, -36(%rbp)
	callq	_ZNSt7__cxx1112basic_stringIcSt11char_traitsIcESaIcEE12_Alloc_hiderD2Ev
	jmp	.LBB102_6
.LBB102_4:
	movq	-16(%rbp), %rdi
	movq	%rdi, -72(%rbp)                 # 8-byte Spill
	callq	_ZNSt11char_traitsIcE6lengthEPKc
	movq	-64(%rbp), %rdi                 # 8-byte Reload
	movq	%rax, %rcx
	movq	-72(%rbp), %rax                 # 8-byte Reload
	addq	%rcx, %rax
	movq	%rax, -48(%rbp)
	movq	-16(%rbp), %rsi
	movq	-48(%rbp), %rdx
.Ltmp228:
	callq	_ZNSt7__cxx1112basic_stringIcSt11char_traitsIcESaIcEE12_M_constructIPKcEEvT_S8_St20forward_iterator_tag
.Ltmp229:
	jmp	.LBB102_5
.LBB102_5:
	addq	$80, %rsp
	popq	%rbp
	.cfi_def_cfa %rsp, 8
	retq
.LBB102_6:
	.cfi_def_cfa %rbp, 16
	movq	-32(%rbp), %rdi
	callq	_Unwind_Resume@PLT
.Lfunc_end102:
	.size	_ZNSt7__cxx1112basic_stringIcSt11char_traitsIcESaIcEEC2IS3_EEPKcRKS3_, .Lfunc_end102-_ZNSt7__cxx1112basic_stringIcSt11char_traitsIcESaIcEEC2IS3_EEPKcRKS3_
	.cfi_endproc
	.section	.gcc_except_table._ZNSt7__cxx1112basic_stringIcSt11char_traitsIcESaIcEEC2IS3_EEPKcRKS3_,"aG",@progbits,_ZNSt7__cxx1112basic_stringIcSt11char_traitsIcESaIcEEC2IS3_EEPKcRKS3_,comdat
	.p2align	2, 0x0
GCC_except_table102:
.Lexception17:
	.byte	255                             # @LPStart Encoding = omit
	.byte	255                             # @TType Encoding = omit
	.byte	1                               # Call site Encoding = uleb128
	.uleb128 .Lcst_end17-.Lcst_begin17
.Lcst_begin17:
	.uleb128 .Ltmp230-.Lfunc_begin17        # >> Call Site 1 <<
	.uleb128 .Ltmp229-.Ltmp230              #   Call between .Ltmp230 and .Ltmp229
	.uleb128 .Ltmp232-.Lfunc_begin17        #     jumps to .Ltmp232
	.byte	0                               #   On action: cleanup
	.uleb128 .Ltmp229-.Lfunc_begin17        # >> Call Site 2 <<
	.uleb128 .Lfunc_end102-.Ltmp229         #   Call between .Ltmp229 and .Lfunc_end102
	.byte	0                               #     has no landing pad
	.byte	0                               #   On action: cleanup
.Lcst_end17:
	.p2align	2, 0x0
                                        # -- End function
	.section	.text._Z14quoteCppStringRNSt7__cxx1112basic_stringIcSt11char_traitsIcESaIcEEE,"axG",@progbits,_Z14quoteCppStringRNSt7__cxx1112basic_stringIcSt11char_traitsIcESaIcEEE,comdat
