; ModuleID = 'CodeCompletion.cpp'
source_filename = "CodeCompletion.cpp"
target datalayout = "e-m:e-p270:32:32-p271:32:32-p272:64:64-i64:64-i128:128-f80:128-n8:16:32:64-S128"
target triple = "x86_64-pc-linux-gnu"

module asm ".globl _ZSt21ios_base_library_initv"

%"class.std::basic_ostream" = type { ptr, %"class.std::basic_ios" }
%"class.std::basic_ios" = type { %"class.std::ios_base", ptr, i8, i8, ptr, ptr, ptr, ptr }
%"class.std::ios_base" = type { ptr, i64, i64, i32, i32, i32, ptr, %"struct.std::ios_base::_Words", [8 x %"struct.std::ios_base::_Words"], i32, ptr, %"class.std::locale" }
%"struct.std::ios_base::_Words" = type { ptr, i64 }
%"class.std::locale" = type { ptr }
%"struct.nlohmann::detail::to_json_fn" = type { i8 }
%"struct.std::piecewise_construct_t" = type { i8 }
%"class.llvm::StringRef" = type { ptr, i64 }
%"class.clang::ConstructionContextItem" = type { ptr, i32, i32 }
%"class.std::vector" = type { %"struct.std::_Vector_base" }
%"struct.std::_Vector_base" = type { %"struct.std::_Vector_base<std::__cxx11::basic_string<char>, std::allocator<std::__cxx11::basic_string<char>>>::_Vector_impl" }
%"struct.std::_Vector_base<std::__cxx11::basic_string<char>, std::allocator<std::__cxx11::basic_string<char>>>::_Vector_impl" = type { %"struct.std::_Vector_base<std::__cxx11::basic_string<char>, std::allocator<std::__cxx11::basic_string<char>>>::_Vector_impl_data" }
%"struct.std::_Vector_base<std::__cxx11::basic_string<char>, std::allocator<std::__cxx11::basic_string<char>>>::_Vector_impl_data" = type { ptr, ptr, ptr }
%"class.__gnu_cxx::__normal_iterator" = type { ptr }
%"class.std::__cxx11::basic_string" = type { %"struct.std::__cxx11::basic_string<char>::_Alloc_hider", i64, %union.anon }
%"struct.std::__cxx11::basic_string<char>::_Alloc_hider" = type { ptr }
%union.anon = type { i64, [8 x i8] }
%"class.std::allocator.0" = type { i8 }
%"class.std::__cxx11::basic_istringstream" = type { %"class.std::basic_istream.base", %"class.std::__cxx11::basic_stringbuf", %"class.std::basic_ios" }
%"class.std::basic_istream.base" = type { ptr, i64 }
%"class.std::__cxx11::basic_stringbuf" = type { %"class.std::basic_streambuf", i32, %"class.std::__cxx11::basic_string" }
%"class.std::basic_streambuf" = type { ptr, ptr, ptr, ptr, ptr, ptr, ptr, %"class.std::locale" }
%"struct.std::forward_iterator_tag" = type { i8 }
%"class.std::__cxx11::basic_stringstream" = type { %"class.std::basic_iostream.base", %"class.std::__cxx11::basic_stringbuf", %"class.std::basic_ios" }
%"class.std::basic_iostream.base" = type { %"class.std::basic_istream.base", %"class.std::basic_ostream.base" }
%"class.std::basic_ostream.base" = type { ptr }
%"class.clang::CompilerInstance" = type { %"class.clang::ModuleLoader.base", %"class.std::shared_ptr", %"class.llvm::IntrusiveRefCntPtr", %"class.llvm::IntrusiveRefCntPtr.3", %"class.llvm::IntrusiveRefCntPtr.3", %"class.llvm::IntrusiveRefCntPtr.4", %"class.llvm::IntrusiveRefCntPtr.5", %"class.llvm::IntrusiveRefCntPtr.6", %"class.std::shared_ptr.7", %"class.llvm::IntrusiveRefCntPtr.10", %"class.llvm::IntrusiveRefCntPtr.11", %"class.std::unique_ptr", %"class.std::unique_ptr.14", %"class.std::unique_ptr.22", %"class.std::unique_ptr.30", %"class.std::unique_ptr.38", %"class.llvm::IntrusiveRefCntPtr.46", %"class.std::shared_ptr.47", %"class.std::shared_ptr.50", %"class.std::vector.53", %"class.std::shared_ptr.58", %"class.std::map", i8, %"class.clang::SourceLocation", %"class.clang::ModuleLoadResult", i8, i8, i8, %"class.std::unique_ptr.64", ptr, %"class.std::__cxx11::list", %"class.std::unique_ptr.75" }
%"class.clang::ModuleLoader.base" = type <{ ptr, i8, i8 }>
%"class.std::shared_ptr" = type { %"class.std::__shared_ptr" }
%"class.std::__shared_ptr" = type { ptr, %"class.std::__shared_count" }
%"class.std::__shared_count" = type { ptr }
%"class.llvm::IntrusiveRefCntPtr" = type { ptr }
%"class.llvm::IntrusiveRefCntPtr.3" = type { ptr }
%"class.llvm::IntrusiveRefCntPtr.4" = type { ptr }
%"class.llvm::IntrusiveRefCntPtr.5" = type { ptr }
%"class.llvm::IntrusiveRefCntPtr.6" = type { ptr }
%"class.std::shared_ptr.7" = type { %"class.std::__shared_ptr.8" }
%"class.std::__shared_ptr.8" = type { ptr, %"class.std::__shared_count" }
%"class.llvm::IntrusiveRefCntPtr.10" = type { ptr }
%"class.llvm::IntrusiveRefCntPtr.11" = type { ptr }
%"class.std::unique_ptr" = type { %"struct.std::__uniq_ptr_data" }
%"struct.std::__uniq_ptr_data" = type { %"class.std::__uniq_ptr_impl" }
%"class.std::__uniq_ptr_impl" = type { %"class.std::tuple" }
%"class.std::tuple" = type { %"struct.std::_Tuple_impl" }
%"struct.std::_Tuple_impl" = type { %"struct.std::_Head_base.13" }
%"struct.std::_Head_base.13" = type { ptr }
%"class.std::unique_ptr.14" = type { %"struct.std::__uniq_ptr_data.15" }
%"struct.std::__uniq_ptr_data.15" = type { %"class.std::__uniq_ptr_impl.16" }
%"class.std::__uniq_ptr_impl.16" = type { %"class.std::tuple.17" }
%"class.std::tuple.17" = type { %"struct.std::_Tuple_impl.18" }
%"struct.std::_Tuple_impl.18" = type { %"struct.std::_Head_base.21" }
%"struct.std::_Head_base.21" = type { ptr }
%"class.std::unique_ptr.22" = type { %"struct.std::__uniq_ptr_data.23" }
%"struct.std::__uniq_ptr_data.23" = type { %"class.std::__uniq_ptr_impl.24" }
%"class.std::__uniq_ptr_impl.24" = type { %"class.std::tuple.25" }
%"class.std::tuple.25" = type { %"struct.std::_Tuple_impl.26" }
%"struct.std::_Tuple_impl.26" = type { %"struct.std::_Head_base.29" }
%"struct.std::_Head_base.29" = type { ptr }
%"class.std::unique_ptr.30" = type { %"struct.std::__uniq_ptr_data.31" }
%"struct.std::__uniq_ptr_data.31" = type { %"class.std::__uniq_ptr_impl.32" }
%"class.std::__uniq_ptr_impl.32" = type { %"class.std::tuple.33" }
%"class.std::tuple.33" = type { %"struct.std::_Tuple_impl.34" }
%"struct.std::_Tuple_impl.34" = type { %"struct.std::_Head_base.37" }
%"struct.std::_Head_base.37" = type { ptr }
%"class.std::unique_ptr.38" = type { %"struct.std::__uniq_ptr_data.39" }
%"struct.std::__uniq_ptr_data.39" = type { %"class.std::__uniq_ptr_impl.40" }
%"class.std::__uniq_ptr_impl.40" = type { %"class.std::tuple.41" }
%"class.std::tuple.41" = type { %"struct.std::_Tuple_impl.42" }
%"struct.std::_Tuple_impl.42" = type { %"struct.std::_Head_base.45" }
%"struct.std::_Head_base.45" = type { ptr }
%"class.llvm::IntrusiveRefCntPtr.46" = type { ptr }
%"class.std::shared_ptr.47" = type { %"class.std::__shared_ptr.48" }
%"class.std::__shared_ptr.48" = type { ptr, %"class.std::__shared_count" }
%"class.std::shared_ptr.50" = type { %"class.std::__shared_ptr.51" }
%"class.std::__shared_ptr.51" = type { ptr, %"class.std::__shared_count" }
%"class.std::vector.53" = type { %"struct.std::_Vector_base.54" }
%"struct.std::_Vector_base.54" = type { %"struct.std::_Vector_base<std::shared_ptr<clang::DependencyCollector>, std::allocator<std::shared_ptr<clang::DependencyCollector>>>::_Vector_impl" }
%"struct.std::_Vector_base<std::shared_ptr<clang::DependencyCollector>, std::allocator<std::shared_ptr<clang::DependencyCollector>>>::_Vector_impl" = type { %"struct.std::_Vector_base<std::shared_ptr<clang::DependencyCollector>, std::allocator<std::shared_ptr<clang::DependencyCollector>>>::_Vector_impl_data" }
%"struct.std::_Vector_base<std::shared_ptr<clang::DependencyCollector>, std::allocator<std::shared_ptr<clang::DependencyCollector>>>::_Vector_impl_data" = type { ptr, ptr, ptr }
%"class.std::shared_ptr.58" = type { %"class.std::__shared_ptr.59" }
%"class.std::__shared_ptr.59" = type { ptr, %"class.std::__shared_count" }
%"class.std::map" = type { %"class.std::_Rb_tree" }
%"class.std::_Rb_tree" = type { %"struct.std::_Rb_tree<std::__cxx11::basic_string<char>, std::pair<const std::__cxx11::basic_string<char>, std::__cxx11::basic_string<char>>, std::_Select1st<std::pair<const std::__cxx11::basic_string<char>, std::__cxx11::basic_string<char>>>, std::less<void>>::_Rb_tree_impl" }
%"struct.std::_Rb_tree<std::__cxx11::basic_string<char>, std::pair<const std::__cxx11::basic_string<char>, std::__cxx11::basic_string<char>>, std::_Select1st<std::pair<const std::__cxx11::basic_string<char>, std::__cxx11::basic_string<char>>>, std::less<void>>::_Rb_tree_impl" = type { [8 x i8], %"struct.std::_Rb_tree_header" }
%"struct.std::_Rb_tree_header" = type { %"struct.std::_Rb_tree_node_base", i64 }
%"struct.std::_Rb_tree_node_base" = type { i32, ptr, ptr, ptr }
%"class.clang::SourceLocation" = type { i32 }
%"class.clang::ModuleLoadResult" = type { %"class.llvm::PointerIntPair" }
%"class.llvm::PointerIntPair" = type { %"struct.llvm::detail::PunnedPointer" }
%"struct.llvm::detail::PunnedPointer" = type { [8 x i8] }
%"class.std::unique_ptr.64" = type { %"struct.std::__uniq_ptr_data.65" }
%"struct.std::__uniq_ptr_data.65" = type { %"class.std::__uniq_ptr_impl.66" }
%"class.std::__uniq_ptr_impl.66" = type { %"class.std::tuple.67" }
%"class.std::tuple.67" = type { %"struct.std::_Tuple_impl.68" }
%"struct.std::_Tuple_impl.68" = type { %"struct.std::_Head_base.71" }
%"struct.std::_Head_base.71" = type { ptr }
%"class.std::__cxx11::list" = type { %"class.std::__cxx11::_List_base" }
%"class.std::__cxx11::_List_base" = type { %"struct.std::__cxx11::_List_base<clang::CompilerInstance::OutputFile, std::allocator<clang::CompilerInstance::OutputFile>>::_List_impl" }
%"struct.std::__cxx11::_List_base<clang::CompilerInstance::OutputFile, std::allocator<clang::CompilerInstance::OutputFile>>::_List_impl" = type { %"struct.std::__detail::_List_node_header" }
%"struct.std::__detail::_List_node_header" = type { %"struct.std::__detail::_List_node_base", %"struct.std::__detail::_List_size" }
%"struct.std::__detail::_List_node_base" = type { ptr, ptr }
%"struct.std::__detail::_List_size" = type { i64 }
%"class.std::unique_ptr.75" = type { %"struct.std::__uniq_ptr_data.76" }
%"struct.std::__uniq_ptr_data.76" = type { %"class.std::__uniq_ptr_impl.77" }
%"class.std::__uniq_ptr_impl.77" = type { %"class.std::tuple.78" }
%"class.std::tuple.78" = type { %"struct.std::_Tuple_impl.79" }
%"struct.std::_Tuple_impl.79" = type { %"struct.std::_Head_base.82" }
%"struct.std::_Head_base.82" = type { ptr }
%"class.std::shared_ptr.83" = type { %"class.std::__shared_ptr.84" }
%"class.std::__shared_ptr.84" = type { ptr, %"class.std::__shared_count" }
%"class.llvm::IntrusiveRefCntPtr.127" = type { ptr }
%"class.clang::CodeCompleteOptions" = type { i8, [3 x i8] }
%"class.clang::FrontendInputFile" = type <{ %"class.std::__cxx11::basic_string", %"class.std::optional.303", %"class.clang::InputKind", i8, [3 x i8] }>
%"class.std::optional.303" = type { %"struct.std::_Optional_base.304" }
%"struct.std::_Optional_base.304" = type { %"struct.std::_Optional_payload.306" }
%"struct.std::_Optional_payload.306" = type { %"struct.std::_Optional_payload_base.base.308", [7 x i8] }
%"struct.std::_Optional_payload_base.base.308" = type <{ %"union.std::_Optional_payload_base<llvm::MemoryBufferRef>::_Storage", i8 }>
%"union.std::_Optional_payload_base<llvm::MemoryBufferRef>::_Storage" = type { %"class.llvm::MemoryBufferRef" }
%"class.llvm::MemoryBufferRef" = type { %"class.llvm::StringRef", %"class.llvm::StringRef" }
%"class.clang::InputKind" = type { i8, i8, [2 x i8] }
%"class.std::unique_ptr.237" = type { %"struct.std::__uniq_ptr_data.238" }
%"struct.std::__uniq_ptr_data.238" = type { %"class.std::__uniq_ptr_impl.239" }
%"class.std::__uniq_ptr_impl.239" = type { %"class.std::tuple.240" }
%"class.std::tuple.240" = type { %"struct.std::_Tuple_impl.241" }
%"struct.std::_Tuple_impl.241" = type { %"struct.std::_Head_base.244" }
%"struct.std::_Head_base.244" = type { ptr }
%"class.clang::SyntaxOnlyAction" = type { %"class.clang::ASTFrontendAction" }
%"class.clang::ASTFrontendAction" = type { %"class.clang::FrontendAction" }
%"class.clang::FrontendAction" = type { ptr, %"class.clang::FrontendInputFile", %"class.std::unique_ptr.338", ptr }
%"class.std::unique_ptr.338" = type { %"struct.std::__uniq_ptr_data.339" }
%"struct.std::__uniq_ptr_data.339" = type { %"class.std::__uniq_ptr_impl.340" }
%"class.std::__uniq_ptr_impl.340" = type { %"class.std::tuple.341" }
%"class.std::tuple.341" = type { %"struct.std::_Tuple_impl.342" }
%"struct.std::_Tuple_impl.342" = type { %"struct.std::_Head_base.345" }
%"struct.std::_Head_base.345" = type { ptr }
%"class.llvm::Error" = type { ptr }
%"class.clang::TargetOptions" = type { %"class.std::__cxx11::basic_string", %"class.std::__cxx11::basic_string", %"class.std::__cxx11::basic_string", %"class.std::__cxx11::basic_string", %"class.std::__cxx11::basic_string", %"class.std::__cxx11::basic_string", i32, %"class.std::__cxx11::basic_string", %"class.std::vector", %"class.std::vector", %"class.llvm::StringMap", %"class.llvm::StringMap", %"class.std::vector", i8, i8, i8, i32, i32, %"class.std::__cxx11::basic_string", i64, %"class.llvm::VersionTuple", %"class.std::__cxx11::basic_string", %"class.llvm::VersionTuple", %"class.std::__cxx11::basic_string", %"class.std::__cxx11::basic_string" }
%"class.llvm::StringMap" = type { %"class.llvm::StringMapImpl" }
%"class.llvm::StringMapImpl" = type { ptr, i32, i32, i32, i32 }
%"class.llvm::VersionTuple" = type { i64, i64 }
%"class.clang::FrontendOptions" = type { i64, %"class.clang::CodeCompleteOptions", i32, i32, i32, %"class.std::__cxx11::basic_string", %"class.std::__cxx11::basic_string", %"class.std::__cxx11::basic_string", %"class.clang::InputKind", %"class.llvm::SmallVector.269", %"class.std::__cxx11::basic_string", %"class.std::__cxx11::basic_string", %"class.std::__cxx11::basic_string", %"class.std::__cxx11::basic_string", %"struct.clang::ParsedSourceLocation", i32, %"class.std::__cxx11::basic_string", %"class.std::__cxx11::basic_string", %"class.std::vector", %"class.std::__cxx11::basic_string", %"class.std::map.274", %"class.std::vector", %"class.std::vector", %"class.std::vector.280", %"class.std::vector", %"class.std::vector", %"class.std::vector", %"class.std::vector", %"class.std::vector", %"class.std::__cxx11::basic_string", %"class.std::__cxx11::basic_string", %"class.std::optional.285", %"class.std::optional.294", %"class.std::__cxx11::basic_string", i32, i8, %"class.std::__cxx11::basic_string", %"class.std::__cxx11::basic_string" }
%"class.llvm::SmallVector.269" = type { %"class.llvm::SmallVectorImpl.270" }
%"class.llvm::SmallVectorImpl.270" = type { %"class.llvm::SmallVectorTemplateBase.271" }
%"class.llvm::SmallVectorTemplateBase.271" = type { %"class.llvm::SmallVectorTemplateCommon.272" }
%"class.llvm::SmallVectorTemplateCommon.272" = type { %"class.llvm::SmallVectorBase" }
%"class.llvm::SmallVectorBase" = type { ptr, i32, i32 }
%"struct.clang::ParsedSourceLocation" = type { %"class.std::__cxx11::basic_string", i32, i32 }
%"class.std::map.274" = type { %"class.std::_Rb_tree.275" }
%"class.std::_Rb_tree.275" = type { %"struct.std::_Rb_tree<std::__cxx11::basic_string<char>, std::pair<const std::__cxx11::basic_string<char>, std::vector<std::__cxx11::basic_string<char>>>, std::_Select1st<std::pair<const std::__cxx11::basic_string<char>, std::vector<std::__cxx11::basic_string<char>>>>, std::less<std::__cxx11::basic_string<char>>>::_Rb_tree_impl" }
%"struct.std::_Rb_tree<std::__cxx11::basic_string<char>, std::pair<const std::__cxx11::basic_string<char>, std::vector<std::__cxx11::basic_string<char>>>, std::_Select1st<std::pair<const std::__cxx11::basic_string<char>, std::vector<std::__cxx11::basic_string<char>>>>, std::less<std::__cxx11::basic_string<char>>>::_Rb_tree_impl" = type { [8 x i8], %"struct.std::_Rb_tree_header" }
%"class.std::vector.280" = type { %"struct.std::_Vector_base.281" }
%"struct.std::_Vector_base.281" = type { %"struct.std::_Vector_base<std::shared_ptr<clang::ModuleFileExtension>, std::allocator<std::shared_ptr<clang::ModuleFileExtension>>>::_Vector_impl" }
%"struct.std::_Vector_base<std::shared_ptr<clang::ModuleFileExtension>, std::allocator<std::shared_ptr<clang::ModuleFileExtension>>>::_Vector_impl" = type { %"struct.std::_Vector_base<std::shared_ptr<clang::ModuleFileExtension>, std::allocator<std::shared_ptr<clang::ModuleFileExtension>>>::_Vector_impl_data" }
%"struct.std::_Vector_base<std::shared_ptr<clang::ModuleFileExtension>, std::allocator<std::shared_ptr<clang::ModuleFileExtension>>>::_Vector_impl_data" = type { ptr, ptr, ptr }
%"class.std::optional.285" = type { %"struct.std::_Optional_base.286" }
%"struct.std::_Optional_base.286" = type { %"struct.std::_Optional_payload.287" }
%"struct.std::_Optional_payload.287" = type { %"struct.std::_Optional_payload.base.291", [7 x i8] }
%"struct.std::_Optional_payload.base.291" = type { %"struct.std::_Optional_payload_base.base.290" }
%"struct.std::_Optional_payload_base.base.290" = type <{ %"union.std::_Optional_payload_base<std::__cxx11::basic_string<char>>::_Storage", i8 }>
%"union.std::_Optional_payload_base<std::__cxx11::basic_string<char>>::_Storage" = type { %"class.std::__cxx11::basic_string" }
%"class.std::optional.294" = type { %"struct.std::_Optional_base.295" }
%"struct.std::_Optional_base.295" = type { %"struct.std::_Optional_payload.296" }
%"struct.std::_Optional_payload.296" = type { %"struct.std::_Optional_payload.base.300", [7 x i8] }
%"struct.std::_Optional_payload.base.300" = type { %"struct.std::_Optional_payload_base.base.299" }
%"struct.std::_Optional_payload_base.base.299" = type <{ %"union.std::_Optional_payload_base<std::vector<std::__cxx11::basic_string<char>>>::_Storage", i8 }>
%"union.std::_Optional_payload_base<std::vector<std::__cxx11::basic_string<char>>>::_Storage" = type { %"class.std::vector" }
%"class.std::allocator.401" = type { i8 }
%"struct.std::_Sp_alloc_shared_tag" = type { ptr }
%"class.std::shared_ptr.181" = type { %"class.std::__shared_ptr.182" }
%"class.std::__shared_ptr.182" = type { ptr, %"class.std::__shared_count" }
%"class.std::initializer_list" = type { ptr, i64 }
%class.CustomCodeCompleteConsumer = type { %"class.clang::CodeCompleteConsumer.base", %"class.clang::CodeCompletionTUInfo", %"class.nlohmann::basic_json", ptr }
%"class.clang::CodeCompleteConsumer.base" = type <{ ptr, %"class.clang::CodeCompleteOptions" }>
%"class.clang::CodeCompletionTUInfo" = type { %"class.llvm::DenseMap.178", %"class.std::shared_ptr.181" }
%"class.llvm::DenseMap.178" = type <{ ptr, i32, i32, i32, [4 x i8] }>
%"class.nlohmann::basic_json" = type { i8, %"union.nlohmann::basic_json<>::json_value" }
%"union.nlohmann::basic_json<>::json_value" = type { ptr }
%"class.clang::PreprocessorOptions" = type { %"class.std::vector.311", %"class.std::vector", %"class.std::vector", i8, i8, i8, i8, i8, i8, %"class.std::__cxx11::basic_string", %"class.std::__cxx11::basic_string", %"class.std::vector", i32, i8, i8, i8, %"class.std::set", %"struct.std::pair", i8, i8, i8, i8, i8, %"class.std::vector.320", %"class.std::vector.325", %"class.std::vector", i8, i8, i32, %"class.std::function", i8, i8, [6 x i8], %"class.std::optional.330" }
%"class.std::vector.311" = type { %"struct.std::_Vector_base.312" }
%"struct.std::_Vector_base.312" = type { %"struct.std::_Vector_base<std::pair<std::__cxx11::basic_string<char>, bool>, std::allocator<std::pair<std::__cxx11::basic_string<char>, bool>>>::_Vector_impl" }
%"struct.std::_Vector_base<std::pair<std::__cxx11::basic_string<char>, bool>, std::allocator<std::pair<std::__cxx11::basic_string<char>, bool>>>::_Vector_impl" = type { %"struct.std::_Vector_base<std::pair<std::__cxx11::basic_string<char>, bool>, std::allocator<std::pair<std::__cxx11::basic_string<char>, bool>>>::_Vector_impl_data" }
%"struct.std::_Vector_base<std::pair<std::__cxx11::basic_string<char>, bool>, std::allocator<std::pair<std::__cxx11::basic_string<char>, bool>>>::_Vector_impl_data" = type { ptr, ptr, ptr }
%"class.std::set" = type { %"class.std::_Rb_tree.316" }
%"class.std::_Rb_tree.316" = type { %"struct.std::_Rb_tree<std::__cxx11::basic_string<char>, std::__cxx11::basic_string<char>, std::_Identity<std::__cxx11::basic_string<char>>, std::less<std::__cxx11::basic_string<char>>>::_Rb_tree_impl" }
%"struct.std::_Rb_tree<std::__cxx11::basic_string<char>, std::__cxx11::basic_string<char>, std::_Identity<std::__cxx11::basic_string<char>>, std::less<std::__cxx11::basic_string<char>>>::_Rb_tree_impl" = type { [8 x i8], %"struct.std::_Rb_tree_header" }
%"struct.std::pair" = type <{ i32, i8, [3 x i8] }>
%"class.std::vector.320" = type { %"struct.std::_Vector_base.321" }
%"struct.std::_Vector_base.321" = type { %"struct.std::_Vector_base<std::pair<std::__cxx11::basic_string<char>, std::__cxx11::basic_string<char>>, std::allocator<std::pair<std::__cxx11::basic_string<char>, std::__cxx11::basic_string<char>>>>::_Vector_impl" }
%"struct.std::_Vector_base<std::pair<std::__cxx11::basic_string<char>, std::__cxx11::basic_string<char>>, std::allocator<std::pair<std::__cxx11::basic_string<char>, std::__cxx11::basic_string<char>>>>::_Vector_impl" = type { %"struct.std::_Vector_base<std::pair<std::__cxx11::basic_string<char>, std::__cxx11::basic_string<char>>, std::allocator<std::pair<std::__cxx11::basic_string<char>, std::__cxx11::basic_string<char>>>>::_Vector_impl_data" }
%"struct.std::_Vector_base<std::pair<std::__cxx11::basic_string<char>, std::__cxx11::basic_string<char>>, std::allocator<std::pair<std::__cxx11::basic_string<char>, std::__cxx11::basic_string<char>>>>::_Vector_impl_data" = type { ptr, ptr, ptr }
%"class.std::vector.325" = type { %"struct.std::_Vector_base.326" }
%"struct.std::_Vector_base.326" = type { %"struct.std::_Vector_base<std::pair<std::__cxx11::basic_string<char>, llvm::MemoryBuffer *>, std::allocator<std::pair<std::__cxx11::basic_string<char>, llvm::MemoryBuffer *>>>::_Vector_impl" }
%"struct.std::_Vector_base<std::pair<std::__cxx11::basic_string<char>, llvm::MemoryBuffer *>, std::allocator<std::pair<std::__cxx11::basic_string<char>, llvm::MemoryBuffer *>>>::_Vector_impl" = type { %"struct.std::_Vector_base<std::pair<std::__cxx11::basic_string<char>, llvm::MemoryBuffer *>, std::allocator<std::pair<std::__cxx11::basic_string<char>, llvm::MemoryBuffer *>>>::_Vector_impl_data" }
%"struct.std::_Vector_base<std::pair<std::__cxx11::basic_string<char>, llvm::MemoryBuffer *>, std::allocator<std::pair<std::__cxx11::basic_string<char>, llvm::MemoryBuffer *>>>::_Vector_impl_data" = type { ptr, ptr, ptr }
%"class.std::function" = type { %"class.std::_Function_base", ptr }
%"class.std::_Function_base" = type { %"union.std::_Any_data", ptr }
%"union.std::_Any_data" = type { %"union.std::_Nocopy_types" }
%"union.std::_Nocopy_types" = type { { i64, i64 } }
%"class.std::optional.330" = type { %"struct.std::_Optional_base.331" }
%"struct.std::_Optional_base.331" = type { %"struct.std::_Optional_payload.333" }
%"struct.std::_Optional_payload.333" = type { %"struct.std::_Optional_payload_base.base.335", [7 x i8] }
%"struct.std::_Optional_payload_base.base.335" = type <{ %"union.std::_Optional_payload_base<unsigned long>::_Storage", i8 }>
%"union.std::_Optional_payload_base<unsigned long>::_Storage" = type { i64 }
%"struct.std::vector<std::__cxx11::basic_string<char>>::_Guard_alloc" = type { ptr, i64, ptr }
%"class.std::_Sp_counted_base" = type { ptr, i32, i32 }
%"class.clang::CompilerInvocationBase" = type { %"class.std::shared_ptr.352", %"class.std::shared_ptr.83", %"class.llvm::IntrusiveRefCntPtr.87", %"class.std::shared_ptr.355", %"class.std::shared_ptr.358", %"class.llvm::IntrusiveRefCntPtr.361", %"class.std::shared_ptr.362", %"class.std::shared_ptr.365", %"class.std::shared_ptr.368", %"class.std::shared_ptr.371", %"class.std::shared_ptr.374", %"class.std::shared_ptr.377", %"class.std::shared_ptr.380" }
%"class.std::shared_ptr.352" = type { %"class.std::__shared_ptr.353" }
%"class.std::__shared_ptr.353" = type { ptr, %"class.std::__shared_count" }
%"class.llvm::IntrusiveRefCntPtr.87" = type { ptr }
%"class.std::shared_ptr.355" = type { %"class.std::__shared_ptr.356" }
%"class.std::__shared_ptr.356" = type { ptr, %"class.std::__shared_count" }
%"class.std::shared_ptr.358" = type { %"class.std::__shared_ptr.359" }
%"class.std::__shared_ptr.359" = type { ptr, %"class.std::__shared_count" }
%"class.llvm::IntrusiveRefCntPtr.361" = type { ptr }
%"class.std::shared_ptr.362" = type { %"class.std::__shared_ptr.363" }
%"class.std::__shared_ptr.363" = type { ptr, %"class.std::__shared_count" }
%"class.std::shared_ptr.365" = type { %"class.std::__shared_ptr.366" }
%"class.std::__shared_ptr.366" = type { ptr, %"class.std::__shared_count" }
%"class.std::shared_ptr.368" = type { %"class.std::__shared_ptr.369" }
%"class.std::__shared_ptr.369" = type { ptr, %"class.std::__shared_count" }
%"class.std::shared_ptr.371" = type { %"class.std::__shared_ptr.372" }
%"class.std::__shared_ptr.372" = type { ptr, %"class.std::__shared_count" }
%"class.std::shared_ptr.374" = type { %"class.std::__shared_ptr.375" }
%"class.std::__shared_ptr.375" = type { ptr, %"class.std::__shared_count" }
%"class.std::shared_ptr.377" = type { %"class.std::__shared_ptr.378" }
%"class.std::__shared_ptr.378" = type { ptr, %"class.std::__shared_count" }
%"class.std::shared_ptr.380" = type { %"class.std::__shared_ptr.381" }
%"class.std::__shared_ptr.381" = type { ptr, %"class.std::__shared_count" }
%"class.clang::CodeCompleteConsumer" = type <{ ptr, %"class.clang::CodeCompleteOptions", [4 x i8] }>
%"class.llvm::raw_string_ostream" = type { %"class.llvm::raw_ostream", ptr }
%"class.llvm::raw_ostream" = type { ptr, i32, ptr, ptr, ptr, i8, i32 }
%"class.clang::CodeCompletionResult" = type { ptr, %union.anon.383, i32, i32, i32, i32, i32, %"class.std::vector.384", i8, ptr, ptr, ptr }
%union.anon.383 = type { ptr }
%"class.std::vector.384" = type { %"struct.std::_Vector_base.385" }
%"struct.std::_Vector_base.385" = type { %"struct.std::_Vector_base<clang::FixItHint, std::allocator<clang::FixItHint>>::_Vector_impl" }
%"struct.std::_Vector_base<clang::FixItHint, std::allocator<clang::FixItHint>>::_Vector_impl" = type { %"struct.std::_Vector_base<clang::FixItHint, std::allocator<clang::FixItHint>>::_Vector_impl_data" }
%"struct.std::_Vector_base<clang::FixItHint, std::allocator<clang::FixItHint>>::_Vector_impl_data" = type { ptr, ptr, ptr }
%"class.std::allocator.402" = type { i8 }
%"struct.std::__allocated_ptr" = type { ptr, ptr }
%"class.std::_Sp_counted_ptr_inplace" = type { %"class.std::_Sp_counted_base", %"class.std::_Sp_counted_ptr_inplace<clang::GlobalCodeCompletionAllocator, std::allocator<void>, __gnu_cxx::_S_atomic>::_Impl" }
%"class.std::_Sp_counted_ptr_inplace<clang::GlobalCodeCompletionAllocator, std::allocator<void>, __gnu_cxx::_S_atomic>::_Impl" = type { %"struct.__gnu_cxx::__aligned_buffer" }
%"struct.__gnu_cxx::__aligned_buffer" = type { [96 x i8] }
%"class.llvm::BumpPtrAllocatorImpl" = type { ptr, ptr, %"class.llvm::SmallVector.130", %"class.llvm::SmallVector.135", i64, i64 }
%"class.llvm::SmallVector.130" = type { %"class.llvm::SmallVectorImpl.131", %"struct.llvm::SmallVectorStorage.134" }
%"class.llvm::SmallVectorImpl.131" = type { %"class.llvm::SmallVectorTemplateBase.132" }
%"class.llvm::SmallVectorTemplateBase.132" = type { %"class.llvm::SmallVectorTemplateCommon.133" }
%"class.llvm::SmallVectorTemplateCommon.133" = type { %"class.llvm::SmallVectorBase" }
%"struct.llvm::SmallVectorStorage.134" = type { [32 x i8] }
%"class.llvm::SmallVector.135" = type { %"class.llvm::SmallVectorImpl.136" }
%"class.llvm::SmallVectorImpl.136" = type { %"class.llvm::SmallVectorTemplateBase.137" }
%"class.llvm::SmallVectorTemplateBase.137" = type { %"class.llvm::SmallVectorTemplateCommon.138" }
%"class.llvm::SmallVectorTemplateCommon.138" = type { %"class.llvm::SmallVectorBase" }
%"struct.std::pair.405" = type { ptr, i64 }
%"class.std::type_info" = type { ptr, ptr }
%"struct.llvm::detail::DenseMapPair" = type { %"struct.std::pair.407" }
%"struct.std::pair.407" = type { ptr, %"class.llvm::StringRef" }
%class.anon = type { i8 }
%class.anon.410 = type { ptr }
%"class.std::allocator.413" = type { i8 }
%"class.std::allocator.435" = type { i8 }
%class.anon.491 = type { ptr }
%"class.std::unique_ptr.492" = type { %"struct.std::__uniq_ptr_data.493" }
%"struct.std::__uniq_ptr_data.493" = type { %"class.std::__uniq_ptr_impl.494" }
%"class.std::__uniq_ptr_impl.494" = type { %"class.std::tuple.495" }
%"class.std::tuple.495" = type { %"struct.std::_Tuple_impl.496" }
%"struct.std::_Tuple_impl.496" = type { %"struct.std::_Tuple_impl.497", %"struct.std::_Head_base.446" }
%"struct.std::_Tuple_impl.497" = type { %"struct.std::_Head_base.498" }
%"struct.std::_Head_base.498" = type { %class.anon.491 }
%"struct.std::_Head_base.446" = type { ptr }
%"struct.__gnu_cxx::__ops::_Iter_pred" = type { i8 }
%"struct.__gnu_cxx::__ops::_Iter_negate" = type { i8 }
%"struct.std::_Vector_base.412" = type { %"struct.std::_Vector_base<nlohmann::basic_json<>, std::allocator<nlohmann::basic_json<>>>::_Vector_impl" }
%"struct.std::_Vector_base<nlohmann::basic_json<>, std::allocator<nlohmann::basic_json<>>>::_Vector_impl" = type { %"struct.std::_Vector_base<nlohmann::basic_json<>, std::allocator<nlohmann::basic_json<>>>::_Vector_impl_data" }
%"struct.std::_Vector_base<nlohmann::basic_json<>, std::allocator<nlohmann::basic_json<>>>::_Vector_impl_data" = type { ptr, ptr, ptr }
%"class.std::map.416" = type { %"class.std::_Rb_tree.417" }
%"class.std::_Rb_tree.417" = type { %"struct.std::_Rb_tree<std::__cxx11::basic_string<char>, std::pair<const std::__cxx11::basic_string<char>, nlohmann::basic_json<>>, std::_Select1st<std::pair<const std::__cxx11::basic_string<char>, nlohmann::basic_json<>>>, std::less<std::__cxx11::basic_string<char>>>::_Rb_tree_impl" }
%"struct.std::_Rb_tree<std::__cxx11::basic_string<char>, std::pair<const std::__cxx11::basic_string<char>, nlohmann::basic_json<>>, std::_Select1st<std::pair<const std::__cxx11::basic_string<char>, nlohmann::basic_json<>>>, std::less<std::__cxx11::basic_string<char>>>::_Rb_tree_impl" = type { [8 x i8], %"struct.std::_Rb_tree_header" }
%"struct.std::less" = type { i8 }
%"class.std::allocator.421" = type { i8 }
%class.anon.424 = type { ptr }
%"class.std::unique_ptr.425" = type { %"struct.std::__uniq_ptr_data.426" }
%"struct.std::__uniq_ptr_data.426" = type { %"class.std::__uniq_ptr_impl.427" }
%"class.std::__uniq_ptr_impl.427" = type { %"class.std::tuple.428" }
%"class.std::tuple.428" = type { %"struct.std::_Tuple_impl.429" }
%"struct.std::_Tuple_impl.429" = type { %"struct.std::_Tuple_impl.430", %"struct.std::_Head_base.432" }
%"struct.std::_Tuple_impl.430" = type { %"struct.std::_Head_base.431" }
%"struct.std::_Head_base.431" = type { %class.anon.424 }
%"struct.std::_Head_base.432" = type { ptr }
%class.anon.438 = type { ptr }
%"class.std::unique_ptr.439" = type { %"struct.std::__uniq_ptr_data.440" }
%"struct.std::__uniq_ptr_data.440" = type { %"class.std::__uniq_ptr_impl.441" }
%"class.std::__uniq_ptr_impl.441" = type { %"class.std::tuple.442" }
%"class.std::tuple.442" = type { %"struct.std::_Tuple_impl.443" }
%"struct.std::_Tuple_impl.443" = type { %"struct.std::_Tuple_impl.444", %"struct.std::_Head_base.446" }
%"struct.std::_Tuple_impl.444" = type { %"struct.std::_Head_base.445" }
%"struct.std::_Head_base.445" = type { %class.anon.438 }
%"class.std::allocator" = type { i8 }
%class.anon.447 = type { ptr }
%"class.std::unique_ptr.448" = type { %"struct.std::__uniq_ptr_data.449" }
%"struct.std::__uniq_ptr_data.449" = type { %"class.std::__uniq_ptr_impl.450" }
%"class.std::__uniq_ptr_impl.450" = type { %"class.std::tuple.451" }
%"class.std::tuple.451" = type { %"struct.std::_Tuple_impl.452" }
%"struct.std::_Tuple_impl.452" = type { %"struct.std::_Tuple_impl.453", %"struct.std::_Head_base.455" }
%"struct.std::_Tuple_impl.453" = type { %"struct.std::_Head_base.454" }
%"struct.std::_Head_base.454" = type { %class.anon.447 }
%"struct.std::_Head_base.455" = type { ptr }
%"struct.std::pair.456" = type <{ %"struct.std::_Rb_tree_iterator", i8, [7 x i8] }>
%"struct.std::_Rb_tree_iterator" = type { ptr }
%"struct.std::pair.459" = type { ptr, ptr }
%"struct.std::less.433" = type { i8 }
%"struct.std::_Rb_tree_const_iterator" = type { ptr }
%"struct.std::pair.461" = type { %"class.std::__cxx11::basic_string", %"class.nlohmann::basic_json" }
%"struct.std::_Select1st" = type { i8 }
%"struct.std::_Rb_tree_node" = type { %"struct.std::_Rb_tree_node_base", %"struct.__gnu_cxx::__aligned_membuf" }
%"struct.__gnu_cxx::__aligned_membuf" = type { [48 x i8] }
%"struct.std::_Rb_tree<std::__cxx11::basic_string<char>, std::pair<const std::__cxx11::basic_string<char>, nlohmann::basic_json<>>, std::_Select1st<std::pair<const std::__cxx11::basic_string<char>, nlohmann::basic_json<>>>, std::less<std::__cxx11::basic_string<char>>>::_Auto_node" = type { ptr, ptr }
%"struct.std::pair.464" = type { ptr, ptr }
%class.anon.466 = type { ptr }
%"class.std::unique_ptr.467" = type { %"struct.std::__uniq_ptr_data.468" }
%"struct.std::__uniq_ptr_data.468" = type { %"class.std::__uniq_ptr_impl.469" }
%"class.std::__uniq_ptr_impl.469" = type { %"class.std::tuple.470" }
%"class.std::tuple.470" = type { %"struct.std::_Tuple_impl.471" }
%"struct.std::_Tuple_impl.471" = type { %"struct.std::_Tuple_impl.472", %"struct.std::_Head_base.432" }
%"struct.std::_Tuple_impl.472" = type { %"struct.std::_Head_base.473" }
%"struct.std::_Head_base.473" = type { %class.anon.466 }
%"class.std::allocator.418" = type { i8 }
%"struct.std::_Rb_tree<std::__cxx11::basic_string<char>, std::pair<const std::__cxx11::basic_string<char>, nlohmann::basic_json<>>, std::_Select1st<std::pair<const std::__cxx11::basic_string<char>, nlohmann::basic_json<>>>, std::less<std::__cxx11::basic_string<char>>>::_Alloc_node" = type { ptr }
%class.anon.474 = type { ptr }
%"class.std::unique_ptr.475" = type { %"struct.std::__uniq_ptr_data.476" }
%"struct.std::__uniq_ptr_data.476" = type { %"class.std::__uniq_ptr_impl.477" }
%"class.std::__uniq_ptr_impl.477" = type { %"class.std::tuple.478" }
%"class.std::tuple.478" = type { %"struct.std::_Tuple_impl.479" }
%"struct.std::_Tuple_impl.479" = type { %"struct.std::_Tuple_impl.480", %"struct.std::_Head_base.446" }
%"struct.std::_Tuple_impl.480" = type { %"struct.std::_Head_base.481" }
%"struct.std::_Head_base.481" = type { %class.anon.474 }
%"class.__gnu_cxx::__normal_iterator.482" = type { ptr }
%"struct.std::_UninitDestroyGuard" = type { ptr, ptr }
%class.anon.483 = type { ptr }
%"class.std::unique_ptr.484" = type { %"struct.std::__uniq_ptr_data.485" }
%"struct.std::__uniq_ptr_data.485" = type { %"class.std::__uniq_ptr_impl.486" }
%"class.std::__uniq_ptr_impl.486" = type { %"class.std::tuple.487" }
%"class.std::tuple.487" = type { %"struct.std::_Tuple_impl.488" }
%"struct.std::_Tuple_impl.488" = type { %"struct.std::_Tuple_impl.489", %"struct.std::_Head_base.455" }
%"struct.std::_Tuple_impl.489" = type { %"struct.std::_Head_base.490" }
%"struct.std::_Head_base.490" = type { %class.anon.483 }
%"class.clang::PresumedLoc" = type { ptr, %"class.clang::FileID", i32, i32, %"class.clang::SourceLocation" }
%"class.clang::FileID" = type { i32 }
%"class.llvm::ArrayRef.1174" = type { ptr, i64 }
%"class.clang::QualType" = type { %"class.llvm::PointerIntPair.389" }
%"class.llvm::PointerIntPair.389" = type { %"struct.llvm::detail::PunnedPointer.390" }
%"struct.llvm::detail::PunnedPointer.390" = type { [8 x i8] }
%"class.__gnu_cxx::__normal_iterator.1167" = type { ptr }
%"struct.std::vector<nlohmann::basic_json<>>::_Guard_alloc" = type { ptr, i64, ptr }
%"struct.clang::CodeCompletionString::Chunk" = type { i32, %union.anon.1204 }
%union.anon.1204 = type { ptr }
%"class.clang::Decl" = type <{ ptr, %"class.llvm::PointerIntPair.1168", %"class.llvm::PointerUnion", %"class.clang::SourceLocation", i32, i8, [7 x i8] }>
%"class.llvm::PointerIntPair.1168" = type { %"struct.llvm::detail::PunnedPointer.1169" }
%"struct.llvm::detail::PunnedPointer.1169" = type { [8 x i8] }
%"class.llvm::PointerUnion" = type { %"class.llvm::pointer_union_detail::PointerUnionMembers" }
%"class.llvm::pointer_union_detail::PointerUnionMembers" = type { %"class.llvm::pointer_union_detail::PointerUnionMembers.1170" }
%"class.llvm::pointer_union_detail::PointerUnionMembers.1170" = type { %"class.llvm::pointer_union_detail::PointerUnionMembers.1171" }
%"class.llvm::pointer_union_detail::PointerUnionMembers.1171" = type { %"class.llvm::PointerIntPair.1172" }
%"class.llvm::PointerIntPair.1172" = type { %"struct.llvm::detail::PunnedPointer.1173" }
%"struct.llvm::detail::PunnedPointer.1173" = type { [8 x i8] }
%"class.clang::FunctionDecl" = type { %"class.clang::DeclaratorDecl.base", %"class.clang::DeclContext", %"class.clang::Redeclarable", ptr, %union.anon.1186, i32, %"class.clang::SourceLocation", %"class.clang::SourceLocation", [4 x i8], %"class.llvm::PointerUnion.1188", %"class.clang::DeclarationNameLoc" }
%"class.clang::DeclaratorDecl.base" = type <{ %"class.clang::ValueDecl", %"class.llvm::PointerUnion.1175", %"class.clang::SourceLocation" }>
%"class.clang::ValueDecl" = type { %"class.clang::NamedDecl", %"class.clang::QualType" }
%"class.clang::NamedDecl" = type { %"class.clang::Decl.base", %"class.clang::DeclarationName" }
%"class.clang::Decl.base" = type <{ ptr, %"class.llvm::PointerIntPair.1168", %"class.llvm::PointerUnion", %"class.clang::SourceLocation", i32, i8 }>
%"class.clang::DeclarationName" = type { i64 }
%"class.llvm::PointerUnion.1175" = type { %"class.llvm::pointer_union_detail::PointerUnionMembers.1176" }
%"class.llvm::pointer_union_detail::PointerUnionMembers.1176" = type { %"class.llvm::pointer_union_detail::PointerUnionMembers.1177" }
%"class.llvm::pointer_union_detail::PointerUnionMembers.1177" = type { %"class.llvm::pointer_union_detail::PointerUnionMembers.1178" }
%"class.llvm::pointer_union_detail::PointerUnionMembers.1178" = type { %"class.llvm::PointerIntPair.1179" }
%"class.llvm::PointerIntPair.1179" = type { %"struct.llvm::detail::PunnedPointer.1173" }
%"class.clang::DeclContext" = type { ptr, %union.anon.1180, ptr, ptr }
%union.anon.1180 = type { %"class.clang::DeclContext::RecordDeclBitfields" }
%"class.clang::DeclContext::RecordDeclBitfields" = type { i64 }
%"class.clang::Redeclarable" = type { %"class.clang::Redeclarable<clang::FunctionDecl>::DeclLink", ptr }
%"class.clang::Redeclarable<clang::FunctionDecl>::DeclLink" = type { %"class.llvm::PointerUnion.1181" }
%"class.llvm::PointerUnion.1181" = type { %"class.llvm::pointer_union_detail::PointerUnionMembers.1182" }
%"class.llvm::pointer_union_detail::PointerUnionMembers.1182" = type { %"class.llvm::pointer_union_detail::PointerUnionMembers.1183" }
%"class.llvm::pointer_union_detail::PointerUnionMembers.1183" = type { %"class.llvm::pointer_union_detail::PointerUnionMembers.1184" }
%"class.llvm::pointer_union_detail::PointerUnionMembers.1184" = type { %"class.llvm::PointerIntPair.1185" }
%"class.llvm::PointerIntPair.1185" = type { %"struct.llvm::detail::PunnedPointer.1173" }
%union.anon.1186 = type { ptr }
%"class.llvm::PointerUnion.1188" = type { %"class.llvm::pointer_union_detail::PointerUnionMembers.1189" }
%"class.llvm::pointer_union_detail::PointerUnionMembers.1189" = type { %"class.llvm::pointer_union_detail::PointerUnionMembers.1190" }
%"class.llvm::pointer_union_detail::PointerUnionMembers.1190" = type { %"class.llvm::pointer_union_detail::PointerUnionMembers.1191" }
%"class.llvm::pointer_union_detail::PointerUnionMembers.1191" = type { %"class.llvm::pointer_union_detail::PointerUnionMembers.1192" }
%"class.llvm::pointer_union_detail::PointerUnionMembers.1192" = type { %"class.llvm::pointer_union_detail::PointerUnionMembers.1193" }
%"class.llvm::pointer_union_detail::PointerUnionMembers.1193" = type { %"class.llvm::PointerIntPair.1194" }
%"class.llvm::PointerIntPair.1194" = type { %"struct.llvm::detail::PunnedPointer.1173" }
%"class.clang::DeclarationNameLoc" = type { %union.anon.1195 }
%union.anon.1195 = type { %"struct.clang::DeclarationNameLoc::NT" }
%"struct.clang::DeclarationNameLoc::NT" = type { ptr }
%"struct.nlohmann::detail::priority_tag" = type { i8 }
%"class.clang::CodeCompletionString" = type { i64, %"class.llvm::StringRef", ptr }
%"class.std::tuple.1205" = type { %"struct.std::_Tuple_impl.1206" }
%"struct.std::_Tuple_impl.1206" = type { %"struct.std::_Head_base.1207" }
%"struct.std::_Head_base.1207" = type { ptr }
%"class.std::tuple.1208" = type { i8 }
%"struct.std::_Index_tuple" = type { i8 }
%"struct.std::_Index_tuple.1209" = type { i8 }
%struct._Guard = type { ptr }
%"struct.std::_Optional_payload_base.307" = type <{ %"union.std::_Optional_payload_base<llvm::MemoryBufferRef>::_Storage", i8, [7 x i8] }>
%"struct.std::pair.1210" = type { %"class.std::__cxx11::basic_string", %"class.std::__cxx11::basic_string" }
%"struct.std::pair.1212" = type { %"class.std::__cxx11::basic_string", ptr }
%"struct.std::__cxx11::basic_string<char>::__sv_wrapper" = type { %"class.std::basic_string_view" }
%"class.std::basic_string_view" = type { i64, ptr }
%"class.__gnu_cxx::__normal_iterator.1214" = type { ptr }
%"struct.std::vector<std::pair<std::__cxx11::basic_string<char>, llvm::MemoryBuffer *>>::_Guard_alloc" = type { ptr, i64, ptr }
%"class.__gnu_cxx::__normal_iterator.1215" = type { ptr }
%"class.llvm::ThreadSafeRefCountedBase" = type { %"struct.std::atomic" }
%"struct.std::atomic" = type { %"struct.std::__atomic_base" }
%"struct.std::__atomic_base" = type { i32 }
%"struct.nlohmann::basic_json<>::numtostr" = type { %"struct.std::array" }
%"struct.std::array" = type { [64 x i8] }
%"class.__gnu_cxx::__normal_iterator.1216" = type { ptr }
%"class.std::initializer_list.1217" = type { ptr, i64 }
%"struct.std::integral_constant" = type { i8 }
%"struct.std::is_integral" = type { i8 }
%"struct.std::is_integral.1220" = type { i8 }
%"struct.std::integral_constant.1221" = type { i8 }
%"struct.std::is_integral.1222" = type { i8 }
%class.anon.1218 = type { i8 }
%"struct.std::random_access_iterator_tag" = type { i8 }
%struct.lconv = type { ptr, ptr, ptr, ptr, ptr, ptr, ptr, ptr, ptr, ptr, i8, i8, i8, i8, i8, i8, i8, i8, i8, i8, i8, i8, i8, i8 }
%"struct.__gnu_cxx::__ops::_Iter_equals_val" = type { ptr }
%"class.std::allocator.1223" = type { i8 }
%"struct.std::__allocated_ptr.1226" = type { ptr, ptr }
%"class.std::_Sp_counted_ptr_inplace.1227" = type { %"class.std::_Sp_counted_base", %"class.std::_Sp_counted_ptr_inplace<clang::PCHContainerOperations, std::allocator<void>, __gnu_cxx::_S_atomic>::_Impl" }
%"class.std::_Sp_counted_ptr_inplace<clang::PCHContainerOperations, std::allocator<void>, __gnu_cxx::_S_atomic>::_Impl" = type { %"struct.__gnu_cxx::__aligned_buffer.1228" }
%"struct.__gnu_cxx::__aligned_buffer.1228" = type { [112 x i8] }
%"class.clang::PCHContainerOperations" = type { %"class.llvm::StringMap.1229", %"class.llvm::StringMap.1230", %"class.llvm::SmallVector.1231" }
%"class.llvm::StringMap.1229" = type { %"class.llvm::StringMapImpl" }
%"class.llvm::StringMap.1230" = type { %"class.llvm::StringMapImpl" }
%"class.llvm::SmallVector.1231" = type { %"class.llvm::SmallVectorImpl.1232", %"struct.llvm::SmallVectorStorage.1235" }
%"class.llvm::SmallVectorImpl.1232" = type { %"class.llvm::SmallVectorTemplateBase.1233" }
%"class.llvm::SmallVectorTemplateBase.1233" = type { %"class.llvm::SmallVectorTemplateCommon.1234" }
%"class.llvm::SmallVectorTemplateCommon.1234" = type { %"class.llvm::SmallVectorBase" }
%"struct.llvm::SmallVectorStorage.1235" = type { [48 x i8] }
%"class.std::unique_ptr.1236" = type { %"struct.std::__uniq_ptr_data.1237" }
%"struct.std::__uniq_ptr_data.1237" = type { %"class.std::__uniq_ptr_impl.1238" }
%"class.std::__uniq_ptr_impl.1238" = type { %"class.std::tuple.1239" }
%"class.std::tuple.1239" = type { %"struct.std::_Tuple_impl.1240" }
%"struct.std::_Tuple_impl.1240" = type { %"struct.std::_Head_base.1243" }
%"struct.std::_Head_base.1243" = type { ptr }
%"class.llvm::StringMapEntryBase" = type { i64 }
%"class.llvm::StringMapEntryStorage.1247" = type { %"class.llvm::StringMapEntryBase", %"class.std::unique_ptr.1248" }
%"class.std::unique_ptr.1248" = type { %"struct.std::__uniq_ptr_data.1249" }
%"struct.std::__uniq_ptr_data.1249" = type { %"class.std::__uniq_ptr_impl.1250" }
%"class.std::__uniq_ptr_impl.1250" = type { %"class.std::tuple.1251" }
%"class.std::tuple.1251" = type { %"struct.std::_Tuple_impl.1252" }
%"struct.std::_Tuple_impl.1252" = type { %"struct.std::_Head_base.1255" }
%"struct.std::_Head_base.1255" = type { ptr }
%"class.std::allocator.1258" = type { i8 }
%"struct.std::__allocated_ptr.1261" = type { ptr, ptr }
%"class.std::_Sp_counted_ptr_inplace.1262" = type { %"class.std::_Sp_counted_base", %"class.std::_Sp_counted_ptr_inplace<clang::TargetOptions, std::allocator<void>, __gnu_cxx::_S_atomic>::_Impl" }
%"class.std::_Sp_counted_ptr_inplace<clang::TargetOptions, std::allocator<void>, __gnu_cxx::_S_atomic>::_Impl" = type { %"struct.__gnu_cxx::__aligned_buffer.1263" }
%"struct.__gnu_cxx::__aligned_buffer.1263" = type { [536 x i8] }
%"struct.std::less.1266" = type { i8 }
%"struct.std::less.1267" = type { i8 }
%"class.std::move_iterator" = type { ptr }
%"struct.std::_UninitDestroyGuard.1269" = type { ptr, ptr }

$_ZN5clang23ConstructionContextItem15getKindAsStringENS0_8ItemKindE = comdat any

$_ZN4llvm9StringRefC2EPKc = comdat any

$_ZNK5clang23ConstructionContextItem15getKindAsStringEv = comdat any

$_ZNK5clang23ConstructionContextItem7getKindEv = comdat any

$_Z5splitRKNSt7__cxx1112basic_stringIcSt11char_traitsIcESaIcEEEc = comdat any

$_ZNSt6vectorINSt7__cxx1112basic_stringIcSt11char_traitsIcESaIcEEESaIS5_EE5beginEv = comdat any

$_ZNSt6vectorINSt7__cxx1112basic_stringIcSt11char_traitsIcESaIcEEESaIS5_EE3endEv = comdat any

$_Z10startsWithRKNSt7__cxx1112basic_stringIcSt11char_traitsIcESaIcEEES6_ = comdat any

$_ZNSt7__cxx1112basic_stringIcSt11char_traitsIcESaIcEEC2IS3_EEPKcRKS3_ = comdat any

$_ZNSt7__cxx1112basic_stringIcSt11char_traitsIcESaIcEED2Ev = comdat any

$_Z11stringToIntRKNSt7__cxx1112basic_stringIcSt11char_traitsIcESaIcEEEPi = comdat any

$_ZNSt6vectorINSt7__cxx1112basic_stringIcSt11char_traitsIcESaIcEEESaIS5_EEixEm = comdat any

$_ZNKSt7__cxx1112basic_stringIcSt11char_traitsIcESaIcEE4findERKS4_m = comdat any

$_ZNSt6vectorINSt7__cxx1112basic_stringIcSt11char_traitsIcESaIcEEESaIS5_EED2Ev = comdat any

$_ZSt11make_sharedIN5clang22PCHContainerOperationsEJEESt10shared_ptrINSt9enable_ifIXntsr8is_arrayIT_EE5valueES4_E4typeEEDpOT0_ = comdat any

$_ZNSt10shared_ptrIN5clang22PCHContainerOperationsEED2Ev = comdat any

$_ZSt11make_sharedIN5clang13TargetOptionsEJEESt10shared_ptrINSt9enable_ifIXntsr8is_arrayIT_EE5valueES4_E4typeEEDpOT0_ = comdat any

$_ZNKSt19__shared_ptr_accessIN5clang13TargetOptionsELN9__gnu_cxx12_Lock_policyE2ELb0ELb0EEptEv = comdat any

$_ZNSt7__cxx1112basic_stringIcSt11char_traitsIcESaIcEEaSEPKc = comdat any

$_ZNK5clang16CompilerInstance14getDiagnosticsEv = comdat any

$_ZN5clang16CompilerInstance11getLangOptsEv = comdat any

$_ZN4llvm18IntrusiveRefCntPtrINS_3vfs10FileSystemEEC2EPS2_ = comdat any

$_ZN4llvm18IntrusiveRefCntPtrINS_3vfs10FileSystemEED2Ev = comdat any

$_ZNK5clang16CompilerInstance14getFileManagerEv = comdat any

$_ZN5clang19CodeCompleteOptionsC2Ev = comdat any

$_ZNK5clang16CompilerInstance16getSourceManagerEv = comdat any

$_ZN26CustomCodeCompleteConsumerC2ERKN5clang19CodeCompleteOptionsERNS0_13SourceManagerE = comdat any

$_ZN5clang16CompilerInstance15getFrontendOptsEv = comdat any

$_ZN4llvm23SmallVectorTemplateBaseIN5clang17FrontendInputFileELb0EE9push_backEOS2_ = comdat any

$_ZN4llvm9StringRefC2ERKNSt7__cxx1112basic_stringIcSt11char_traitsIcESaIcEEE = comdat any

$_ZN5clang9InputKindC2ENS_8LanguageENS0_6FormatEbNS0_14HeaderUnitKindEb = comdat any

$_ZNK5clang9InputKind11getLanguageEv = comdat any

$_ZN5clang17FrontendInputFileC2EN4llvm9StringRefENS_9InputKindEb = comdat any

$_ZN5clang17FrontendInputFileD2Ev = comdat any

$_ZNSt7__cxx1112basic_stringIcSt11char_traitsIcESaIcEEaSERKS4_ = comdat any

$_ZN5clang16CompilerInstance19getPreprocessorOptsEv = comdat any

$_ZN5clang19PreprocessorOptions18clearRemappedFilesEv = comdat any

$_ZN5clang19PreprocessorOptions15addRemappedFileEN4llvm9StringRefEPNS1_12MemoryBufferE = comdat any

$_ZNSt10unique_ptrIN4llvm12MemoryBufferESt14default_deleteIS1_EE7releaseEv = comdat any

$_ZN5clang16SyntaxOnlyActionC2Ev = comdat any

$_ZN4llvm25SmallVectorTemplateCommonIN5clang17FrontendInputFileEvEixEm = comdat any

$_ZN4llvm5ErrorD2Ev = comdat any

$_ZN4llvm11raw_ostreamlsERKNSt7__cxx1112basic_stringIcSt11char_traitsIcESaIcEEE = comdat any

$_ZN26CustomCodeCompleteConsumer7GetJSONB5cxx11Ev = comdat any

$_ZNK8nlohmann10basic_jsonISt3mapSt6vectorNSt7__cxx1112basic_stringIcSt11char_traitsIcESaIcEEEblmdSaNS_14adl_serializerEE4dumpEi = comdat any

$_ZNSt10unique_ptrIN4llvm12MemoryBufferESt14default_deleteIS1_EED2Ev = comdat any

$_ZNSt10shared_ptrIN5clang13TargetOptionsEED2Ev = comdat any

$_ZNSt11char_traitsIcE6lengthEPKc = comdat any

$_ZNSt6vectorINSt7__cxx1112basic_stringIcSt11char_traitsIcESaIcEEESaIS5_EEC2Ev = comdat any

$_ZNSt7__cxx1112basic_stringIcSt11char_traitsIcESaIcEEC2Ev = comdat any

$_ZNSt6vectorINSt7__cxx1112basic_stringIcSt11char_traitsIcESaIcEEESaIS5_EE9push_backERKS5_ = comdat any

$_ZNSt12_Vector_baseINSt7__cxx1112basic_stringIcSt11char_traitsIcESaIcEEESaIS5_EEC2Ev = comdat any

$_ZNSt12_Vector_baseINSt7__cxx1112basic_stringIcSt11char_traitsIcESaIcEEESaIS5_EE12_Vector_implC2Ev = comdat any

$_ZNSt12_Vector_baseINSt7__cxx1112basic_stringIcSt11char_traitsIcESaIcEEESaIS5_EE17_Vector_impl_dataC2Ev = comdat any

$_ZNSt7__cxx1112basic_stringIcSt11char_traitsIcESaIcEE13_M_local_dataEv = comdat any

$__clang_call_terminate = comdat any

$_ZNSt7__cxx1112basic_stringIcSt11char_traitsIcESaIcEE12_Alloc_hiderC2EPcOS3_ = comdat any

$_ZNSt7__cxx1112basic_stringIcSt11char_traitsIcESaIcEE13_M_set_lengthEm = comdat any

$_ZNSt19__ptr_traits_ptr_toIPccLb0EE10pointer_toERc = comdat any

$_ZNSt7__cxx1112basic_stringIcSt11char_traitsIcESaIcEE9_M_lengthEm = comdat any

$_ZNSt11char_traitsIcE6assignERcRKc = comdat any

$_ZNKSt7__cxx1112basic_stringIcSt11char_traitsIcESaIcEE7_M_dataEv = comdat any

$_ZNSt6vectorINSt7__cxx1112basic_stringIcSt11char_traitsIcESaIcEEESaIS5_EE17_M_realloc_appendIJRKS5_EEEvDpOT_ = comdat any

$_ZNSt7__cxx1112basic_stringIcSt11char_traitsIcESaIcEEC2ERKS4_ = comdat any

$_ZNKSt7__cxx1112basic_stringIcSt11char_traitsIcESaIcEE16_M_get_allocatorEv = comdat any

$_ZNSt7__cxx1112basic_stringIcSt11char_traitsIcESaIcEE12_M_constructILb1EEEvPKcm = comdat any

$_ZNKSt7__cxx1112basic_stringIcSt11char_traitsIcESaIcEE6lengthEv = comdat any

$_ZNSt7__cxx1112basic_stringIcSt11char_traitsIcESaIcEE12_Alloc_hiderD2Ev = comdat any

$_ZNSt7__cxx1112basic_stringIcSt11char_traitsIcESaIcEE7_M_dataEPc = comdat any

$_ZNSt7__cxx1112basic_stringIcSt11char_traitsIcESaIcEE9_M_createERmm = comdat any

$_ZNSt7__cxx1112basic_stringIcSt11char_traitsIcESaIcEE11_M_capacityEm = comdat any

$_ZNSt7__cxx1112basic_stringIcSt11char_traitsIcESaIcEE7_S_copyEPcPKcm = comdat any

$_ZNKSt7__cxx1112basic_stringIcSt11char_traitsIcESaIcEE8max_sizeEv = comdat any

$_ZNSt7__cxx1112basic_stringIcSt11char_traitsIcESaIcEE11_S_allocateERS3_m = comdat any

$_ZNSt7__cxx1112basic_stringIcSt11char_traitsIcESaIcEE16_M_get_allocatorEv = comdat any

$_ZSt3minImERKT_S2_S2_ = comdat any

$_ZNSt15__new_allocatorIcE8allocateEmPKv = comdat any

$_ZNSt11char_traitsIcE4copyEPcPKcm = comdat any

$_ZNKSt7__cxx1112basic_stringIcSt11char_traitsIcESaIcEE4sizeEv = comdat any

$_ZNSt15__new_allocatorIcED2Ev = comdat any

$_ZNKSt6vectorINSt7__cxx1112basic_stringIcSt11char_traitsIcESaIcEEESaIS5_EE12_M_check_lenEmPKc = comdat any

$_ZNSt12_Vector_baseINSt7__cxx1112basic_stringIcSt11char_traitsIcESaIcEEESaIS5_EE11_M_allocateEm = comdat any

$_ZNSt6vectorINSt7__cxx1112basic_stringIcSt11char_traitsIcESaIcEEESaIS5_EE12_Guard_allocC2EPS5_mRSt12_Vector_baseIS5_S6_E = comdat any

$_ZNSt6vectorINSt7__cxx1112basic_stringIcSt11char_traitsIcESaIcEEESaIS5_EE11_S_relocateEPS5_S8_S8_RS6_ = comdat any

$_ZNSt12_Vector_baseINSt7__cxx1112basic_stringIcSt11char_traitsIcESaIcEEESaIS5_EE19_M_get_Tp_allocatorEv = comdat any

$_ZNSt6vectorINSt7__cxx1112basic_stringIcSt11char_traitsIcESaIcEEESaIS5_EE12_Guard_allocD2Ev = comdat any

$_ZNKSt6vectorINSt7__cxx1112basic_stringIcSt11char_traitsIcESaIcEEESaIS5_EE8max_sizeEv = comdat any

$_ZNKSt6vectorINSt7__cxx1112basic_stringIcSt11char_traitsIcESaIcEEESaIS5_EE4sizeEv = comdat any

$_ZSt3maxImERKT_S2_S2_ = comdat any

$_ZNSt6vectorINSt7__cxx1112basic_stringIcSt11char_traitsIcESaIcEEESaIS5_EE11_S_max_sizeERKS6_ = comdat any

$_ZNKSt12_Vector_baseINSt7__cxx1112basic_stringIcSt11char_traitsIcESaIcEEESaIS5_EE19_M_get_Tp_allocatorEv = comdat any

$_ZNSt15__new_allocatorINSt7__cxx1112basic_stringIcSt11char_traitsIcESaIcEEEE8allocateEmPKv = comdat any

$_ZSt12__relocate_aIPNSt7__cxx1112basic_stringIcSt11char_traitsIcESaIcEEES6_SaIS5_EET0_T_S9_S8_RT1_ = comdat any

$_ZSt14__relocate_a_1IPNSt7__cxx1112basic_stringIcSt11char_traitsIcESaIcEEES6_SaIS5_EET0_T_S9_S8_RT1_ = comdat any

$_ZSt19__relocate_object_aINSt7__cxx1112basic_stringIcSt11char_traitsIcESaIcEEES5_SaIS5_EEvPT_PT0_RT1_ = comdat any

$_ZNSt7__cxx1112basic_stringIcSt11char_traitsIcESaIcEEC2EOS4_ = comdat any

$_ZNKSt7__cxx1112basic_stringIcSt11char_traitsIcESaIcEE11_M_is_localEv = comdat any

$_ZNKSt7__cxx1112basic_stringIcSt11char_traitsIcESaIcEE13_M_local_dataEv = comdat any

$_ZNSt19__ptr_traits_ptr_toIPKcS0_Lb0EE10pointer_toERS0_ = comdat any

$_ZNSt12_Vector_baseINSt7__cxx1112basic_stringIcSt11char_traitsIcESaIcEEESaIS5_EE13_M_deallocateEPS5_m = comdat any

$_ZNSt15__new_allocatorINSt7__cxx1112basic_stringIcSt11char_traitsIcESaIcEEEE10deallocateEPS5_m = comdat any

$_ZNKSt7__cxx1112basic_stringIcSt11char_traitsIcESaIcEE4findEPKcmm = comdat any

$_ZNKSt7__cxx1112basic_stringIcSt11char_traitsIcESaIcEE5c_strEv = comdat any

$_ZNKSt7__cxx1112basic_stringIcSt11char_traitsIcESaIcEE4dataEv = comdat any

$_ZNSt11char_traitsIcE4findEPKcmRS1_ = comdat any

$_ZNSt11char_traitsIcE7compareEPKcS2_m = comdat any

$_ZStorSt13_Ios_OpenmodeS_ = comdat any

$_ZNSt12__shared_ptrIN5clang22PCHContainerOperationsELN9__gnu_cxx12_Lock_policyE2EED2Ev = comdat any

$_ZNSt14__shared_countILN9__gnu_cxx12_Lock_policyE2EED2Ev = comdat any

$_ZNSt16_Sp_counted_baseILN9__gnu_cxx12_Lock_policyE2EE10_M_releaseEv = comdat any

$_ZNSt16_Sp_counted_baseILN9__gnu_cxx12_Lock_policyE2EE24_M_release_last_use_coldEv = comdat any

$_ZNSt16_Sp_counted_baseILN9__gnu_cxx12_Lock_policyE2EE19_M_release_last_useEv = comdat any

$_ZNK4llvm18IntrusiveRefCntPtrIN5clang17DiagnosticsEngineEEcvbEv = comdat any

$_ZNK4llvm18IntrusiveRefCntPtrIN5clang17DiagnosticsEngineEEdeEv = comdat any

$_ZNKSt19__shared_ptr_accessIN5clang18CompilerInvocationELN9__gnu_cxx12_Lock_policyE2ELb0ELb0EEptEv = comdat any

$_ZN5clang18CompilerInvocation11getLangOptsEv = comdat any

$_ZNKSt19__shared_ptr_accessIN5clang18CompilerInvocationELN9__gnu_cxx12_Lock_policyE2ELb0ELb0EE6_M_getEv = comdat any

$_ZNKSt12__shared_ptrIN5clang18CompilerInvocationELN9__gnu_cxx12_Lock_policyE2EE3getEv = comdat any

$_ZNKSt19__shared_ptr_accessIN5clang11LangOptionsELN9__gnu_cxx12_Lock_policyE2ELb0ELb0EEdeEv = comdat any

$_ZNKSt19__shared_ptr_accessIN5clang11LangOptionsELN9__gnu_cxx12_Lock_policyE2ELb0ELb0EE6_M_getEv = comdat any

$_ZNKSt12__shared_ptrIN5clang11LangOptionsELN9__gnu_cxx12_Lock_policyE2EE3getEv = comdat any

$_ZNK4llvm18IntrusiveRefCntPtrIN5clang11FileManagerEEcvbEv = comdat any

$_ZNK4llvm18IntrusiveRefCntPtrIN5clang11FileManagerEEdeEv = comdat any

$_ZNK4llvm18IntrusiveRefCntPtrIN5clang13SourceManagerEEcvbEv = comdat any

$_ZNK4llvm18IntrusiveRefCntPtrIN5clang13SourceManagerEEdeEv = comdat any

$_ZN5clang20CodeCompleteConsumerC2ERKNS_19CodeCompleteOptionsE = comdat any

$_ZSt11make_sharedIN5clang29GlobalCodeCompletionAllocatorEJEESt10shared_ptrINSt9enable_ifIXntsr8is_arrayIT_EE5valueES4_E4typeEEDpOT0_ = comdat any

$_ZN5clang20CodeCompletionTUInfoC2ESt10shared_ptrINS_29GlobalCodeCompletionAllocatorEE = comdat any

$_ZNSt10shared_ptrIN5clang29GlobalCodeCompletionAllocatorEED2Ev = comdat any

$_ZN8nlohmann10basic_jsonISt3mapSt6vectorNSt7__cxx1112basic_stringIcSt11char_traitsIcESaIcEEEblmdSaNS_14adl_serializerEE5arrayESt16initializer_listISA_E = comdat any

$_ZNSt16initializer_listIN8nlohmann10basic_jsonISt3mapSt6vectorNSt7__cxx1112basic_stringIcSt11char_traitsIcESaIcEEEblmdSaNS0_14adl_serializerEEEEC2Ev = comdat any

$_ZN5clang20CodeCompletionTUInfoD2Ev = comdat any

$_ZN26CustomCodeCompleteConsumerD2Ev = comdat any

$_ZN26CustomCodeCompleteConsumerD0Ev = comdat any

$_ZN5clang20CodeCompleteConsumer19isResultFilteredOutEN4llvm9StringRefENS_20CodeCompletionResultE = comdat any

$_ZN26CustomCodeCompleteConsumer26ProcessCodeCompleteResultsERN5clang4SemaENS0_21CodeCompletionContextEPNS0_20CodeCompletionResultEj = comdat any

$_ZN5clang20CodeCompleteConsumer25ProcessOverloadCandidatesERNS_4SemaEjPNS0_17OverloadCandidateEjNS_14SourceLocationEb = comdat any

$_ZN26CustomCodeCompleteConsumer12getAllocatorEv = comdat any

$_ZN26CustomCodeCompleteConsumer23getCodeCompletionTUInfoEv = comdat any

$_ZNSt10shared_ptrIN5clang29GlobalCodeCompletionAllocatorEEC2ISaIvEJEEESt20_Sp_alloc_shared_tagIT_EDpOT0_ = comdat any

$_ZNSt12__shared_ptrIN5clang29GlobalCodeCompletionAllocatorELN9__gnu_cxx12_Lock_policyE2EEC2ISaIvEJEEESt20_Sp_alloc_shared_tagIT_EDpOT0_ = comdat any

$_ZNSt14__shared_countILN9__gnu_cxx12_Lock_policyE2EEC2IN5clang29GlobalCodeCompletionAllocatorESaIvEJEEERPT_St20_Sp_alloc_shared_tagIT0_EDpOT1_ = comdat any

$_ZNSt12__shared_ptrIN5clang29GlobalCodeCompletionAllocatorELN9__gnu_cxx12_Lock_policyE2EE31_M_enable_shared_from_this_withIS1_S1_EENSt9enable_ifIXntsr15__has_esft_baseIT0_EE5valueEvE4typeEPT_ = comdat any

$_ZSt18__allocate_guardedISaISt23_Sp_counted_ptr_inplaceIN5clang29GlobalCodeCompletionAllocatorESaIvELN9__gnu_cxx12_Lock_policyE2EEEESt15__allocated_ptrIT_ERS9_ = comdat any

$_ZNKSt15__allocated_ptrISaISt23_Sp_counted_ptr_inplaceIN5clang29GlobalCodeCompletionAllocatorESaIvELN9__gnu_cxx12_Lock_policyE2EEEE3getEv = comdat any

$_ZNSt23_Sp_counted_ptr_inplaceIN5clang29GlobalCodeCompletionAllocatorESaIvELN9__gnu_cxx12_Lock_policyE2EEC2IJEEES2_DpOT_ = comdat any

$_ZNSt15__allocated_ptrISaISt23_Sp_counted_ptr_inplaceIN5clang29GlobalCodeCompletionAllocatorESaIvELN9__gnu_cxx12_Lock_policyE2EEEEaSEDn = comdat any

$_ZNSt23_Sp_counted_ptr_inplaceIN5clang29GlobalCodeCompletionAllocatorESaIvELN9__gnu_cxx12_Lock_policyE2EE6_M_ptrEv = comdat any

$_ZNSt15__allocated_ptrISaISt23_Sp_counted_ptr_inplaceIN5clang29GlobalCodeCompletionAllocatorESaIvELN9__gnu_cxx12_Lock_policyE2EEEED2Ev = comdat any

$_ZNSt15__allocated_ptrISaISt23_Sp_counted_ptr_inplaceIN5clang29GlobalCodeCompletionAllocatorESaIvELN9__gnu_cxx12_Lock_policyE2EEEEC2ERS7_PS6_ = comdat any

$_ZNSt15__new_allocatorISt23_Sp_counted_ptr_inplaceIN5clang29GlobalCodeCompletionAllocatorESaIvELN9__gnu_cxx12_Lock_policyE2EEE8allocateEmPKv = comdat any

$_ZNSt16_Sp_counted_baseILN9__gnu_cxx12_Lock_policyE2EEC2Ev = comdat any

$_ZNSt23_Sp_counted_ptr_inplaceIN5clang29GlobalCodeCompletionAllocatorESaIvELN9__gnu_cxx12_Lock_policyE2EE5_ImplC2ES2_ = comdat any

$_ZNSt23_Sp_counted_ptr_inplaceIN5clang29GlobalCodeCompletionAllocatorESaIvELN9__gnu_cxx12_Lock_policyE2EED2Ev = comdat any

$_ZNSt23_Sp_counted_ptr_inplaceIN5clang29GlobalCodeCompletionAllocatorESaIvELN9__gnu_cxx12_Lock_policyE2EED0Ev = comdat any

$_ZNSt23_Sp_counted_ptr_inplaceIN5clang29GlobalCodeCompletionAllocatorESaIvELN9__gnu_cxx12_Lock_policyE2EE10_M_disposeEv = comdat any

$_ZNSt23_Sp_counted_ptr_inplaceIN5clang29GlobalCodeCompletionAllocatorESaIvELN9__gnu_cxx12_Lock_policyE2EE10_M_destroyEv = comdat any

$_ZNSt23_Sp_counted_ptr_inplaceIN5clang29GlobalCodeCompletionAllocatorESaIvELN9__gnu_cxx12_Lock_policyE2EE14_M_get_deleterERKSt9type_info = comdat any

$_ZNSt16_Sp_counted_baseILN9__gnu_cxx12_Lock_policyE2EED2Ev = comdat any

$_ZNSt16_Sp_counted_baseILN9__gnu_cxx12_Lock_policyE2EED0Ev = comdat any

$_ZNSt16_Sp_counted_baseILN9__gnu_cxx12_Lock_policyE2EE10_M_destroyEv = comdat any

$_ZNSt14_Sp_ebo_helperILi0ESaIvELb1EEC2ERKS0_ = comdat any

$_ZSt10_ConstructIN5clang29GlobalCodeCompletionAllocatorEJEEvPT_DpOT0_ = comdat any

$_ZN5clang29GlobalCodeCompletionAllocatorC2Ev = comdat any

$_ZN5clang23CodeCompletionAllocatorC2Ev = comdat any

$_ZN4llvm20BumpPtrAllocatorImplINS_15MallocAllocatorELm4096ELm4096ELm128EEC2Ev = comdat any

$_ZN4llvm11SmallVectorIPvLj4EEC2Ev = comdat any

$_ZN4llvm11SmallVectorISt4pairIPvmELj0EEC2Ev = comdat any

$_ZN4llvm11SmallVectorIPvLj4EED2Ev = comdat any

$_ZN4llvm15SmallVectorImplIPvEC2Ej = comdat any

$_ZN4llvm23SmallVectorTemplateBaseIPvLb1EEC2Em = comdat any

$_ZN4llvm25SmallVectorTemplateCommonIPvvEC2Em = comdat any

$_ZNK4llvm25SmallVectorTemplateCommonIPvvE10getFirstElEv = comdat any

$_ZN4llvm15SmallVectorImplISt4pairIPvmEEC2Ej = comdat any

$_ZN4llvm23SmallVectorTemplateBaseISt4pairIPvmELb1EEC2Em = comdat any

$_ZN4llvm25SmallVectorTemplateCommonISt4pairIPvmEvEC2Em = comdat any

$_ZNK4llvm25SmallVectorTemplateCommonISt4pairIPvmEvE10getFirstElEv = comdat any

$_ZN4llvm23SmallVectorTemplateBaseIPvLb1EE13destroy_rangeEPS1_S3_ = comdat any

$_ZN4llvm25SmallVectorTemplateCommonIPvvE5beginEv = comdat any

$_ZN4llvm25SmallVectorTemplateCommonIPvvE3endEv = comdat any

$_ZN4llvm15SmallVectorImplIPvED2Ev = comdat any

$_ZNK4llvm25SmallVectorTemplateCommonIPvvE7isSmallEv = comdat any

$_ZNSt23_Sp_counted_ptr_inplaceIN5clang29GlobalCodeCompletionAllocatorESaIvELN9__gnu_cxx12_Lock_policyE2EE5_Impl8_M_allocEv = comdat any

$_ZSt8_DestroyIN5clang29GlobalCodeCompletionAllocatorEEvPT_ = comdat any

$_ZN5clang29GlobalCodeCompletionAllocatorD2Ev = comdat any

$_ZN5clang23CodeCompletionAllocatorD2Ev = comdat any

$_ZN4llvm20BumpPtrAllocatorImplINS_15MallocAllocatorELm4096ELm4096ELm128EED2Ev = comdat any

$_ZN4llvm20BumpPtrAllocatorImplINS_15MallocAllocatorELm4096ELm4096ELm128EE15DeallocateSlabsEPPvS4_ = comdat any

$_ZN4llvm20BumpPtrAllocatorImplINS_15MallocAllocatorELm4096ELm4096ELm128EE26DeallocateCustomSizedSlabsEv = comdat any

$_ZN4llvm11SmallVectorISt4pairIPvmELj0EED2Ev = comdat any

$_ZN4llvm20BumpPtrAllocatorImplINS_15MallocAllocatorELm4096ELm4096ELm128EE15computeSlabSizeEj = comdat any

$_ZN4llvm6detail15AllocatorHolderINS_15MallocAllocatorEE12getAllocatorEv = comdat any

$_ZN4llvm15MallocAllocator10DeallocateEPKvmm = comdat any

$_ZN4llvm25SmallVectorTemplateCommonISt4pairIPvmEvE5beginEv = comdat any

$_ZN4llvm25SmallVectorTemplateCommonISt4pairIPvmEvE3endEv = comdat any

$_ZN4llvm23SmallVectorTemplateBaseISt4pairIPvmELb1EE13destroy_rangeEPS3_S5_ = comdat any

$_ZN4llvm15SmallVectorImplISt4pairIPvmEED2Ev = comdat any

$_ZNK4llvm25SmallVectorTemplateCommonISt4pairIPvmEvE7isSmallEv = comdat any

$_ZNSt14_Sp_ebo_helperILi0ESaIvELb1EE6_S_getERS1_ = comdat any

$_ZNSt19_Sp_make_shared_tag5_S_tiEv = comdat any

$_ZNKSt9type_infoeqERKS_ = comdat any

$_ZNKSt9type_info4nameEv = comdat any

$_ZN9__gnu_cxx16__aligned_bufferIN5clang29GlobalCodeCompletionAllocatorEE6_M_ptrEv = comdat any

$_ZN9__gnu_cxx16__aligned_bufferIN5clang29GlobalCodeCompletionAllocatorEE7_M_addrEv = comdat any

$_ZNSt15__new_allocatorISt23_Sp_counted_ptr_inplaceIN5clang29GlobalCodeCompletionAllocatorESaIvELN9__gnu_cxx12_Lock_policyE2EEE10deallocateEPS6_m = comdat any

$_ZNSt15__new_allocatorISt23_Sp_counted_ptr_inplaceIN5clang29GlobalCodeCompletionAllocatorESaIvELN9__gnu_cxx12_Lock_policyE2EEED2Ev = comdat any

$_ZN4llvm8DenseMapIPKN5clang11DeclContextENS_9StringRefENS_12DenseMapInfoIS4_vEENS_6detail12DenseMapPairIS4_S5_EEEC2Ej = comdat any

$_ZNSt10shared_ptrIN5clang29GlobalCodeCompletionAllocatorEEC2EOS2_ = comdat any

$_ZN4llvm8DenseMapIPKN5clang11DeclContextENS_9StringRefENS_12DenseMapInfoIS4_vEENS_6detail12DenseMapPairIS4_S5_EEE4initEj = comdat any

$_ZN4llvm12DenseMapBaseINS_8DenseMapIPKN5clang11DeclContextENS_9StringRefENS_12DenseMapInfoIS5_vEENS_6detail12DenseMapPairIS5_S6_EEEES5_S6_S8_SB_E31getMinBucketToReserveForEntriesEj = comdat any

$_ZN4llvm8DenseMapIPKN5clang11DeclContextENS_9StringRefENS_12DenseMapInfoIS4_vEENS_6detail12DenseMapPairIS4_S5_EEE15allocateBucketsEj = comdat any

$_ZN4llvm12DenseMapBaseINS_8DenseMapIPKN5clang11DeclContextENS_9StringRefENS_12DenseMapInfoIS5_vEENS_6detail12DenseMapPairIS5_S6_EEEES5_S6_S8_SB_E9initEmptyEv = comdat any

$_ZN4llvm12NextPowerOf2Em = comdat any

$_ZN4llvm12DenseMapBaseINS_8DenseMapIPKN5clang11DeclContextENS_9StringRefENS_12DenseMapInfoIS5_vEENS_6detail12DenseMapPairIS5_S6_EEEES5_S6_S8_SB_E13setNumEntriesEj = comdat any

$_ZN4llvm12DenseMapBaseINS_8DenseMapIPKN5clang11DeclContextENS_9StringRefENS_12DenseMapInfoIS5_vEENS_6detail12DenseMapPairIS5_S6_EEEES5_S6_S8_SB_E16setNumTombstonesEj = comdat any

$_ZNK4llvm12DenseMapBaseINS_8DenseMapIPKN5clang11DeclContextENS_9StringRefENS_12DenseMapInfoIS5_vEENS_6detail12DenseMapPairIS5_S6_EEEES5_S6_S8_SB_E13getNumBucketsEv = comdat any

$_ZN4llvm12DenseMapBaseINS_8DenseMapIPKN5clang11DeclContextENS_9StringRefENS_12DenseMapInfoIS5_vEENS_6detail12DenseMapPairIS5_S6_EEEES5_S6_S8_SB_E11getEmptyKeyEv = comdat any

$_ZN4llvm12DenseMapBaseINS_8DenseMapIPKN5clang11DeclContextENS_9StringRefENS_12DenseMapInfoIS5_vEENS_6detail12DenseMapPairIS5_S6_EEEES5_S6_S8_SB_E10getBucketsEv = comdat any

$_ZN4llvm12DenseMapBaseINS_8DenseMapIPKN5clang11DeclContextENS_9StringRefENS_12DenseMapInfoIS5_vEENS_6detail12DenseMapPairIS5_S6_EEEES5_S6_S8_SB_E13getBucketsEndEv = comdat any

$_ZN4llvm6detail12DenseMapPairIPKN5clang11DeclContextENS_9StringRefEE8getFirstEv = comdat any

$_ZN4llvm8DenseMapIPKN5clang11DeclContextENS_9StringRefENS_12DenseMapInfoIS4_vEENS_6detail12DenseMapPairIS4_S5_EEE13setNumEntriesEj = comdat any

$_ZN4llvm8DenseMapIPKN5clang11DeclContextENS_9StringRefENS_12DenseMapInfoIS4_vEENS_6detail12DenseMapPairIS4_S5_EEE16setNumTombstonesEj = comdat any

$_ZNK4llvm8DenseMapIPKN5clang11DeclContextENS_9StringRefENS_12DenseMapInfoIS4_vEENS_6detail12DenseMapPairIS4_S5_EEE13getNumBucketsEv = comdat any

$_ZN4llvm12DenseMapInfoIPKN5clang11DeclContextEvE11getEmptyKeyEv = comdat any

$_ZNK4llvm8DenseMapIPKN5clang11DeclContextENS_9StringRefENS_12DenseMapInfoIS4_vEENS_6detail12DenseMapPairIS4_S5_EEE10getBucketsEv = comdat any

$_ZNSt12__shared_ptrIN5clang29GlobalCodeCompletionAllocatorELN9__gnu_cxx12_Lock_policyE2EEC2EOS4_ = comdat any

$_ZNSt14__shared_countILN9__gnu_cxx12_Lock_policyE2EEC2Ev = comdat any

$_ZNSt14__shared_countILN9__gnu_cxx12_Lock_policyE2EE7_M_swapERS2_ = comdat any

$_ZNSt12__shared_ptrIN5clang29GlobalCodeCompletionAllocatorELN9__gnu_cxx12_Lock_policyE2EED2Ev = comdat any

$_ZN8nlohmann10basic_jsonISt3mapSt6vectorNSt7__cxx1112basic_stringIcSt11char_traitsIcESaIcEEEblmdSaNS_14adl_serializerEEC2ESt16initializer_listISA_EbNS_6detail7value_tE = comdat any

$_ZSt6all_ofIPKN8nlohmann10basic_jsonISt3mapSt6vectorNSt7__cxx1112basic_stringIcSt11char_traitsIcESaIcEEEblmdSaNS0_14adl_serializerEEEZNSB_C1ESt16initializer_listISB_EbNS0_6detail7value_tEEUlRSC_E_EbT_SK_T0_ = comdat any

$_ZNKSt16initializer_listIN8nlohmann10basic_jsonISt3mapSt6vectorNSt7__cxx1112basic_stringIcSt11char_traitsIcESaIcEEEblmdSaNS0_14adl_serializerEEEE5beginEv = comdat any

$_ZNKSt16initializer_listIN8nlohmann10basic_jsonISt3mapSt6vectorNSt7__cxx1112basic_stringIcSt11char_traitsIcESaIcEEEblmdSaNS0_14adl_serializerEEEE3endEv = comdat any

$_ZN8nlohmann10basic_jsonISt3mapSt6vectorNSt7__cxx1112basic_stringIcSt11char_traitsIcESaIcEEEblmdSaNS_14adl_serializerEE10json_valueC2ENS_6detail7value_tE = comdat any

$_ZSt8for_eachIPKN8nlohmann10basic_jsonISt3mapSt6vectorNSt7__cxx1112basic_stringIcSt11char_traitsIcESaIcEEEblmdSaNS0_14adl_serializerEEEZNSB_C1ESt16initializer_listISB_EbNS0_6detail7value_tEEUlRSC_E0_ET0_T_SL_SK_ = comdat any

$_ZN8nlohmann10basic_jsonISt3mapSt6vectorNSt7__cxx1112basic_stringIcSt11char_traitsIcESaIcEEEblmdSaNS_14adl_serializerEE6createIS2_ISA_SaISA_EEJRSt16initializer_listISA_EEEEPT_DpOT0_ = comdat any

$_ZNK8nlohmann10basic_jsonISt3mapSt6vectorNSt7__cxx1112basic_stringIcSt11char_traitsIcESaIcEEEblmdSaNS_14adl_serializerEE16assert_invariantEv = comdat any

$_ZSt11find_if_notIPKN8nlohmann10basic_jsonISt3mapSt6vectorNSt7__cxx1112basic_stringIcSt11char_traitsIcESaIcEEEblmdSaNS0_14adl_serializerEEEZNSB_C1ESt16initializer_listISB_EbNS0_6detail7value_tEEUlRSC_E_ET_SK_SK_T0_ = comdat any

$_ZSt13__find_if_notIPKN8nlohmann10basic_jsonISt3mapSt6vectorNSt7__cxx1112basic_stringIcSt11char_traitsIcESaIcEEEblmdSaNS0_14adl_serializerEEEN9__gnu_cxx5__ops10_Iter_predIZNSB_C1ESt16initializer_listISB_EbNS0_6detail7value_tEEUlRSC_E_EEET_SO_SO_T0_ = comdat any

$_ZN9__gnu_cxx5__ops11__pred_iterIZN8nlohmann10basic_jsonISt3mapSt6vectorNSt7__cxx1112basic_stringIcSt11char_traitsIcESaIcEEEblmdSaNS2_14adl_serializerEEC1ESt16initializer_listISD_EbNS2_6detail7value_tEEUlRKSD_E_EENS0_10_Iter_predIT_EESM_ = comdat any

$_ZSt9__find_ifIPKN8nlohmann10basic_jsonISt3mapSt6vectorNSt7__cxx1112basic_stringIcSt11char_traitsIcESaIcEEEblmdSaNS0_14adl_serializerEEEN9__gnu_cxx5__ops12_Iter_negateIZNSB_C1ESt16initializer_listISB_EbNS0_6detail7value_tEEUlRSC_E_EEET_SO_SO_T0_ = comdat any

$_ZN9__gnu_cxx5__ops8__negateIZN8nlohmann10basic_jsonISt3mapSt6vectorNSt7__cxx1112basic_stringIcSt11char_traitsIcESaIcEEEblmdSaNS2_14adl_serializerEEC1ESt16initializer_listISD_EbNS2_6detail7value_tEEUlRKSD_E_EENS0_12_Iter_negateIT_EENS0_10_Iter_predISM_EE = comdat any

$_ZN9__gnu_cxx5__ops12_Iter_negateIZN8nlohmann10basic_jsonISt3mapSt6vectorNSt7__cxx1112basic_stringIcSt11char_traitsIcESaIcEEEblmdSaNS2_14adl_serializerEEC1ESt16initializer_listISD_EbNS2_6detail7value_tEEUlRKSD_E_EclIPSI_EEbT_ = comdat any

$_ZZN8nlohmann10basic_jsonISt3mapSt6vectorNSt7__cxx1112basic_stringIcSt11char_traitsIcESaIcEEEblmdSaNS_14adl_serializerEEC1ESt16initializer_listISA_EbNS_6detail7value_tEENKUlRKSA_E_clESG_ = comdat any

$_ZNK8nlohmann10basic_jsonISt3mapSt6vectorNSt7__cxx1112basic_stringIcSt11char_traitsIcESaIcEEEblmdSaNS_14adl_serializerEE8is_arrayEv = comdat any

$_ZNK8nlohmann10basic_jsonISt3mapSt6vectorNSt7__cxx1112basic_stringIcSt11char_traitsIcESaIcEEEblmdSaNS_14adl_serializerEE4sizeEv = comdat any

$_ZNK8nlohmann10basic_jsonISt3mapSt6vectorNSt7__cxx1112basic_stringIcSt11char_traitsIcESaIcEEEblmdSaNS_14adl_serializerEEixEm = comdat any

$_ZNK8nlohmann10basic_jsonISt3mapSt6vectorNSt7__cxx1112basic_stringIcSt11char_traitsIcESaIcEEEblmdSaNS_14adl_serializerEE9is_stringEv = comdat any

$_ZNKSt6vectorIN8nlohmann10basic_jsonISt3mapS_NSt7__cxx1112basic_stringIcSt11char_traitsIcESaIcEEEblmdSaNS0_14adl_serializerEEESaISA_EE4sizeEv = comdat any

$_ZNKSt3mapINSt7__cxx1112basic_stringIcSt11char_traitsIcESaIcEEEN8nlohmann10basic_jsonIS_St6vectorS5_blmdSaNS6_14adl_serializerEEESt4lessIS5_ESaISt4pairIKS5_SA_EEE4sizeEv = comdat any

$_ZNKSt8_Rb_treeINSt7__cxx1112basic_stringIcSt11char_traitsIcESaIcEEESt4pairIKS5_N8nlohmann10basic_jsonISt3mapSt6vectorS5_blmdSaNS8_14adl_serializerEEEESt10_Select1stISE_ESt4lessIS5_ESaISE_EE4sizeEv = comdat any

$_ZNSt6vectorIN8nlohmann10basic_jsonISt3mapS_NSt7__cxx1112basic_stringIcSt11char_traitsIcESaIcEEEblmdSaNS0_14adl_serializerEEESaISA_EEixEm = comdat any

$_ZStplIcSt11char_traitsIcESaIcEENSt7__cxx1112basic_stringIT_T0_T1_EEPKS5_OS8_ = comdat any

$_ZNK8nlohmann10basic_jsonISt3mapSt6vectorNSt7__cxx1112basic_stringIcSt11char_traitsIcESaIcEEEblmdSaNS_14adl_serializerEE9type_nameEv = comdat any

$_ZNSt7__cxx1112basic_stringIcSt11char_traitsIcESaIcEE6insertEmPKc = comdat any

$_ZNSt7__cxx1112basic_stringIcSt11char_traitsIcESaIcEE7replaceEmmPKcm = comdat any

$_ZNSt7__cxx1112basic_stringIcSt11char_traitsIcESaIcEE10_M_replaceEmmPKcm = comdat any

$_ZNKSt7__cxx1112basic_stringIcSt11char_traitsIcESaIcEE8_M_checkEmPKc = comdat any

$_ZNKSt7__cxx1112basic_stringIcSt11char_traitsIcESaIcEE8_M_limitEmm = comdat any

$_ZNKSt7__cxx1112basic_stringIcSt11char_traitsIcESaIcEE15_M_check_lengthEmmPKc = comdat any

$_ZNKSt7__cxx1112basic_stringIcSt11char_traitsIcESaIcEE8capacityEv = comdat any

$_ZNKSt7__cxx1112basic_stringIcSt11char_traitsIcESaIcEE11_M_disjunctEPKc = comdat any

$_ZNSt7__cxx1112basic_stringIcSt11char_traitsIcESaIcEE7_S_moveEPcPKcm = comdat any

$_ZNSt7__cxx1112basic_stringIcSt11char_traitsIcESaIcEE15_M_replace_coldEPcmPKcmm = comdat any

$_ZNSt7__cxx1112basic_stringIcSt11char_traitsIcESaIcEE9_M_mutateEmmPKcm = comdat any

$_ZNKSt4lessIPKcEclES1_S1_ = comdat any

$_ZNSt11char_traitsIcE4moveEPcPKcm = comdat any

$_ZNSt7__cxx1112basic_stringIcSt11char_traitsIcESaIcEE10_M_disposeEv = comdat any

$_ZNSt7__cxx1112basic_stringIcSt11char_traitsIcESaIcEE10_M_destroyEm = comdat any

$_ZNSt15__new_allocatorIcE10deallocateEPcm = comdat any

$_ZN9__gnu_cxx5__ops12_Iter_negateIZN8nlohmann10basic_jsonISt3mapSt6vectorNSt7__cxx1112basic_stringIcSt11char_traitsIcESaIcEEEblmdSaNS2_14adl_serializerEEC1ESt16initializer_listISD_EbNS2_6detail7value_tEEUlRKSD_E_EC2ESK_ = comdat any

$_ZN9__gnu_cxx5__ops10_Iter_predIZN8nlohmann10basic_jsonISt3mapSt6vectorNSt7__cxx1112basic_stringIcSt11char_traitsIcESaIcEEEblmdSaNS2_14adl_serializerEEC1ESt16initializer_listISD_EbNS2_6detail7value_tEEUlRKSD_E_EC2ESK_ = comdat any

$_ZNKSt16initializer_listIN8nlohmann10basic_jsonISt3mapSt6vectorNSt7__cxx1112basic_stringIcSt11char_traitsIcESaIcEEEblmdSaNS0_14adl_serializerEEEE4sizeEv = comdat any

$_ZN8nlohmann10basic_jsonISt3mapSt6vectorNSt7__cxx1112basic_stringIcSt11char_traitsIcESaIcEEEblmdSaNS_14adl_serializerEE6createIS1_IS8_SA_St4lessIS8_ESaISt4pairIKS8_SA_EEEJEEEPT_DpOT0_ = comdat any

$_ZN8nlohmann10basic_jsonISt3mapSt6vectorNSt7__cxx1112basic_stringIcSt11char_traitsIcESaIcEEEblmdSaNS_14adl_serializerEE6createIS2_ISA_SaISA_EEJEEEPT_DpOT0_ = comdat any

$_ZN8nlohmann10basic_jsonISt3mapSt6vectorNSt7__cxx1112basic_stringIcSt11char_traitsIcESaIcEEEblmdSaNS_14adl_serializerEE6createIS8_JRA1_KcEEEPT_DpOT0_ = comdat any

$_ZNSt15__new_allocatorISt3mapINSt7__cxx1112basic_stringIcSt11char_traitsIcESaIcEEEN8nlohmann10basic_jsonIS0_St6vectorS6_blmdSaNS7_14adl_serializerEEESt4lessIS6_ESaISt4pairIKS6_SB_EEEE8allocateEmPKv = comdat any

$_ZNSt10unique_ptrISt3mapINSt7__cxx1112basic_stringIcSt11char_traitsIcESaIcEEEN8nlohmann10basic_jsonIS0_St6vectorS6_blmdSaNS7_14adl_serializerEEESt4lessIS6_ESaISt4pairIKS6_SB_EEEZNSB_6createISI_JEEEPT_DpOT0_EUlPSI_E_EC2ISQ_vEESP_RKSQ_ = comdat any

$_ZNKSt10unique_ptrISt3mapINSt7__cxx1112basic_stringIcSt11char_traitsIcESaIcEEEN8nlohmann10basic_jsonIS0_St6vectorS6_blmdSaNS7_14adl_serializerEEESt4lessIS6_ESaISt4pairIKS6_SB_EEEZNSB_6createISI_JEEEPT_DpOT0_EUlPSI_E_E3getEv = comdat any

$_ZStneISt3mapINSt7__cxx1112basic_stringIcSt11char_traitsIcESaIcEEEN8nlohmann10basic_jsonIS0_St6vectorS6_blmdSaNS7_14adl_serializerEEESt4lessIS6_ESaISt4pairIKS6_SB_EEEZNSB_6createISI_JEEEPT_DpOT0_EUlPSI_E_EbRKSt10unique_ptrISK_T0_EDn = comdat any

$_ZNSt10unique_ptrISt3mapINSt7__cxx1112basic_stringIcSt11char_traitsIcESaIcEEEN8nlohmann10basic_jsonIS0_St6vectorS6_blmdSaNS7_14adl_serializerEEESt4lessIS6_ESaISt4pairIKS6_SB_EEEZNSB_6createISI_JEEEPT_DpOT0_EUlPSI_E_E7releaseEv = comdat any

$_ZNSt10unique_ptrISt3mapINSt7__cxx1112basic_stringIcSt11char_traitsIcESaIcEEEN8nlohmann10basic_jsonIS0_St6vectorS6_blmdSaNS7_14adl_serializerEEESt4lessIS6_ESaISt4pairIKS6_SB_EEEZNSB_6createISI_JEEEPT_DpOT0_EUlPSI_E_ED2Ev = comdat any

$_ZNSt15__uniq_ptr_dataISt3mapINSt7__cxx1112basic_stringIcSt11char_traitsIcESaIcEEEN8nlohmann10basic_jsonIS0_St6vectorS6_blmdSaNS7_14adl_serializerEEESt4lessIS6_ESaISt4pairIKS6_SB_EEEZNSB_6createISI_JEEEPT_DpOT0_EUlPSI_E_Lb1ELb0EECI2St15__uniq_ptr_implISI_SQ_EIRKSQ_EESP_OSK_ = comdat any

$_ZNSt15__uniq_ptr_implISt3mapINSt7__cxx1112basic_stringIcSt11char_traitsIcESaIcEEEN8nlohmann10basic_jsonIS0_St6vectorS6_blmdSaNS7_14adl_serializerEEESt4lessIS6_ESaISt4pairIKS6_SB_EEEZNSB_6createISI_JEEEPT_DpOT0_EUlPSI_E_EC2IRKSQ_EESP_OSK_ = comdat any

$_ZNSt5tupleIJPSt3mapINSt7__cxx1112basic_stringIcSt11char_traitsIcESaIcEEEN8nlohmann10basic_jsonIS0_St6vectorS6_blmdSaNS7_14adl_serializerEEESt4lessIS6_ESaISt4pairIKS6_SB_EEEZNSB_6createISI_JEEEPT_DpOT0_EUlSJ_E_EEC2IRSJ_RKSQ_TnNSt9enable_ifIXclsr4_TCCIXntcl14__is_alloc_argISL_EEEEE29__is_implicitly_constructibleISL_T0_EEEbE4typeELb1EEEOSL_OSX_ = comdat any

$_ZNSt11_Tuple_implILm0EJPSt3mapINSt7__cxx1112basic_stringIcSt11char_traitsIcESaIcEEEN8nlohmann10basic_jsonIS0_St6vectorS6_blmdSaNS7_14adl_serializerEEESt4lessIS6_ESaISt4pairIKS6_SB_EEEZNSB_6createISI_JEEEPT_DpOT0_EUlSJ_E_EEC2IRSJ_JRKSQ_EvEEOSL_SP_ = comdat any

$_ZNSt11_Tuple_implILm1EJZN8nlohmann10basic_jsonISt3mapSt6vectorNSt7__cxx1112basic_stringIcSt11char_traitsIcESaIcEEEblmdSaNS0_14adl_serializerEE6createIS2_IS9_SB_St4lessIS9_ESaISt4pairIKS9_SB_EEEJEEEPT_DpOT0_EUlPSJ_E_EEC2ERKSQ_ = comdat any

$_ZNSt10_Head_baseILm0EPSt3mapINSt7__cxx1112basic_stringIcSt11char_traitsIcESaIcEEEN8nlohmann10basic_jsonIS0_St6vectorS6_blmdSaNS7_14adl_serializerEEESt4lessIS6_ESaISt4pairIKS6_SB_EEELb0EEC2IRSJ_EEOT_ = comdat any

$_ZNSt10_Head_baseILm1EZN8nlohmann10basic_jsonISt3mapSt6vectorNSt7__cxx1112basic_stringIcSt11char_traitsIcESaIcEEEblmdSaNS0_14adl_serializerEE6createIS2_IS9_SB_St4lessIS9_ESaISt4pairIKS9_SB_EEEJEEEPT_DpOT0_EUlPSJ_E_Lb0EEC2ERKSQ_ = comdat any

$_ZNSt3mapINSt7__cxx1112basic_stringIcSt11char_traitsIcESaIcEEEN8nlohmann10basic_jsonIS_St6vectorS5_blmdSaNS6_14adl_serializerEEESt4lessIS5_ESaISt4pairIKS5_SA_EEEC2Ev = comdat any

$_ZNSt8_Rb_treeINSt7__cxx1112basic_stringIcSt11char_traitsIcESaIcEEESt4pairIKS5_N8nlohmann10basic_jsonISt3mapSt6vectorS5_blmdSaNS8_14adl_serializerEEEESt10_Select1stISE_ESt4lessIS5_ESaISE_EEC2Ev = comdat any

$_ZNSt8_Rb_treeINSt7__cxx1112basic_stringIcSt11char_traitsIcESaIcEEESt4pairIKS5_N8nlohmann10basic_jsonISt3mapSt6vectorS5_blmdSaNS8_14adl_serializerEEEESt10_Select1stISE_ESt4lessIS5_ESaISE_EE13_Rb_tree_implISI_Lb1EEC2Ev = comdat any

$_ZNSt20_Rb_tree_key_compareISt4lessINSt7__cxx1112basic_stringIcSt11char_traitsIcESaIcEEEEEC2Ev = comdat any

$_ZNSt15_Rb_tree_headerC2Ev = comdat any

$_ZNSt15_Rb_tree_header8_M_resetEv = comdat any

$_ZNKSt15__uniq_ptr_implISt3mapINSt7__cxx1112basic_stringIcSt11char_traitsIcESaIcEEEN8nlohmann10basic_jsonIS0_St6vectorS6_blmdSaNS7_14adl_serializerEEESt4lessIS6_ESaISt4pairIKS6_SB_EEEZNSB_6createISI_JEEEPT_DpOT0_EUlPSI_E_E6_M_ptrEv = comdat any

$_ZSt3getILm0EJPSt3mapINSt7__cxx1112basic_stringIcSt11char_traitsIcESaIcEEEN8nlohmann10basic_jsonIS0_St6vectorS6_blmdSaNS7_14adl_serializerEEESt4lessIS6_ESaISt4pairIKS6_SB_EEEZNSB_6createISI_JEEEPT_DpOT0_EUlSJ_E_EERKNSt13tuple_elementIXT_ESt5tupleIJDpSN_EEE4typeERKSU_ = comdat any

$_ZSt12__get_helperILm0EPSt3mapINSt7__cxx1112basic_stringIcSt11char_traitsIcESaIcEEEN8nlohmann10basic_jsonIS0_St6vectorS6_blmdSaNS7_14adl_serializerEEESt4lessIS6_ESaISt4pairIKS6_SB_EEEJZNSB_6createISI_JEEEPT_DpOT0_EUlSJ_E_EERKT0_RKSt11_Tuple_implIXT_EJSR_DpT1_EE = comdat any

$_ZNSt11_Tuple_implILm0EJPSt3mapINSt7__cxx1112basic_stringIcSt11char_traitsIcESaIcEEEN8nlohmann10basic_jsonIS0_St6vectorS6_blmdSaNS7_14adl_serializerEEESt4lessIS6_ESaISt4pairIKS6_SB_EEEZNSB_6createISI_JEEEPT_DpOT0_EUlSJ_E_EE7_M_headERKSR_ = comdat any

$_ZNSt10_Head_baseILm0EPSt3mapINSt7__cxx1112basic_stringIcSt11char_traitsIcESaIcEEEN8nlohmann10basic_jsonIS0_St6vectorS6_blmdSaNS7_14adl_serializerEEESt4lessIS6_ESaISt4pairIKS6_SB_EEELb0EE7_M_headERKSK_ = comdat any

$_ZNKSt10unique_ptrISt3mapINSt7__cxx1112basic_stringIcSt11char_traitsIcESaIcEEEN8nlohmann10basic_jsonIS0_St6vectorS6_blmdSaNS7_14adl_serializerEEESt4lessIS6_ESaISt4pairIKS6_SB_EEEZNSB_6createISI_JEEEPT_DpOT0_EUlPSI_E_EcvbEv = comdat any

$_ZNSt15__uniq_ptr_implISt3mapINSt7__cxx1112basic_stringIcSt11char_traitsIcESaIcEEEN8nlohmann10basic_jsonIS0_St6vectorS6_blmdSaNS7_14adl_serializerEEESt4lessIS6_ESaISt4pairIKS6_SB_EEEZNSB_6createISI_JEEEPT_DpOT0_EUlPSI_E_E7releaseEv = comdat any

$_ZNSt15__uniq_ptr_implISt3mapINSt7__cxx1112basic_stringIcSt11char_traitsIcESaIcEEEN8nlohmann10basic_jsonIS0_St6vectorS6_blmdSaNS7_14adl_serializerEEESt4lessIS6_ESaISt4pairIKS6_SB_EEEZNSB_6createISI_JEEEPT_DpOT0_EUlPSI_E_E6_M_ptrEv = comdat any

$_ZSt3getILm0EJPSt3mapINSt7__cxx1112basic_stringIcSt11char_traitsIcESaIcEEEN8nlohmann10basic_jsonIS0_St6vectorS6_blmdSaNS7_14adl_serializerEEESt4lessIS6_ESaISt4pairIKS6_SB_EEEZNSB_6createISI_JEEEPT_DpOT0_EUlSJ_E_EERNSt13tuple_elementIXT_ESt5tupleIJDpSN_EEE4typeERSU_ = comdat any

$_ZSt12__get_helperILm0EPSt3mapINSt7__cxx1112basic_stringIcSt11char_traitsIcESaIcEEEN8nlohmann10basic_jsonIS0_St6vectorS6_blmdSaNS7_14adl_serializerEEESt4lessIS6_ESaISt4pairIKS6_SB_EEEJZNSB_6createISI_JEEEPT_DpOT0_EUlSJ_E_EERT0_RSt11_Tuple_implIXT_EJSR_DpT1_EE = comdat any

$_ZNSt11_Tuple_implILm0EJPSt3mapINSt7__cxx1112basic_stringIcSt11char_traitsIcESaIcEEEN8nlohmann10basic_jsonIS0_St6vectorS6_blmdSaNS7_14adl_serializerEEESt4lessIS6_ESaISt4pairIKS6_SB_EEEZNSB_6createISI_JEEEPT_DpOT0_EUlSJ_E_EE7_M_headERSR_ = comdat any

$_ZNSt10_Head_baseILm0EPSt3mapINSt7__cxx1112basic_stringIcSt11char_traitsIcESaIcEEEN8nlohmann10basic_jsonIS0_St6vectorS6_blmdSaNS7_14adl_serializerEEESt4lessIS6_ESaISt4pairIKS6_SB_EEELb0EE7_M_headERSK_ = comdat any

$_ZNSt10unique_ptrISt3mapINSt7__cxx1112basic_stringIcSt11char_traitsIcESaIcEEEN8nlohmann10basic_jsonIS0_St6vectorS6_blmdSaNS7_14adl_serializerEEESt4lessIS6_ESaISt4pairIKS6_SB_EEEZNSB_6createISI_JEEEPT_DpOT0_EUlPSI_E_E11get_deleterEv = comdat any

$_ZZN8nlohmann10basic_jsonISt3mapSt6vectorNSt7__cxx1112basic_stringIcSt11char_traitsIcESaIcEEEblmdSaNS_14adl_serializerEE6createIS1_IS8_SA_St4lessIS8_ESaISt4pairIKS8_SA_EEEJEEEPT_DpOT0_ENKUlPSI_E_clESO_ = comdat any

$_ZNSt15__uniq_ptr_implISt3mapINSt7__cxx1112basic_stringIcSt11char_traitsIcESaIcEEEN8nlohmann10basic_jsonIS0_St6vectorS6_blmdSaNS7_14adl_serializerEEESt4lessIS6_ESaISt4pairIKS6_SB_EEEZNSB_6createISI_JEEEPT_DpOT0_EUlPSI_E_E10_M_deleterEv = comdat any

$_ZSt3getILm1EJPSt3mapINSt7__cxx1112basic_stringIcSt11char_traitsIcESaIcEEEN8nlohmann10basic_jsonIS0_St6vectorS6_blmdSaNS7_14adl_serializerEEESt4lessIS6_ESaISt4pairIKS6_SB_EEEZNSB_6createISI_JEEEPT_DpOT0_EUlSJ_E_EERNSt13tuple_elementIXT_ESt5tupleIJDpSN_EEE4typeERSU_ = comdat any

$_ZSt12__get_helperILm1EZN8nlohmann10basic_jsonISt3mapSt6vectorNSt7__cxx1112basic_stringIcSt11char_traitsIcESaIcEEEblmdSaNS0_14adl_serializerEE6createIS2_IS9_SB_St4lessIS9_ESaISt4pairIKS9_SB_EEEJEEEPT_DpOT0_EUlPSJ_E_JEERT0_RSt11_Tuple_implIXT_EJSR_DpT1_EE = comdat any

$_ZNSt11_Tuple_implILm1EJZN8nlohmann10basic_jsonISt3mapSt6vectorNSt7__cxx1112basic_stringIcSt11char_traitsIcESaIcEEEblmdSaNS0_14adl_serializerEE6createIS2_IS9_SB_St4lessIS9_ESaISt4pairIKS9_SB_EEEJEEEPT_DpOT0_EUlPSJ_E_EE7_M_headERSR_ = comdat any

$_ZNSt10_Head_baseILm1EZN8nlohmann10basic_jsonISt3mapSt6vectorNSt7__cxx1112basic_stringIcSt11char_traitsIcESaIcEEEblmdSaNS0_14adl_serializerEE6createIS2_IS9_SB_St4lessIS9_ESaISt4pairIKS9_SB_EEEJEEEPT_DpOT0_EUlPSJ_E_Lb0EE7_M_headERSR_ = comdat any

$_ZNSt15__new_allocatorISt3mapINSt7__cxx1112basic_stringIcSt11char_traitsIcESaIcEEEN8nlohmann10basic_jsonIS0_St6vectorS6_blmdSaNS7_14adl_serializerEEESt4lessIS6_ESaISt4pairIKS6_SB_EEEE10deallocateEPSI_m = comdat any

$_ZNSt15__new_allocatorISt3mapINSt7__cxx1112basic_stringIcSt11char_traitsIcESaIcEEEN8nlohmann10basic_jsonIS0_St6vectorS6_blmdSaNS7_14adl_serializerEEESt4lessIS6_ESaISt4pairIKS6_SB_EEEED2Ev = comdat any

$_ZNSt15__new_allocatorISt6vectorIN8nlohmann10basic_jsonISt3mapS0_NSt7__cxx1112basic_stringIcSt11char_traitsIcESaIcEEEblmdSaNS1_14adl_serializerEEESaISB_EEE8allocateEmPKv = comdat any

$_ZNSt10unique_ptrISt6vectorIN8nlohmann10basic_jsonISt3mapS0_NSt7__cxx1112basic_stringIcSt11char_traitsIcESaIcEEEblmdSaNS1_14adl_serializerEEESaISB_EEZNSB_6createISD_JEEEPT_DpOT0_EUlPSD_E_EC2ISL_vEESK_RKSL_ = comdat any

$_ZNKSt10unique_ptrISt6vectorIN8nlohmann10basic_jsonISt3mapS0_NSt7__cxx1112basic_stringIcSt11char_traitsIcESaIcEEEblmdSaNS1_14adl_serializerEEESaISB_EEZNSB_6createISD_JEEEPT_DpOT0_EUlPSD_E_E3getEv = comdat any

$_ZStneISt6vectorIN8nlohmann10basic_jsonISt3mapS0_NSt7__cxx1112basic_stringIcSt11char_traitsIcESaIcEEEblmdSaNS1_14adl_serializerEEESaISB_EEZNSB_6createISD_JEEEPT_DpOT0_EUlPSD_E_EbRKSt10unique_ptrISF_T0_EDn = comdat any

$_ZNSt10unique_ptrISt6vectorIN8nlohmann10basic_jsonISt3mapS0_NSt7__cxx1112basic_stringIcSt11char_traitsIcESaIcEEEblmdSaNS1_14adl_serializerEEESaISB_EEZNSB_6createISD_JEEEPT_DpOT0_EUlPSD_E_E7releaseEv = comdat any

$_ZNSt10unique_ptrISt6vectorIN8nlohmann10basic_jsonISt3mapS0_NSt7__cxx1112basic_stringIcSt11char_traitsIcESaIcEEEblmdSaNS1_14adl_serializerEEESaISB_EEZNSB_6createISD_JEEEPT_DpOT0_EUlPSD_E_ED2Ev = comdat any

$_ZNSt15__uniq_ptr_dataISt6vectorIN8nlohmann10basic_jsonISt3mapS0_NSt7__cxx1112basic_stringIcSt11char_traitsIcESaIcEEEblmdSaNS1_14adl_serializerEEESaISB_EEZNSB_6createISD_JEEEPT_DpOT0_EUlPSD_E_Lb1ELb0EECI2St15__uniq_ptr_implISD_SL_EIRKSL_EESK_OSF_ = comdat any

$_ZNSt15__uniq_ptr_implISt6vectorIN8nlohmann10basic_jsonISt3mapS0_NSt7__cxx1112basic_stringIcSt11char_traitsIcESaIcEEEblmdSaNS1_14adl_serializerEEESaISB_EEZNSB_6createISD_JEEEPT_DpOT0_EUlPSD_E_EC2IRKSL_EESK_OSF_ = comdat any

$_ZNSt5tupleIJPSt6vectorIN8nlohmann10basic_jsonISt3mapS0_NSt7__cxx1112basic_stringIcSt11char_traitsIcESaIcEEEblmdSaNS1_14adl_serializerEEESaISB_EEZNSB_6createISD_JEEEPT_DpOT0_EUlSE_E_EEC2IRSE_RKSL_TnNSt9enable_ifIXclsr4_TCCIXntcl14__is_alloc_argISG_EEEEE29__is_implicitly_constructibleISG_T0_EEEbE4typeELb1EEEOSG_OSS_ = comdat any

$_ZNSt11_Tuple_implILm0EJPSt6vectorIN8nlohmann10basic_jsonISt3mapS0_NSt7__cxx1112basic_stringIcSt11char_traitsIcESaIcEEEblmdSaNS1_14adl_serializerEEESaISB_EEZNSB_6createISD_JEEEPT_DpOT0_EUlSE_E_EEC2IRSE_JRKSL_EvEEOSG_SK_ = comdat any

$_ZNSt11_Tuple_implILm1EJZN8nlohmann10basic_jsonISt3mapSt6vectorNSt7__cxx1112basic_stringIcSt11char_traitsIcESaIcEEEblmdSaNS0_14adl_serializerEE6createIS3_ISB_SaISB_EEJEEEPT_DpOT0_EUlPSE_E_EEC2ERKSL_ = comdat any

$_ZNSt10_Head_baseILm0EPSt6vectorIN8nlohmann10basic_jsonISt3mapS0_NSt7__cxx1112basic_stringIcSt11char_traitsIcESaIcEEEblmdSaNS1_14adl_serializerEEESaISB_EELb0EEC2IRSE_EEOT_ = comdat any

$_ZNSt10_Head_baseILm1EZN8nlohmann10basic_jsonISt3mapSt6vectorNSt7__cxx1112basic_stringIcSt11char_traitsIcESaIcEEEblmdSaNS0_14adl_serializerEE6createIS3_ISB_SaISB_EEJEEEPT_DpOT0_EUlPSE_E_Lb0EEC2ERKSL_ = comdat any

$_ZNSt6vectorIN8nlohmann10basic_jsonISt3mapS_NSt7__cxx1112basic_stringIcSt11char_traitsIcESaIcEEEblmdSaNS0_14adl_serializerEEESaISA_EEC2Ev = comdat any

$_ZNSt12_Vector_baseIN8nlohmann10basic_jsonISt3mapSt6vectorNSt7__cxx1112basic_stringIcSt11char_traitsIcESaIcEEEblmdSaNS0_14adl_serializerEEESaISB_EEC2Ev = comdat any

$_ZNSt12_Vector_baseIN8nlohmann10basic_jsonISt3mapSt6vectorNSt7__cxx1112basic_stringIcSt11char_traitsIcESaIcEEEblmdSaNS0_14adl_serializerEEESaISB_EE12_Vector_implC2Ev = comdat any

$_ZNSt12_Vector_baseIN8nlohmann10basic_jsonISt3mapSt6vectorNSt7__cxx1112basic_stringIcSt11char_traitsIcESaIcEEEblmdSaNS0_14adl_serializerEEESaISB_EE17_Vector_impl_dataC2Ev = comdat any

$_ZNKSt15__uniq_ptr_implISt6vectorIN8nlohmann10basic_jsonISt3mapS0_NSt7__cxx1112basic_stringIcSt11char_traitsIcESaIcEEEblmdSaNS1_14adl_serializerEEESaISB_EEZNSB_6createISD_JEEEPT_DpOT0_EUlPSD_E_E6_M_ptrEv = comdat any

$_ZSt3getILm0EJPSt6vectorIN8nlohmann10basic_jsonISt3mapS0_NSt7__cxx1112basic_stringIcSt11char_traitsIcESaIcEEEblmdSaNS1_14adl_serializerEEESaISB_EEZNSB_6createISD_JEEEPT_DpOT0_EUlSE_E_EERKNSt13tuple_elementIXT_ESt5tupleIJDpSI_EEE4typeERKSP_ = comdat any

$_ZSt12__get_helperILm0EPSt6vectorIN8nlohmann10basic_jsonISt3mapS0_NSt7__cxx1112basic_stringIcSt11char_traitsIcESaIcEEEblmdSaNS1_14adl_serializerEEESaISB_EEJZNSB_6createISD_JEEEPT_DpOT0_EUlSE_E_EERKT0_RKSt11_Tuple_implIXT_EJSM_DpT1_EE = comdat any

$_ZNSt11_Tuple_implILm0EJPSt6vectorIN8nlohmann10basic_jsonISt3mapS0_NSt7__cxx1112basic_stringIcSt11char_traitsIcESaIcEEEblmdSaNS1_14adl_serializerEEESaISB_EEZNSB_6createISD_JEEEPT_DpOT0_EUlSE_E_EE7_M_headERKSM_ = comdat any

$_ZNSt10_Head_baseILm0EPSt6vectorIN8nlohmann10basic_jsonISt3mapS0_NSt7__cxx1112basic_stringIcSt11char_traitsIcESaIcEEEblmdSaNS1_14adl_serializerEEESaISB_EELb0EE7_M_headERKSF_ = comdat any

$_ZNKSt10unique_ptrISt6vectorIN8nlohmann10basic_jsonISt3mapS0_NSt7__cxx1112basic_stringIcSt11char_traitsIcESaIcEEEblmdSaNS1_14adl_serializerEEESaISB_EEZNSB_6createISD_JEEEPT_DpOT0_EUlPSD_E_EcvbEv = comdat any

$_ZNSt15__uniq_ptr_implISt6vectorIN8nlohmann10basic_jsonISt3mapS0_NSt7__cxx1112basic_stringIcSt11char_traitsIcESaIcEEEblmdSaNS1_14adl_serializerEEESaISB_EEZNSB_6createISD_JEEEPT_DpOT0_EUlPSD_E_E7releaseEv = comdat any

$_ZNSt15__uniq_ptr_implISt6vectorIN8nlohmann10basic_jsonISt3mapS0_NSt7__cxx1112basic_stringIcSt11char_traitsIcESaIcEEEblmdSaNS1_14adl_serializerEEESaISB_EEZNSB_6createISD_JEEEPT_DpOT0_EUlPSD_E_E6_M_ptrEv = comdat any

$_ZSt3getILm0EJPSt6vectorIN8nlohmann10basic_jsonISt3mapS0_NSt7__cxx1112basic_stringIcSt11char_traitsIcESaIcEEEblmdSaNS1_14adl_serializerEEESaISB_EEZNSB_6createISD_JEEEPT_DpOT0_EUlSE_E_EERNSt13tuple_elementIXT_ESt5tupleIJDpSI_EEE4typeERSP_ = comdat any

$_ZSt12__get_helperILm0EPSt6vectorIN8nlohmann10basic_jsonISt3mapS0_NSt7__cxx1112basic_stringIcSt11char_traitsIcESaIcEEEblmdSaNS1_14adl_serializerEEESaISB_EEJZNSB_6createISD_JEEEPT_DpOT0_EUlSE_E_EERT0_RSt11_Tuple_implIXT_EJSM_DpT1_EE = comdat any

$_ZNSt11_Tuple_implILm0EJPSt6vectorIN8nlohmann10basic_jsonISt3mapS0_NSt7__cxx1112basic_stringIcSt11char_traitsIcESaIcEEEblmdSaNS1_14adl_serializerEEESaISB_EEZNSB_6createISD_JEEEPT_DpOT0_EUlSE_E_EE7_M_headERSM_ = comdat any

$_ZNSt10_Head_baseILm0EPSt6vectorIN8nlohmann10basic_jsonISt3mapS0_NSt7__cxx1112basic_stringIcSt11char_traitsIcESaIcEEEblmdSaNS1_14adl_serializerEEESaISB_EELb0EE7_M_headERSF_ = comdat any

$_ZNSt10unique_ptrISt6vectorIN8nlohmann10basic_jsonISt3mapS0_NSt7__cxx1112basic_stringIcSt11char_traitsIcESaIcEEEblmdSaNS1_14adl_serializerEEESaISB_EEZNSB_6createISD_JEEEPT_DpOT0_EUlPSD_E_E11get_deleterEv = comdat any

$_ZZN8nlohmann10basic_jsonISt3mapSt6vectorNSt7__cxx1112basic_stringIcSt11char_traitsIcESaIcEEEblmdSaNS_14adl_serializerEE6createIS2_ISA_SaISA_EEJEEEPT_DpOT0_ENKUlPSD_E_clESJ_ = comdat any

$_ZNSt15__uniq_ptr_implISt6vectorIN8nlohmann10basic_jsonISt3mapS0_NSt7__cxx1112basic_stringIcSt11char_traitsIcESaIcEEEblmdSaNS1_14adl_serializerEEESaISB_EEZNSB_6createISD_JEEEPT_DpOT0_EUlPSD_E_E10_M_deleterEv = comdat any

$_ZSt3getILm1EJPSt6vectorIN8nlohmann10basic_jsonISt3mapS0_NSt7__cxx1112basic_stringIcSt11char_traitsIcESaIcEEEblmdSaNS1_14adl_serializerEEESaISB_EEZNSB_6createISD_JEEEPT_DpOT0_EUlSE_E_EERNSt13tuple_elementIXT_ESt5tupleIJDpSI_EEE4typeERSP_ = comdat any

$_ZSt12__get_helperILm1EZN8nlohmann10basic_jsonISt3mapSt6vectorNSt7__cxx1112basic_stringIcSt11char_traitsIcESaIcEEEblmdSaNS0_14adl_serializerEE6createIS3_ISB_SaISB_EEJEEEPT_DpOT0_EUlPSE_E_JEERT0_RSt11_Tuple_implIXT_EJSM_DpT1_EE = comdat any

$_ZNSt11_Tuple_implILm1EJZN8nlohmann10basic_jsonISt3mapSt6vectorNSt7__cxx1112basic_stringIcSt11char_traitsIcESaIcEEEblmdSaNS0_14adl_serializerEE6createIS3_ISB_SaISB_EEJEEEPT_DpOT0_EUlPSE_E_EE7_M_headERSM_ = comdat any

$_ZNSt10_Head_baseILm1EZN8nlohmann10basic_jsonISt3mapSt6vectorNSt7__cxx1112basic_stringIcSt11char_traitsIcESaIcEEEblmdSaNS0_14adl_serializerEE6createIS3_ISB_SaISB_EEJEEEPT_DpOT0_EUlPSE_E_Lb0EE7_M_headERSM_ = comdat any

$_ZNSt15__new_allocatorISt6vectorIN8nlohmann10basic_jsonISt3mapS0_NSt7__cxx1112basic_stringIcSt11char_traitsIcESaIcEEEblmdSaNS1_14adl_serializerEEESaISB_EEE10deallocateEPSD_m = comdat any

$_ZNSt15__new_allocatorISt6vectorIN8nlohmann10basic_jsonISt3mapS0_NSt7__cxx1112basic_stringIcSt11char_traitsIcESaIcEEEblmdSaNS1_14adl_serializerEEESaISB_EEED2Ev = comdat any

$_ZNSt10unique_ptrINSt7__cxx1112basic_stringIcSt11char_traitsIcESaIcEEEZN8nlohmann10basic_jsonISt3mapSt6vectorS5_blmdSaNS6_14adl_serializerEE6createIS5_JRA1_KcEEEPT_DpOT0_EUlPS5_E_EC2ISM_vEESL_RKSM_ = comdat any

$_ZNKSt10unique_ptrINSt7__cxx1112basic_stringIcSt11char_traitsIcESaIcEEEZN8nlohmann10basic_jsonISt3mapSt6vectorS5_blmdSaNS6_14adl_serializerEE6createIS5_JRA1_KcEEEPT_DpOT0_EUlPS5_E_E3getEv = comdat any

$_ZStneINSt7__cxx1112basic_stringIcSt11char_traitsIcESaIcEEEZN8nlohmann10basic_jsonISt3mapSt6vectorS5_blmdSaNS6_14adl_serializerEE6createIS5_JRA1_KcEEEPT_DpOT0_EUlPS5_E_EbRKSt10unique_ptrISG_T0_EDn = comdat any

$_ZNSt10unique_ptrINSt7__cxx1112basic_stringIcSt11char_traitsIcESaIcEEEZN8nlohmann10basic_jsonISt3mapSt6vectorS5_blmdSaNS6_14adl_serializerEE6createIS5_JRA1_KcEEEPT_DpOT0_EUlPS5_E_E7releaseEv = comdat any

$_ZNSt10unique_ptrINSt7__cxx1112basic_stringIcSt11char_traitsIcESaIcEEEZN8nlohmann10basic_jsonISt3mapSt6vectorS5_blmdSaNS6_14adl_serializerEE6createIS5_JRA1_KcEEEPT_DpOT0_EUlPS5_E_ED2Ev = comdat any

$_ZNSt15__uniq_ptr_dataINSt7__cxx1112basic_stringIcSt11char_traitsIcESaIcEEEZN8nlohmann10basic_jsonISt3mapSt6vectorS5_blmdSaNS6_14adl_serializerEE6createIS5_JRA1_KcEEEPT_DpOT0_EUlPS5_E_Lb1ELb0EECI2St15__uniq_ptr_implIS5_SM_EIRKSM_EESL_OSG_ = comdat any

$_ZNSt15__uniq_ptr_implINSt7__cxx1112basic_stringIcSt11char_traitsIcESaIcEEEZN8nlohmann10basic_jsonISt3mapSt6vectorS5_blmdSaNS6_14adl_serializerEE6createIS5_JRA1_KcEEEPT_DpOT0_EUlPS5_E_EC2IRKSM_EESL_OSG_ = comdat any

$_ZNSt5tupleIJPNSt7__cxx1112basic_stringIcSt11char_traitsIcESaIcEEEZN8nlohmann10basic_jsonISt3mapSt6vectorS5_blmdSaNS7_14adl_serializerEE6createIS5_JRA1_KcEEEPT_DpOT0_EUlS6_E_EEC2IRS6_RKSM_TnNSt9enable_ifIXclsr4_TCCIXntcl14__is_alloc_argISH_EEEEE29__is_implicitly_constructibleISH_T0_EEEbE4typeELb1EEEOSH_OST_ = comdat any

$_ZNSt11_Tuple_implILm0EJPNSt7__cxx1112basic_stringIcSt11char_traitsIcESaIcEEEZN8nlohmann10basic_jsonISt3mapSt6vectorS5_blmdSaNS7_14adl_serializerEE6createIS5_JRA1_KcEEEPT_DpOT0_EUlS6_E_EEC2IRS6_JRKSM_EvEEOSH_SL_ = comdat any

$_ZNSt11_Tuple_implILm1EJZN8nlohmann10basic_jsonISt3mapSt6vectorNSt7__cxx1112basic_stringIcSt11char_traitsIcESaIcEEEblmdSaNS0_14adl_serializerEE6createIS9_JRA1_KcEEEPT_DpOT0_EUlPS9_E_EEC2ERKSM_ = comdat any

$_ZNSt10_Head_baseILm0EPNSt7__cxx1112basic_stringIcSt11char_traitsIcESaIcEEELb0EEC2IRS6_EEOT_ = comdat any

$_ZNSt10_Head_baseILm1EZN8nlohmann10basic_jsonISt3mapSt6vectorNSt7__cxx1112basic_stringIcSt11char_traitsIcESaIcEEEblmdSaNS0_14adl_serializerEE6createIS9_JRA1_KcEEEPT_DpOT0_EUlPS9_E_Lb0EEC2ERKSM_ = comdat any

$_ZNKSt15__uniq_ptr_implINSt7__cxx1112basic_stringIcSt11char_traitsIcESaIcEEEZN8nlohmann10basic_jsonISt3mapSt6vectorS5_blmdSaNS6_14adl_serializerEE6createIS5_JRA1_KcEEEPT_DpOT0_EUlPS5_E_E6_M_ptrEv = comdat any

$_ZSt3getILm0EJPNSt7__cxx1112basic_stringIcSt11char_traitsIcESaIcEEEZN8nlohmann10basic_jsonISt3mapSt6vectorS5_blmdSaNS7_14adl_serializerEE6createIS5_JRA1_KcEEEPT_DpOT0_EUlS6_E_EERKNSt13tuple_elementIXT_ESt5tupleIJDpSJ_EEE4typeERKSQ_ = comdat any

$_ZSt12__get_helperILm0EPNSt7__cxx1112basic_stringIcSt11char_traitsIcESaIcEEEJZN8nlohmann10basic_jsonISt3mapSt6vectorS5_blmdSaNS7_14adl_serializerEE6createIS5_JRA1_KcEEEPT_DpOT0_EUlS6_E_EERKT0_RKSt11_Tuple_implIXT_EJSN_DpT1_EE = comdat any

$_ZNSt11_Tuple_implILm0EJPNSt7__cxx1112basic_stringIcSt11char_traitsIcESaIcEEEZN8nlohmann10basic_jsonISt3mapSt6vectorS5_blmdSaNS7_14adl_serializerEE6createIS5_JRA1_KcEEEPT_DpOT0_EUlS6_E_EE7_M_headERKSN_ = comdat any

$_ZNSt10_Head_baseILm0EPNSt7__cxx1112basic_stringIcSt11char_traitsIcESaIcEEELb0EE7_M_headERKS7_ = comdat any

$_ZNKSt10unique_ptrINSt7__cxx1112basic_stringIcSt11char_traitsIcESaIcEEEZN8nlohmann10basic_jsonISt3mapSt6vectorS5_blmdSaNS6_14adl_serializerEE6createIS5_JRA1_KcEEEPT_DpOT0_EUlPS5_E_EcvbEv = comdat any

$_ZNSt15__uniq_ptr_implINSt7__cxx1112basic_stringIcSt11char_traitsIcESaIcEEEZN8nlohmann10basic_jsonISt3mapSt6vectorS5_blmdSaNS6_14adl_serializerEE6createIS5_JRA1_KcEEEPT_DpOT0_EUlPS5_E_E7releaseEv = comdat any

$_ZNSt15__uniq_ptr_implINSt7__cxx1112basic_stringIcSt11char_traitsIcESaIcEEEZN8nlohmann10basic_jsonISt3mapSt6vectorS5_blmdSaNS6_14adl_serializerEE6createIS5_JRA1_KcEEEPT_DpOT0_EUlPS5_E_E6_M_ptrEv = comdat any

$_ZSt3getILm0EJPNSt7__cxx1112basic_stringIcSt11char_traitsIcESaIcEEEZN8nlohmann10basic_jsonISt3mapSt6vectorS5_blmdSaNS7_14adl_serializerEE6createIS5_JRA1_KcEEEPT_DpOT0_EUlS6_E_EERNSt13tuple_elementIXT_ESt5tupleIJDpSJ_EEE4typeERSQ_ = comdat any

$_ZSt12__get_helperILm0EPNSt7__cxx1112basic_stringIcSt11char_traitsIcESaIcEEEJZN8nlohmann10basic_jsonISt3mapSt6vectorS5_blmdSaNS7_14adl_serializerEE6createIS5_JRA1_KcEEEPT_DpOT0_EUlS6_E_EERT0_RSt11_Tuple_implIXT_EJSN_DpT1_EE = comdat any

$_ZNSt11_Tuple_implILm0EJPNSt7__cxx1112basic_stringIcSt11char_traitsIcESaIcEEEZN8nlohmann10basic_jsonISt3mapSt6vectorS5_blmdSaNS7_14adl_serializerEE6createIS5_JRA1_KcEEEPT_DpOT0_EUlS6_E_EE7_M_headERSN_ = comdat any

$_ZNSt10_Head_baseILm0EPNSt7__cxx1112basic_stringIcSt11char_traitsIcESaIcEEELb0EE7_M_headERS7_ = comdat any

$_ZNSt10unique_ptrINSt7__cxx1112basic_stringIcSt11char_traitsIcESaIcEEEZN8nlohmann10basic_jsonISt3mapSt6vectorS5_blmdSaNS6_14adl_serializerEE6createIS5_JRA1_KcEEEPT_DpOT0_EUlPS5_E_E11get_deleterEv = comdat any

$_ZZN8nlohmann10basic_jsonISt3mapSt6vectorNSt7__cxx1112basic_stringIcSt11char_traitsIcESaIcEEEblmdSaNS_14adl_serializerEE6createIS8_JRA1_KcEEEPT_DpOT0_ENKUlPS8_E_clESK_ = comdat any

$_ZNSt15__uniq_ptr_implINSt7__cxx1112basic_stringIcSt11char_traitsIcESaIcEEEZN8nlohmann10basic_jsonISt3mapSt6vectorS5_blmdSaNS6_14adl_serializerEE6createIS5_JRA1_KcEEEPT_DpOT0_EUlPS5_E_E10_M_deleterEv = comdat any

$_ZSt3getILm1EJPNSt7__cxx1112basic_stringIcSt11char_traitsIcESaIcEEEZN8nlohmann10basic_jsonISt3mapSt6vectorS5_blmdSaNS7_14adl_serializerEE6createIS5_JRA1_KcEEEPT_DpOT0_EUlS6_E_EERNSt13tuple_elementIXT_ESt5tupleIJDpSJ_EEE4typeERSQ_ = comdat any

$_ZSt12__get_helperILm1EZN8nlohmann10basic_jsonISt3mapSt6vectorNSt7__cxx1112basic_stringIcSt11char_traitsIcESaIcEEEblmdSaNS0_14adl_serializerEE6createIS9_JRA1_KcEEEPT_DpOT0_EUlPS9_E_JEERT0_RSt11_Tuple_implIXT_EJSN_DpT1_EE = comdat any

$_ZNSt11_Tuple_implILm1EJZN8nlohmann10basic_jsonISt3mapSt6vectorNSt7__cxx1112basic_stringIcSt11char_traitsIcESaIcEEEblmdSaNS0_14adl_serializerEE6createIS9_JRA1_KcEEEPT_DpOT0_EUlPS9_E_EE7_M_headERSN_ = comdat any

$_ZNSt10_Head_baseILm1EZN8nlohmann10basic_jsonISt3mapSt6vectorNSt7__cxx1112basic_stringIcSt11char_traitsIcESaIcEEEblmdSaNS0_14adl_serializerEE6createIS9_JRA1_KcEEEPT_DpOT0_EUlPS9_E_Lb0EE7_M_headERSN_ = comdat any

$_ZNSt15__new_allocatorINSt7__cxx1112basic_stringIcSt11char_traitsIcESaIcEEEED2Ev = comdat any

$_ZZN8nlohmann10basic_jsonISt3mapSt6vectorNSt7__cxx1112basic_stringIcSt11char_traitsIcESaIcEEEblmdSaNS_14adl_serializerEEC1ESt16initializer_listISA_EbNS_6detail7value_tEENKUlRKSA_E0_clESG_ = comdat any

$_ZNSt3mapINSt7__cxx1112basic_stringIcSt11char_traitsIcESaIcEEEN8nlohmann10basic_jsonIS_St6vectorS5_blmdSaNS6_14adl_serializerEEESt4lessIS5_ESaISt4pairIKS5_SA_EEE7emplaceIJRS5_RKSA_EEESD_ISt17_Rb_tree_iteratorISF_EbEDpOT_ = comdat any

$_ZNSt4pairIRNSt7__cxx1112basic_stringIcSt11char_traitsIcESaIcEEERKN8nlohmann10basic_jsonISt3mapSt6vectorS5_blmdSaNS7_14adl_serializerEEEEC2IS6_SE_TnNSt9enable_ifIXaaclsr5_PCCPE18_ConstructiblePairIT_T0_EEclsr5_PCCPE26_ImplicitlyConvertiblePairISI_SJ_EEEbE4typeELb1EEES6_SE_ = comdat any

$_ZSt3getILm0ERNSt7__cxx1112basic_stringIcSt11char_traitsIcESaIcEEERKN8nlohmann10basic_jsonISt3mapSt6vectorS5_blmdSaNS7_14adl_serializerEEEEONSt13tuple_elementIXT_ESt4pairIT0_T1_EE4typeEOSJ_ = comdat any

$_ZSt3getILm1ERNSt7__cxx1112basic_stringIcSt11char_traitsIcESaIcEEERKN8nlohmann10basic_jsonISt3mapSt6vectorS5_blmdSaNS7_14adl_serializerEEEEONSt13tuple_elementIXT_ESt4pairIT0_T1_EE4typeEOSJ_ = comdat any

$_ZNSt3mapINSt7__cxx1112basic_stringIcSt11char_traitsIcESaIcEEEN8nlohmann10basic_jsonIS_St6vectorS5_blmdSaNS6_14adl_serializerEEESt4lessIS5_ESaISt4pairIKS5_SA_EEE11lower_boundERSE_ = comdat any

$_ZSteqRKSt17_Rb_tree_iteratorISt4pairIKNSt7__cxx1112basic_stringIcSt11char_traitsIcESaIcEEEN8nlohmann10basic_jsonISt3mapSt6vectorS6_blmdSaNS8_14adl_serializerEEEEESH_ = comdat any

$_ZNSt3mapINSt7__cxx1112basic_stringIcSt11char_traitsIcESaIcEEEN8nlohmann10basic_jsonIS_St6vectorS5_blmdSaNS6_14adl_serializerEEESt4lessIS5_ESaISt4pairIKS5_SA_EEE3endEv = comdat any

$_ZNKSt3mapINSt7__cxx1112basic_stringIcSt11char_traitsIcESaIcEEEN8nlohmann10basic_jsonIS_St6vectorS5_blmdSaNS6_14adl_serializerEEESt4lessIS5_ESaISt4pairIKS5_SA_EEE8key_compEv = comdat any

$_ZNKSt4lessINSt7__cxx1112basic_stringIcSt11char_traitsIcESaIcEEEEclERKS5_S8_ = comdat any

$_ZNKSt17_Rb_tree_iteratorISt4pairIKNSt7__cxx1112basic_stringIcSt11char_traitsIcESaIcEEEN8nlohmann10basic_jsonISt3mapSt6vectorS6_blmdSaNS8_14adl_serializerEEEEEdeEv = comdat any

$_ZNSt3mapINSt7__cxx1112basic_stringIcSt11char_traitsIcESaIcEEEN8nlohmann10basic_jsonIS_St6vectorS5_blmdSaNS6_14adl_serializerEEESt4lessIS5_ESaISt4pairIKS5_SA_EEE12emplace_hintIJRS5_RKSA_EEESt17_Rb_tree_iteratorISF_ESt23_Rb_tree_const_iteratorISF_EDpOT_ = comdat any

$_ZNSt23_Rb_tree_const_iteratorISt4pairIKNSt7__cxx1112basic_stringIcSt11char_traitsIcESaIcEEEN8nlohmann10basic_jsonISt3mapSt6vectorS6_blmdSaNS8_14adl_serializerEEEEEC2ERKSt17_Rb_tree_iteratorISE_E = comdat any

$_ZNSt4pairISt17_Rb_tree_iteratorIS_IKNSt7__cxx1112basic_stringIcSt11char_traitsIcESaIcEEEN8nlohmann10basic_jsonISt3mapSt6vectorS6_blmdSaNS8_14adl_serializerEEEEEbEC2IRSF_bTnNSt9enable_ifIXaaclsr5_PCCPE22_MoveConstructiblePairIT_T0_EEclsr5_PCCPE30_ImplicitlyMoveConvertiblePairISK_SL_EEEbE4typeELb1EEEOSK_OSL_ = comdat any

$_ZNSt10__pair_getILm0EE10__move_getIRNSt7__cxx1112basic_stringIcSt11char_traitsIcESaIcEEERKN8nlohmann10basic_jsonISt3mapSt6vectorS7_blmdSaNS9_14adl_serializerEEEEEOT_OSt4pairISH_T0_E = comdat any

$_ZNSt10__pair_getILm1EE10__move_getIRNSt7__cxx1112basic_stringIcSt11char_traitsIcESaIcEEERKN8nlohmann10basic_jsonISt3mapSt6vectorS7_blmdSaNS9_14adl_serializerEEEEEOT0_OSt4pairIT_SH_E = comdat any

$_ZNSt8_Rb_treeINSt7__cxx1112basic_stringIcSt11char_traitsIcESaIcEEESt4pairIKS5_N8nlohmann10basic_jsonISt3mapSt6vectorS5_blmdSaNS8_14adl_serializerEEEESt10_Select1stISE_ESt4lessIS5_ESaISE_EE11lower_boundERS7_ = comdat any

$_ZNKSt8_Rb_treeINSt7__cxx1112basic_stringIcSt11char_traitsIcESaIcEEESt4pairIKS5_N8nlohmann10basic_jsonISt3mapSt6vectorS5_blmdSaNS8_14adl_serializerEEEESt10_Select1stISE_ESt4lessIS5_ESaISE_EE14_M_lower_boundEPSt18_Rb_tree_node_baseSM_RS7_ = comdat any

$_ZNKSt8_Rb_treeINSt7__cxx1112basic_stringIcSt11char_traitsIcESaIcEEESt4pairIKS5_N8nlohmann10basic_jsonISt3mapSt6vectorS5_blmdSaNS8_14adl_serializerEEEESt10_Select1stISE_ESt4lessIS5_ESaISE_EE8_M_beginEv = comdat any

$_ZNKSt8_Rb_treeINSt7__cxx1112basic_stringIcSt11char_traitsIcESaIcEEESt4pairIKS5_N8nlohmann10basic_jsonISt3mapSt6vectorS5_blmdSaNS8_14adl_serializerEEEESt10_Select1stISE_ESt4lessIS5_ESaISE_EE6_M_endEv = comdat any

$_ZNSt17_Rb_tree_iteratorISt4pairIKNSt7__cxx1112basic_stringIcSt11char_traitsIcESaIcEEEN8nlohmann10basic_jsonISt3mapSt6vectorS6_blmdSaNS8_14adl_serializerEEEEEC2EPSt18_Rb_tree_node_base = comdat any

$_ZNSt8_Rb_treeINSt7__cxx1112basic_stringIcSt11char_traitsIcESaIcEEESt4pairIKS5_N8nlohmann10basic_jsonISt3mapSt6vectorS5_blmdSaNS8_14adl_serializerEEEESt10_Select1stISE_ESt4lessIS5_ESaISE_EE6_S_keyEPSt18_Rb_tree_node_base = comdat any

$_ZNSt8_Rb_treeINSt7__cxx1112basic_stringIcSt11char_traitsIcESaIcEEESt4pairIKS5_N8nlohmann10basic_jsonISt3mapSt6vectorS5_blmdSaNS8_14adl_serializerEEEESt10_Select1stISE_ESt4lessIS5_ESaISE_EE7_S_leftEPSt18_Rb_tree_node_base = comdat any

$_ZNSt8_Rb_treeINSt7__cxx1112basic_stringIcSt11char_traitsIcESaIcEEESt4pairIKS5_N8nlohmann10basic_jsonISt3mapSt6vectorS5_blmdSaNS8_14adl_serializerEEEESt10_Select1stISE_ESt4lessIS5_ESaISE_EE8_S_rightEPSt18_Rb_tree_node_base = comdat any

$_ZNSt8_Rb_treeINSt7__cxx1112basic_stringIcSt11char_traitsIcESaIcEEESt4pairIKS5_N8nlohmann10basic_jsonISt3mapSt6vectorS5_blmdSaNS8_14adl_serializerEEEESt10_Select1stISE_ESt4lessIS5_ESaISE_EE6_S_keyERKSt13_Rb_tree_nodeISE_E = comdat any

$_ZNKSt10_Select1stISt4pairIKNSt7__cxx1112basic_stringIcSt11char_traitsIcESaIcEEEN8nlohmann10basic_jsonISt3mapSt6vectorS6_blmdSaNS8_14adl_serializerEEEEEclERKSE_ = comdat any

$_ZNKSt13_Rb_tree_nodeISt4pairIKNSt7__cxx1112basic_stringIcSt11char_traitsIcESaIcEEEN8nlohmann10basic_jsonISt3mapSt6vectorS6_blmdSaNS8_14adl_serializerEEEEE9_M_valptrEv = comdat any

$_ZNK9__gnu_cxx16__aligned_membufISt4pairIKNSt7__cxx1112basic_stringIcSt11char_traitsIcESaIcEEEN8nlohmann10basic_jsonISt3mapSt6vectorS7_blmdSaNS9_14adl_serializerEEEEE6_M_ptrEv = comdat any

$_ZNK9__gnu_cxx16__aligned_membufISt4pairIKNSt7__cxx1112basic_stringIcSt11char_traitsIcESaIcEEEN8nlohmann10basic_jsonISt3mapSt6vectorS7_blmdSaNS9_14adl_serializerEEEEE7_M_addrEv = comdat any

$_ZNKSt18_Rb_tree_node_base11_M_base_ptrEv = comdat any

$_ZNSt8_Rb_treeINSt7__cxx1112basic_stringIcSt11char_traitsIcESaIcEEESt4pairIKS5_N8nlohmann10basic_jsonISt3mapSt6vectorS5_blmdSaNS8_14adl_serializerEEEESt10_Select1stISE_ESt4lessIS5_ESaISE_EE3endEv = comdat any

$_ZNKSt8_Rb_treeINSt7__cxx1112basic_stringIcSt11char_traitsIcESaIcEEESt4pairIKS5_N8nlohmann10basic_jsonISt3mapSt6vectorS5_blmdSaNS8_14adl_serializerEEEESt10_Select1stISE_ESt4lessIS5_ESaISE_EE8key_compEv = comdat any

$_ZStltIcSt11char_traitsIcESaIcEEbRKNSt7__cxx1112basic_stringIT_T0_T1_EESA_ = comdat any

$_ZNKSt7__cxx1112basic_stringIcSt11char_traitsIcESaIcEE7compareERKS4_ = comdat any

$_ZNSt7__cxx1112basic_stringIcSt11char_traitsIcESaIcEE10_S_compareEmm = comdat any

$_ZNSt13_Rb_tree_nodeISt4pairIKNSt7__cxx1112basic_stringIcSt11char_traitsIcESaIcEEEN8nlohmann10basic_jsonISt3mapSt6vectorS6_blmdSaNS8_14adl_serializerEEEEE9_M_valptrEv = comdat any

$_ZN9__gnu_cxx16__aligned_membufISt4pairIKNSt7__cxx1112basic_stringIcSt11char_traitsIcESaIcEEEN8nlohmann10basic_jsonISt3mapSt6vectorS7_blmdSaNS9_14adl_serializerEEEEE6_M_ptrEv = comdat any

$_ZN9__gnu_cxx16__aligned_membufISt4pairIKNSt7__cxx1112basic_stringIcSt11char_traitsIcESaIcEEEN8nlohmann10basic_jsonISt3mapSt6vectorS7_blmdSaNS9_14adl_serializerEEEEE7_M_addrEv = comdat any

$_ZNSt8_Rb_treeINSt7__cxx1112basic_stringIcSt11char_traitsIcESaIcEEESt4pairIKS5_N8nlohmann10basic_jsonISt3mapSt6vectorS5_blmdSaNS8_14adl_serializerEEEESt10_Select1stISE_ESt4lessIS5_ESaISE_EE22_M_emplace_hint_uniqueIJRS5_RKSD_EEESt17_Rb_tree_iteratorISE_ESt23_Rb_tree_const_iteratorISE_EDpOT_ = comdat any

$_ZNSt8_Rb_treeINSt7__cxx1112basic_stringIcSt11char_traitsIcESaIcEEESt4pairIKS5_N8nlohmann10basic_jsonISt3mapSt6vectorS5_blmdSaNS8_14adl_serializerEEEESt10_Select1stISE_ESt4lessIS5_ESaISE_EE10_Auto_nodeC2IJRS5_RKSD_EEERSK_DpOT_ = comdat any

$_ZNSt8_Rb_treeINSt7__cxx1112basic_stringIcSt11char_traitsIcESaIcEEESt4pairIKS5_N8nlohmann10basic_jsonISt3mapSt6vectorS5_blmdSaNS8_14adl_serializerEEEESt10_Select1stISE_ESt4lessIS5_ESaISE_EE29_M_get_insert_hint_unique_posESt23_Rb_tree_const_iteratorISE_ERS7_ = comdat any

$_ZNKSt8_Rb_treeINSt7__cxx1112basic_stringIcSt11char_traitsIcESaIcEEESt4pairIKS5_N8nlohmann10basic_jsonISt3mapSt6vectorS5_blmdSaNS8_14adl_serializerEEEESt10_Select1stISE_ESt4lessIS5_ESaISE_EE10_Auto_node6_M_keyEv = comdat any

$_ZNSt8_Rb_treeINSt7__cxx1112basic_stringIcSt11char_traitsIcESaIcEEESt4pairIKS5_N8nlohmann10basic_jsonISt3mapSt6vectorS5_blmdSaNS8_14adl_serializerEEEESt10_Select1stISE_ESt4lessIS5_ESaISE_EE10_Auto_node9_M_insertES6_IPSt18_Rb_tree_node_baseSN_E = comdat any

$_ZNSt8_Rb_treeINSt7__cxx1112basic_stringIcSt11char_traitsIcESaIcEEESt4pairIKS5_N8nlohmann10basic_jsonISt3mapSt6vectorS5_blmdSaNS8_14adl_serializerEEEESt10_Select1stISE_ESt4lessIS5_ESaISE_EE10_Auto_nodeD2Ev = comdat any

$_ZNSt8_Rb_treeINSt7__cxx1112basic_stringIcSt11char_traitsIcESaIcEEESt4pairIKS5_N8nlohmann10basic_jsonISt3mapSt6vectorS5_blmdSaNS8_14adl_serializerEEEESt10_Select1stISE_ESt4lessIS5_ESaISE_EE14_M_create_nodeIJRS5_RKSD_EEEPSt13_Rb_tree_nodeISE_EDpOT_ = comdat any

$_ZNSt8_Rb_treeINSt7__cxx1112basic_stringIcSt11char_traitsIcESaIcEEESt4pairIKS5_N8nlohmann10basic_jsonISt3mapSt6vectorS5_blmdSaNS8_14adl_serializerEEEESt10_Select1stISE_ESt4lessIS5_ESaISE_EE11_M_get_nodeEv = comdat any

$_ZNSt8_Rb_treeINSt7__cxx1112basic_stringIcSt11char_traitsIcESaIcEEESt4pairIKS5_N8nlohmann10basic_jsonISt3mapSt6vectorS5_blmdSaNS8_14adl_serializerEEEESt10_Select1stISE_ESt4lessIS5_ESaISE_EE17_M_construct_nodeIJRS5_RKSD_EEEvPSt13_Rb_tree_nodeISE_EDpOT_ = comdat any

$_ZNSt8_Rb_treeINSt7__cxx1112basic_stringIcSt11char_traitsIcESaIcEEESt4pairIKS5_N8nlohmann10basic_jsonISt3mapSt6vectorS5_blmdSaNS8_14adl_serializerEEEESt10_Select1stISE_ESt4lessIS5_ESaISE_EE21_M_get_Node_allocatorEv = comdat any

$_ZNSt15__new_allocatorISt13_Rb_tree_nodeISt4pairIKNSt7__cxx1112basic_stringIcSt11char_traitsIcESaIcEEEN8nlohmann10basic_jsonISt3mapSt6vectorS7_blmdSaNS9_14adl_serializerEEEEEE8allocateEmPKv = comdat any

$_ZNSt8_Rb_treeINSt7__cxx1112basic_stringIcSt11char_traitsIcESaIcEEESt4pairIKS5_N8nlohmann10basic_jsonISt3mapSt6vectorS5_blmdSaNS8_14adl_serializerEEEESt10_Select1stISE_ESt4lessIS5_ESaISE_EE11_M_put_nodeEPSt13_Rb_tree_nodeISE_E = comdat any

$_ZNSt4pairIKNSt7__cxx1112basic_stringIcSt11char_traitsIcESaIcEEEN8nlohmann10basic_jsonISt3mapSt6vectorS5_blmdSaNS7_14adl_serializerEEEEC2IRS5_RKSC_TnNSt9enable_ifIXaaclsr5_PCCPE22_MoveConstructiblePairIT_T0_EEclsr5_PCCPE30_ImplicitlyMoveConvertiblePairISJ_SK_EEEbE4typeELb1EEEOSJ_OSK_ = comdat any

$_ZN8nlohmann10basic_jsonISt3mapSt6vectorNSt7__cxx1112basic_stringIcSt11char_traitsIcESaIcEEEblmdSaNS_14adl_serializerEEC2ERKSA_ = comdat any

$_ZN8nlohmann10basic_jsonISt3mapSt6vectorNSt7__cxx1112basic_stringIcSt11char_traitsIcESaIcEEEblmdSaNS_14adl_serializerEE10json_valueC2ERKS1_IS8_SA_St4lessIS8_ESaISt4pairIKS8_SA_EEE = comdat any

$_ZN8nlohmann10basic_jsonISt3mapSt6vectorNSt7__cxx1112basic_stringIcSt11char_traitsIcESaIcEEEblmdSaNS_14adl_serializerEE10json_valueC2ERKS2_ISA_SaISA_EE = comdat any

$_ZN8nlohmann10basic_jsonISt3mapSt6vectorNSt7__cxx1112basic_stringIcSt11char_traitsIcESaIcEEEblmdSaNS_14adl_serializerEE10json_valueC2ERKS8_ = comdat any

$_ZN8nlohmann10basic_jsonISt3mapSt6vectorNSt7__cxx1112basic_stringIcSt11char_traitsIcESaIcEEEblmdSaNS_14adl_serializerEE10json_valueC2Eb = comdat any

$_ZN8nlohmann10basic_jsonISt3mapSt6vectorNSt7__cxx1112basic_stringIcSt11char_traitsIcESaIcEEEblmdSaNS_14adl_serializerEE10json_valueC2El = comdat any

$_ZN8nlohmann10basic_jsonISt3mapSt6vectorNSt7__cxx1112basic_stringIcSt11char_traitsIcESaIcEEEblmdSaNS_14adl_serializerEE10json_valueC2Em = comdat any

$_ZN8nlohmann10basic_jsonISt3mapSt6vectorNSt7__cxx1112basic_stringIcSt11char_traitsIcESaIcEEEblmdSaNS_14adl_serializerEE10json_valueC2Ed = comdat any

$_ZN8nlohmann10basic_jsonISt3mapSt6vectorNSt7__cxx1112basic_stringIcSt11char_traitsIcESaIcEEEblmdSaNS_14adl_serializerEE6createIS1_IS8_SA_St4lessIS8_ESaISt4pairIKS8_SA_EEEJRKSI_EEEPT_DpOT0_ = comdat any

$_ZNSt10unique_ptrISt3mapINSt7__cxx1112basic_stringIcSt11char_traitsIcESaIcEEEN8nlohmann10basic_jsonIS0_St6vectorS6_blmdSaNS7_14adl_serializerEEESt4lessIS6_ESaISt4pairIKS6_SB_EEEZNSB_6createISI_JRKSI_EEEPT_DpOT0_EUlPSI_E_EC2ISS_vEESR_RKSS_ = comdat any

$_ZNKSt10unique_ptrISt3mapINSt7__cxx1112basic_stringIcSt11char_traitsIcESaIcEEEN8nlohmann10basic_jsonIS0_St6vectorS6_blmdSaNS7_14adl_serializerEEESt4lessIS6_ESaISt4pairIKS6_SB_EEEZNSB_6createISI_JRKSI_EEEPT_DpOT0_EUlPSI_E_E3getEv = comdat any

$_ZStneISt3mapINSt7__cxx1112basic_stringIcSt11char_traitsIcESaIcEEEN8nlohmann10basic_jsonIS0_St6vectorS6_blmdSaNS7_14adl_serializerEEESt4lessIS6_ESaISt4pairIKS6_SB_EEEZNSB_6createISI_JRKSI_EEEPT_DpOT0_EUlPSI_E_EbRKSt10unique_ptrISM_T0_EDn = comdat any

$_ZNSt10unique_ptrISt3mapINSt7__cxx1112basic_stringIcSt11char_traitsIcESaIcEEEN8nlohmann10basic_jsonIS0_St6vectorS6_blmdSaNS7_14adl_serializerEEESt4lessIS6_ESaISt4pairIKS6_SB_EEEZNSB_6createISI_JRKSI_EEEPT_DpOT0_EUlPSI_E_E7releaseEv = comdat any

$_ZNSt10unique_ptrISt3mapINSt7__cxx1112basic_stringIcSt11char_traitsIcESaIcEEEN8nlohmann10basic_jsonIS0_St6vectorS6_blmdSaNS7_14adl_serializerEEESt4lessIS6_ESaISt4pairIKS6_SB_EEEZNSB_6createISI_JRKSI_EEEPT_DpOT0_EUlPSI_E_ED2Ev = comdat any

$_ZNSt15__uniq_ptr_dataISt3mapINSt7__cxx1112basic_stringIcSt11char_traitsIcESaIcEEEN8nlohmann10basic_jsonIS0_St6vectorS6_blmdSaNS7_14adl_serializerEEESt4lessIS6_ESaISt4pairIKS6_SB_EEEZNSB_6createISI_JRKSI_EEEPT_DpOT0_EUlPSI_E_Lb1ELb0EECI2St15__uniq_ptr_implISI_SS_EIRKSS_EESR_OSM_ = comdat any

$_ZNSt15__uniq_ptr_implISt3mapINSt7__cxx1112basic_stringIcSt11char_traitsIcESaIcEEEN8nlohmann10basic_jsonIS0_St6vectorS6_blmdSaNS7_14adl_serializerEEESt4lessIS6_ESaISt4pairIKS6_SB_EEEZNSB_6createISI_JRKSI_EEEPT_DpOT0_EUlPSI_E_EC2IRKSS_EESR_OSM_ = comdat any

$_ZNSt5tupleIJPSt3mapINSt7__cxx1112basic_stringIcSt11char_traitsIcESaIcEEEN8nlohmann10basic_jsonIS0_St6vectorS6_blmdSaNS7_14adl_serializerEEESt4lessIS6_ESaISt4pairIKS6_SB_EEEZNSB_6createISI_JRKSI_EEEPT_DpOT0_EUlSJ_E_EEC2IRSJ_RKSS_TnNSt9enable_ifIXclsr4_TCCIXntcl14__is_alloc_argISN_EEEEE29__is_implicitly_constructibleISN_T0_EEEbE4typeELb1EEEOSN_OSZ_ = comdat any

$_ZNSt11_Tuple_implILm0EJPSt3mapINSt7__cxx1112basic_stringIcSt11char_traitsIcESaIcEEEN8nlohmann10basic_jsonIS0_St6vectorS6_blmdSaNS7_14adl_serializerEEESt4lessIS6_ESaISt4pairIKS6_SB_EEEZNSB_6createISI_JRKSI_EEEPT_DpOT0_EUlSJ_E_EEC2IRSJ_JRKSS_EvEEOSN_SR_ = comdat any

$_ZNSt11_Tuple_implILm1EJZN8nlohmann10basic_jsonISt3mapSt6vectorNSt7__cxx1112basic_stringIcSt11char_traitsIcESaIcEEEblmdSaNS0_14adl_serializerEE6createIS2_IS9_SB_St4lessIS9_ESaISt4pairIKS9_SB_EEEJRKSJ_EEEPT_DpOT0_EUlPSJ_E_EEC2ERKSS_ = comdat any

$_ZNSt10_Head_baseILm1EZN8nlohmann10basic_jsonISt3mapSt6vectorNSt7__cxx1112basic_stringIcSt11char_traitsIcESaIcEEEblmdSaNS0_14adl_serializerEE6createIS2_IS9_SB_St4lessIS9_ESaISt4pairIKS9_SB_EEEJRKSJ_EEEPT_DpOT0_EUlPSJ_E_Lb0EEC2ERKSS_ = comdat any

$_ZNSt3mapINSt7__cxx1112basic_stringIcSt11char_traitsIcESaIcEEEN8nlohmann10basic_jsonIS_St6vectorS5_blmdSaNS6_14adl_serializerEEESt4lessIS5_ESaISt4pairIKS5_SA_EEEC2ERKSH_ = comdat any

$_ZNSt8_Rb_treeINSt7__cxx1112basic_stringIcSt11char_traitsIcESaIcEEESt4pairIKS5_N8nlohmann10basic_jsonISt3mapSt6vectorS5_blmdSaNS8_14adl_serializerEEEESt10_Select1stISE_ESt4lessIS5_ESaISE_EEC2ERKSK_ = comdat any

$_ZNSt8_Rb_treeINSt7__cxx1112basic_stringIcSt11char_traitsIcESaIcEEESt4pairIKS5_N8nlohmann10basic_jsonISt3mapSt6vectorS5_blmdSaNS8_14adl_serializerEEEESt10_Select1stISE_ESt4lessIS5_ESaISE_EE13_Rb_tree_implISI_Lb1EEC2ERKSM_ = comdat any

$_ZNKSt8_Rb_treeINSt7__cxx1112basic_stringIcSt11char_traitsIcESaIcEEESt4pairIKS5_N8nlohmann10basic_jsonISt3mapSt6vectorS5_blmdSaNS8_14adl_serializerEEEESt10_Select1stISE_ESt4lessIS5_ESaISE_EE7_M_rootEv = comdat any

$_ZNSt8_Rb_treeINSt7__cxx1112basic_stringIcSt11char_traitsIcESaIcEEESt4pairIKS5_N8nlohmann10basic_jsonISt3mapSt6vectorS5_blmdSaNS8_14adl_serializerEEEESt10_Select1stISE_ESt4lessIS5_ESaISE_EE7_M_copyERKSK_ = comdat any

$_ZNSt8_Rb_treeINSt7__cxx1112basic_stringIcSt11char_traitsIcESaIcEEESt4pairIKS5_N8nlohmann10basic_jsonISt3mapSt6vectorS5_blmdSaNS8_14adl_serializerEEEESt10_Select1stISE_ESt4lessIS5_ESaISE_EE7_M_rootEv = comdat any

$_ZNSt8_Rb_treeINSt7__cxx1112basic_stringIcSt11char_traitsIcESaIcEEESt4pairIKS5_N8nlohmann10basic_jsonISt3mapSt6vectorS5_blmdSaNS8_14adl_serializerEEEESt10_Select1stISE_ESt4lessIS5_ESaISE_EE13_Rb_tree_implISI_Lb1EED2Ev = comdat any

$_ZNSt20_Rb_tree_key_compareISt4lessINSt7__cxx1112basic_stringIcSt11char_traitsIcESaIcEEEEEC2ERKS7_ = comdat any

$_ZNSt15__new_allocatorISt13_Rb_tree_nodeISt4pairIKNSt7__cxx1112basic_stringIcSt11char_traitsIcESaIcEEEN8nlohmann10basic_jsonISt3mapSt6vectorS7_blmdSaNS9_14adl_serializerEEEEEED2Ev = comdat any

$_ZNSt8_Rb_treeINSt7__cxx1112basic_stringIcSt11char_traitsIcESaIcEEESt4pairIKS5_N8nlohmann10basic_jsonISt3mapSt6vectorS5_blmdSaNS8_14adl_serializerEEEESt10_Select1stISE_ESt4lessIS5_ESaISE_EE11_Alloc_nodeC2ERSK_ = comdat any

$_ZNSt8_Rb_treeINSt7__cxx1112basic_stringIcSt11char_traitsIcESaIcEEESt4pairIKS5_N8nlohmann10basic_jsonISt3mapSt6vectorS5_blmdSaNS8_14adl_serializerEEEESt10_Select1stISE_ESt4lessIS5_ESaISE_EE7_M_copyILb0ENSK_11_Alloc_nodeEEEPSt18_Rb_tree_node_baseRKSK_RT0_ = comdat any

$_ZNSt8_Rb_treeINSt7__cxx1112basic_stringIcSt11char_traitsIcESaIcEEESt4pairIKS5_N8nlohmann10basic_jsonISt3mapSt6vectorS5_blmdSaNS8_14adl_serializerEEEESt10_Select1stISE_ESt4lessIS5_ESaISE_EE7_M_copyILb0ENSK_11_Alloc_nodeEEEPSt18_Rb_tree_node_basePSt13_Rb_tree_nodeISE_ESO_RT0_ = comdat any

$_ZNKSt8_Rb_treeINSt7__cxx1112basic_stringIcSt11char_traitsIcESaIcEEESt4pairIKS5_N8nlohmann10basic_jsonISt3mapSt6vectorS5_blmdSaNS8_14adl_serializerEEEESt10_Select1stISE_ESt4lessIS5_ESaISE_EE13_M_begin_nodeEv = comdat any

$_ZNSt18_Rb_tree_node_base10_S_minimumEPS_ = comdat any

$_ZNSt8_Rb_treeINSt7__cxx1112basic_stringIcSt11char_traitsIcESaIcEEESt4pairIKS5_N8nlohmann10basic_jsonISt3mapSt6vectorS5_blmdSaNS8_14adl_serializerEEEESt10_Select1stISE_ESt4lessIS5_ESaISE_EE11_M_leftmostEv = comdat any

$_ZNSt18_Rb_tree_node_base10_S_maximumEPS_ = comdat any

$_ZNSt8_Rb_treeINSt7__cxx1112basic_stringIcSt11char_traitsIcESaIcEEESt4pairIKS5_N8nlohmann10basic_jsonISt3mapSt6vectorS5_blmdSaNS8_14adl_serializerEEEESt10_Select1stISE_ESt4lessIS5_ESaISE_EE12_M_rightmostEv = comdat any

$_ZNSt8_Rb_treeINSt7__cxx1112basic_stringIcSt11char_traitsIcESaIcEEESt4pairIKS5_N8nlohmann10basic_jsonISt3mapSt6vectorS5_blmdSaNS8_14adl_serializerEEEESt10_Select1stISE_ESt4lessIS5_ESaISE_EE13_M_clone_nodeILb0ENSK_11_Alloc_nodeEEEPSt13_Rb_tree_nodeISE_ESP_RT0_ = comdat any

$_ZNSt8_Rb_treeINSt7__cxx1112basic_stringIcSt11char_traitsIcESaIcEEESt4pairIKS5_N8nlohmann10basic_jsonISt3mapSt6vectorS5_blmdSaNS8_14adl_serializerEEEESt10_Select1stISE_ESt4lessIS5_ESaISE_EE8_S_rightEPSt13_Rb_tree_nodeISE_E = comdat any

$_ZNSt8_Rb_treeINSt7__cxx1112basic_stringIcSt11char_traitsIcESaIcEEESt4pairIKS5_N8nlohmann10basic_jsonISt3mapSt6vectorS5_blmdSaNS8_14adl_serializerEEEESt10_Select1stISE_ESt4lessIS5_ESaISE_EE7_S_leftEPSt13_Rb_tree_nodeISE_E = comdat any

$_ZNSt8_Rb_treeINSt7__cxx1112basic_stringIcSt11char_traitsIcESaIcEEESt4pairIKS5_N8nlohmann10basic_jsonISt3mapSt6vectorS5_blmdSaNS8_14adl_serializerEEEESt10_Select1stISE_ESt4lessIS5_ESaISE_EE8_M_eraseEPSt13_Rb_tree_nodeISE_E = comdat any

$_ZNKSt8_Rb_treeINSt7__cxx1112basic_stringIcSt11char_traitsIcESaIcEEESt4pairIKS5_N8nlohmann10basic_jsonISt3mapSt6vectorS5_blmdSaNS8_14adl_serializerEEEESt10_Select1stISE_ESt4lessIS5_ESaISE_EE11_Alloc_nodeclIRKSE_EEPSt13_Rb_tree_nodeISE_EOT_ = comdat any

$_ZNSt8_Rb_treeINSt7__cxx1112basic_stringIcSt11char_traitsIcESaIcEEESt4pairIKS5_N8nlohmann10basic_jsonISt3mapSt6vectorS5_blmdSaNS8_14adl_serializerEEEESt10_Select1stISE_ESt4lessIS5_ESaISE_EE14_M_create_nodeIJRKSE_EEEPSt13_Rb_tree_nodeISE_EDpOT_ = comdat any

$_ZNSt8_Rb_treeINSt7__cxx1112basic_stringIcSt11char_traitsIcESaIcEEESt4pairIKS5_N8nlohmann10basic_jsonISt3mapSt6vectorS5_blmdSaNS8_14adl_serializerEEEESt10_Select1stISE_ESt4lessIS5_ESaISE_EE17_M_construct_nodeIJRKSE_EEEvPSt13_Rb_tree_nodeISE_EDpOT_ = comdat any

$_ZNSt4pairIKNSt7__cxx1112basic_stringIcSt11char_traitsIcESaIcEEEN8nlohmann10basic_jsonISt3mapSt6vectorS5_blmdSaNS7_14adl_serializerEEEEC2ERKSD_ = comdat any

$_ZNSt13_Rb_tree_nodeISt4pairIKNSt7__cxx1112basic_stringIcSt11char_traitsIcESaIcEEEN8nlohmann10basic_jsonISt3mapSt6vectorS6_blmdSaNS8_14adl_serializerEEEEE11_M_node_ptrEv = comdat any

$_ZNSt8_Rb_treeINSt7__cxx1112basic_stringIcSt11char_traitsIcESaIcEEESt4pairIKS5_N8nlohmann10basic_jsonISt3mapSt6vectorS5_blmdSaNS8_14adl_serializerEEEESt10_Select1stISE_ESt4lessIS5_ESaISE_EE12_M_drop_nodeEPSt13_Rb_tree_nodeISE_E = comdat any

$_ZNSt8_Rb_treeINSt7__cxx1112basic_stringIcSt11char_traitsIcESaIcEEESt4pairIKS5_N8nlohmann10basic_jsonISt3mapSt6vectorS5_blmdSaNS8_14adl_serializerEEEESt10_Select1stISE_ESt4lessIS5_ESaISE_EE15_M_destroy_nodeEPSt13_Rb_tree_nodeISE_E = comdat any

$_ZNSt4pairIKNSt7__cxx1112basic_stringIcSt11char_traitsIcESaIcEEEN8nlohmann10basic_jsonISt3mapSt6vectorS5_blmdSaNS7_14adl_serializerEEEED2Ev = comdat any

$_ZN8nlohmann10basic_jsonISt3mapSt6vectorNSt7__cxx1112basic_stringIcSt11char_traitsIcESaIcEEEblmdSaNS_14adl_serializerEED2Ev = comdat any

$_ZNSt3mapINSt7__cxx1112basic_stringIcSt11char_traitsIcESaIcEEEN8nlohmann10basic_jsonIS_St6vectorS5_blmdSaNS6_14adl_serializerEEESt4lessIS5_ESaISt4pairIKS5_SA_EEED2Ev = comdat any

$_ZNSt8_Rb_treeINSt7__cxx1112basic_stringIcSt11char_traitsIcESaIcEEESt4pairIKS5_N8nlohmann10basic_jsonISt3mapSt6vectorS5_blmdSaNS8_14adl_serializerEEEESt10_Select1stISE_ESt4lessIS5_ESaISE_EED2Ev = comdat any

$_ZNSt6vectorIN8nlohmann10basic_jsonISt3mapS_NSt7__cxx1112basic_stringIcSt11char_traitsIcESaIcEEEblmdSaNS0_14adl_serializerEEESaISA_EED2Ev = comdat any

$_ZNSt12_Vector_baseIN8nlohmann10basic_jsonISt3mapSt6vectorNSt7__cxx1112basic_stringIcSt11char_traitsIcESaIcEEEblmdSaNS0_14adl_serializerEEESaISB_EE19_M_get_Tp_allocatorEv = comdat any

$_ZNSt12_Vector_baseIN8nlohmann10basic_jsonISt3mapSt6vectorNSt7__cxx1112basic_stringIcSt11char_traitsIcESaIcEEEblmdSaNS0_14adl_serializerEEESaISB_EED2Ev = comdat any

$_ZSt8_DestroyIPN8nlohmann10basic_jsonISt3mapSt6vectorNSt7__cxx1112basic_stringIcSt11char_traitsIcESaIcEEEblmdSaNS0_14adl_serializerEEEEvT_SD_ = comdat any

$_ZSt8_DestroyIN8nlohmann10basic_jsonISt3mapSt6vectorNSt7__cxx1112basic_stringIcSt11char_traitsIcESaIcEEEblmdSaNS0_14adl_serializerEEEEvPT_ = comdat any

$_ZNSt12_Vector_baseIN8nlohmann10basic_jsonISt3mapSt6vectorNSt7__cxx1112basic_stringIcSt11char_traitsIcESaIcEEEblmdSaNS0_14adl_serializerEEESaISB_EE13_M_deallocateEPSB_m = comdat any

$_ZNSt12_Vector_baseIN8nlohmann10basic_jsonISt3mapSt6vectorNSt7__cxx1112basic_stringIcSt11char_traitsIcESaIcEEEblmdSaNS0_14adl_serializerEEESaISB_EE12_Vector_implD2Ev = comdat any

$_ZNSt15__new_allocatorIN8nlohmann10basic_jsonISt3mapSt6vectorNSt7__cxx1112basic_stringIcSt11char_traitsIcESaIcEEEblmdSaNS0_14adl_serializerEEEE10deallocateEPSB_m = comdat any

$_ZNSt15__new_allocatorIN8nlohmann10basic_jsonISt3mapSt6vectorNSt7__cxx1112basic_stringIcSt11char_traitsIcESaIcEEEblmdSaNS0_14adl_serializerEEEED2Ev = comdat any

$_ZNKSt15__uniq_ptr_implISt3mapINSt7__cxx1112basic_stringIcSt11char_traitsIcESaIcEEEN8nlohmann10basic_jsonIS0_St6vectorS6_blmdSaNS7_14adl_serializerEEESt4lessIS6_ESaISt4pairIKS6_SB_EEEZNSB_6createISI_JRKSI_EEEPT_DpOT0_EUlPSI_E_E6_M_ptrEv = comdat any

$_ZSt3getILm0EJPSt3mapINSt7__cxx1112basic_stringIcSt11char_traitsIcESaIcEEEN8nlohmann10basic_jsonIS0_St6vectorS6_blmdSaNS7_14adl_serializerEEESt4lessIS6_ESaISt4pairIKS6_SB_EEEZNSB_6createISI_JRKSI_EEEPT_DpOT0_EUlSJ_E_EERKNSt13tuple_elementIXT_ESt5tupleIJDpSP_EEE4typeERKSW_ = comdat any

$_ZSt12__get_helperILm0EPSt3mapINSt7__cxx1112basic_stringIcSt11char_traitsIcESaIcEEEN8nlohmann10basic_jsonIS0_St6vectorS6_blmdSaNS7_14adl_serializerEEESt4lessIS6_ESaISt4pairIKS6_SB_EEEJZNSB_6createISI_JRKSI_EEEPT_DpOT0_EUlSJ_E_EERKT0_RKSt11_Tuple_implIXT_EJST_DpT1_EE = comdat any

$_ZNSt11_Tuple_implILm0EJPSt3mapINSt7__cxx1112basic_stringIcSt11char_traitsIcESaIcEEEN8nlohmann10basic_jsonIS0_St6vectorS6_blmdSaNS7_14adl_serializerEEESt4lessIS6_ESaISt4pairIKS6_SB_EEEZNSB_6createISI_JRKSI_EEEPT_DpOT0_EUlSJ_E_EE7_M_headERKST_ = comdat any

$_ZNKSt10unique_ptrISt3mapINSt7__cxx1112basic_stringIcSt11char_traitsIcESaIcEEEN8nlohmann10basic_jsonIS0_St6vectorS6_blmdSaNS7_14adl_serializerEEESt4lessIS6_ESaISt4pairIKS6_SB_EEEZNSB_6createISI_JRKSI_EEEPT_DpOT0_EUlPSI_E_EcvbEv = comdat any

$_ZNSt15__uniq_ptr_implISt3mapINSt7__cxx1112basic_stringIcSt11char_traitsIcESaIcEEEN8nlohmann10basic_jsonIS0_St6vectorS6_blmdSaNS7_14adl_serializerEEESt4lessIS6_ESaISt4pairIKS6_SB_EEEZNSB_6createISI_JRKSI_EEEPT_DpOT0_EUlPSI_E_E7releaseEv = comdat any

$_ZNSt15__uniq_ptr_implISt3mapINSt7__cxx1112basic_stringIcSt11char_traitsIcESaIcEEEN8nlohmann10basic_jsonIS0_St6vectorS6_blmdSaNS7_14adl_serializerEEESt4lessIS6_ESaISt4pairIKS6_SB_EEEZNSB_6createISI_JRKSI_EEEPT_DpOT0_EUlPSI_E_E6_M_ptrEv = comdat any

$_ZSt3getILm0EJPSt3mapINSt7__cxx1112basic_stringIcSt11char_traitsIcESaIcEEEN8nlohmann10basic_jsonIS0_St6vectorS6_blmdSaNS7_14adl_serializerEEESt4lessIS6_ESaISt4pairIKS6_SB_EEEZNSB_6createISI_JRKSI_EEEPT_DpOT0_EUlSJ_E_EERNSt13tuple_elementIXT_ESt5tupleIJDpSP_EEE4typeERSW_ = comdat any

$_ZSt12__get_helperILm0EPSt3mapINSt7__cxx1112basic_stringIcSt11char_traitsIcESaIcEEEN8nlohmann10basic_jsonIS0_St6vectorS6_blmdSaNS7_14adl_serializerEEESt4lessIS6_ESaISt4pairIKS6_SB_EEEJZNSB_6createISI_JRKSI_EEEPT_DpOT0_EUlSJ_E_EERT0_RSt11_Tuple_implIXT_EJST_DpT1_EE = comdat any

$_ZNSt11_Tuple_implILm0EJPSt3mapINSt7__cxx1112basic_stringIcSt11char_traitsIcESaIcEEEN8nlohmann10basic_jsonIS0_St6vectorS6_blmdSaNS7_14adl_serializerEEESt4lessIS6_ESaISt4pairIKS6_SB_EEEZNSB_6createISI_JRKSI_EEEPT_DpOT0_EUlSJ_E_EE7_M_headERST_ = comdat any

$_ZNSt10unique_ptrISt3mapINSt7__cxx1112basic_stringIcSt11char_traitsIcESaIcEEEN8nlohmann10basic_jsonIS0_St6vectorS6_blmdSaNS7_14adl_serializerEEESt4lessIS6_ESaISt4pairIKS6_SB_EEEZNSB_6createISI_JRKSI_EEEPT_DpOT0_EUlPSI_E_E11get_deleterEv = comdat any

$_ZZN8nlohmann10basic_jsonISt3mapSt6vectorNSt7__cxx1112basic_stringIcSt11char_traitsIcESaIcEEEblmdSaNS_14adl_serializerEE6createIS1_IS8_SA_St4lessIS8_ESaISt4pairIKS8_SA_EEEJRKSI_EEEPT_DpOT0_ENKUlPSI_E_clESQ_ = comdat any

$_ZNSt15__uniq_ptr_implISt3mapINSt7__cxx1112basic_stringIcSt11char_traitsIcESaIcEEEN8nlohmann10basic_jsonIS0_St6vectorS6_blmdSaNS7_14adl_serializerEEESt4lessIS6_ESaISt4pairIKS6_SB_EEEZNSB_6createISI_JRKSI_EEEPT_DpOT0_EUlPSI_E_E10_M_deleterEv = comdat any

$_ZSt3getILm1EJPSt3mapINSt7__cxx1112basic_stringIcSt11char_traitsIcESaIcEEEN8nlohmann10basic_jsonIS0_St6vectorS6_blmdSaNS7_14adl_serializerEEESt4lessIS6_ESaISt4pairIKS6_SB_EEEZNSB_6createISI_JRKSI_EEEPT_DpOT0_EUlSJ_E_EERNSt13tuple_elementIXT_ESt5tupleIJDpSP_EEE4typeERSW_ = comdat any

$_ZSt12__get_helperILm1EZN8nlohmann10basic_jsonISt3mapSt6vectorNSt7__cxx1112basic_stringIcSt11char_traitsIcESaIcEEEblmdSaNS0_14adl_serializerEE6createIS2_IS9_SB_St4lessIS9_ESaISt4pairIKS9_SB_EEEJRKSJ_EEEPT_DpOT0_EUlPSJ_E_JEERT0_RSt11_Tuple_implIXT_EJST_DpT1_EE = comdat any

$_ZNSt11_Tuple_implILm1EJZN8nlohmann10basic_jsonISt3mapSt6vectorNSt7__cxx1112basic_stringIcSt11char_traitsIcESaIcEEEblmdSaNS0_14adl_serializerEE6createIS2_IS9_SB_St4lessIS9_ESaISt4pairIKS9_SB_EEEJRKSJ_EEEPT_DpOT0_EUlPSJ_E_EE7_M_headERST_ = comdat any

$_ZNSt10_Head_baseILm1EZN8nlohmann10basic_jsonISt3mapSt6vectorNSt7__cxx1112basic_stringIcSt11char_traitsIcESaIcEEEblmdSaNS0_14adl_serializerEE6createIS2_IS9_SB_St4lessIS9_ESaISt4pairIKS9_SB_EEEJRKSJ_EEEPT_DpOT0_EUlPSJ_E_Lb0EE7_M_headERST_ = comdat any

$_ZN8nlohmann10basic_jsonISt3mapSt6vectorNSt7__cxx1112basic_stringIcSt11char_traitsIcESaIcEEEblmdSaNS_14adl_serializerEE6createIS2_ISA_SaISA_EEJRKSD_EEEPT_DpOT0_ = comdat any

$_ZNSt10unique_ptrISt6vectorIN8nlohmann10basic_jsonISt3mapS0_NSt7__cxx1112basic_stringIcSt11char_traitsIcESaIcEEEblmdSaNS1_14adl_serializerEEESaISB_EEZNSB_6createISD_JRKSD_EEEPT_DpOT0_EUlPSD_E_EC2ISN_vEESM_RKSN_ = comdat any

$_ZNKSt10unique_ptrISt6vectorIN8nlohmann10basic_jsonISt3mapS0_NSt7__cxx1112basic_stringIcSt11char_traitsIcESaIcEEEblmdSaNS1_14adl_serializerEEESaISB_EEZNSB_6createISD_JRKSD_EEEPT_DpOT0_EUlPSD_E_E3getEv = comdat any

$_ZStneISt6vectorIN8nlohmann10basic_jsonISt3mapS0_NSt7__cxx1112basic_stringIcSt11char_traitsIcESaIcEEEblmdSaNS1_14adl_serializerEEESaISB_EEZNSB_6createISD_JRKSD_EEEPT_DpOT0_EUlPSD_E_EbRKSt10unique_ptrISH_T0_EDn = comdat any

$_ZNSt10unique_ptrISt6vectorIN8nlohmann10basic_jsonISt3mapS0_NSt7__cxx1112basic_stringIcSt11char_traitsIcESaIcEEEblmdSaNS1_14adl_serializerEEESaISB_EEZNSB_6createISD_JRKSD_EEEPT_DpOT0_EUlPSD_E_E7releaseEv = comdat any

$_ZNSt10unique_ptrISt6vectorIN8nlohmann10basic_jsonISt3mapS0_NSt7__cxx1112basic_stringIcSt11char_traitsIcESaIcEEEblmdSaNS1_14adl_serializerEEESaISB_EEZNSB_6createISD_JRKSD_EEEPT_DpOT0_EUlPSD_E_ED2Ev = comdat any

$_ZNSt15__uniq_ptr_dataISt6vectorIN8nlohmann10basic_jsonISt3mapS0_NSt7__cxx1112basic_stringIcSt11char_traitsIcESaIcEEEblmdSaNS1_14adl_serializerEEESaISB_EEZNSB_6createISD_JRKSD_EEEPT_DpOT0_EUlPSD_E_Lb1ELb0EECI2St15__uniq_ptr_implISD_SN_EIRKSN_EESM_OSH_ = comdat any

$_ZNSt15__uniq_ptr_implISt6vectorIN8nlohmann10basic_jsonISt3mapS0_NSt7__cxx1112basic_stringIcSt11char_traitsIcESaIcEEEblmdSaNS1_14adl_serializerEEESaISB_EEZNSB_6createISD_JRKSD_EEEPT_DpOT0_EUlPSD_E_EC2IRKSN_EESM_OSH_ = comdat any

$_ZNSt5tupleIJPSt6vectorIN8nlohmann10basic_jsonISt3mapS0_NSt7__cxx1112basic_stringIcSt11char_traitsIcESaIcEEEblmdSaNS1_14adl_serializerEEESaISB_EEZNSB_6createISD_JRKSD_EEEPT_DpOT0_EUlSE_E_EEC2IRSE_RKSN_TnNSt9enable_ifIXclsr4_TCCIXntcl14__is_alloc_argISI_EEEEE29__is_implicitly_constructibleISI_T0_EEEbE4typeELb1EEEOSI_OSU_ = comdat any

$_ZNSt11_Tuple_implILm0EJPSt6vectorIN8nlohmann10basic_jsonISt3mapS0_NSt7__cxx1112basic_stringIcSt11char_traitsIcESaIcEEEblmdSaNS1_14adl_serializerEEESaISB_EEZNSB_6createISD_JRKSD_EEEPT_DpOT0_EUlSE_E_EEC2IRSE_JRKSN_EvEEOSI_SM_ = comdat any

$_ZNSt11_Tuple_implILm1EJZN8nlohmann10basic_jsonISt3mapSt6vectorNSt7__cxx1112basic_stringIcSt11char_traitsIcESaIcEEEblmdSaNS0_14adl_serializerEE6createIS3_ISB_SaISB_EEJRKSE_EEEPT_DpOT0_EUlPSE_E_EEC2ERKSN_ = comdat any

$_ZNSt10_Head_baseILm1EZN8nlohmann10basic_jsonISt3mapSt6vectorNSt7__cxx1112basic_stringIcSt11char_traitsIcESaIcEEEblmdSaNS0_14adl_serializerEE6createIS3_ISB_SaISB_EEJRKSE_EEEPT_DpOT0_EUlPSE_E_Lb0EEC2ERKSN_ = comdat any

$_ZNSt6vectorIN8nlohmann10basic_jsonISt3mapS_NSt7__cxx1112basic_stringIcSt11char_traitsIcESaIcEEEblmdSaNS0_14adl_serializerEEESaISA_EEC2ERKSC_ = comdat any

$_ZNKSt12_Vector_baseIN8nlohmann10basic_jsonISt3mapSt6vectorNSt7__cxx1112basic_stringIcSt11char_traitsIcESaIcEEEblmdSaNS0_14adl_serializerEEESaISB_EE19_M_get_Tp_allocatorEv = comdat any

$_ZNSt12_Vector_baseIN8nlohmann10basic_jsonISt3mapSt6vectorNSt7__cxx1112basic_stringIcSt11char_traitsIcESaIcEEEblmdSaNS0_14adl_serializerEEESaISB_EEC2EmRKSC_ = comdat any

$_ZSt22__uninitialized_copy_aIN9__gnu_cxx17__normal_iteratorIPKN8nlohmann10basic_jsonISt3mapSt6vectorNSt7__cxx1112basic_stringIcSt11char_traitsIcESaIcEEEblmdSaNS2_14adl_serializerEEES5_ISD_SaISD_EEEESI_PSD_SD_ET1_T_T0_SK_RSaIT2_E = comdat any

$_ZNKSt6vectorIN8nlohmann10basic_jsonISt3mapS_NSt7__cxx1112basic_stringIcSt11char_traitsIcESaIcEEEblmdSaNS0_14adl_serializerEEESaISA_EE5beginEv = comdat any

$_ZNKSt6vectorIN8nlohmann10basic_jsonISt3mapS_NSt7__cxx1112basic_stringIcSt11char_traitsIcESaIcEEEblmdSaNS0_14adl_serializerEEESaISA_EE3endEv = comdat any

$_ZNSt12_Vector_baseIN8nlohmann10basic_jsonISt3mapSt6vectorNSt7__cxx1112basic_stringIcSt11char_traitsIcESaIcEEEblmdSaNS0_14adl_serializerEEESaISB_EE12_Vector_implC2ERKSC_ = comdat any

$_ZNSt12_Vector_baseIN8nlohmann10basic_jsonISt3mapSt6vectorNSt7__cxx1112basic_stringIcSt11char_traitsIcESaIcEEEblmdSaNS0_14adl_serializerEEESaISB_EE17_M_create_storageEm = comdat any

$_ZNSt12_Vector_baseIN8nlohmann10basic_jsonISt3mapSt6vectorNSt7__cxx1112basic_stringIcSt11char_traitsIcESaIcEEEblmdSaNS0_14adl_serializerEEESaISB_EE11_M_allocateEm = comdat any

$_ZNSt15__new_allocatorIN8nlohmann10basic_jsonISt3mapSt6vectorNSt7__cxx1112basic_stringIcSt11char_traitsIcESaIcEEEblmdSaNS0_14adl_serializerEEEE8allocateEmPKv = comdat any

$_ZSt18uninitialized_copyIN9__gnu_cxx17__normal_iteratorIPKN8nlohmann10basic_jsonISt3mapSt6vectorNSt7__cxx1112basic_stringIcSt11char_traitsIcESaIcEEEblmdSaNS2_14adl_serializerEEES5_ISD_SaISD_EEEEPSD_ET0_T_SL_SK_ = comdat any

$_ZSt16__do_uninit_copyIN9__gnu_cxx17__normal_iteratorIPKN8nlohmann10basic_jsonISt3mapSt6vectorNSt7__cxx1112basic_stringIcSt11char_traitsIcESaIcEEEblmdSaNS2_14adl_serializerEEES5_ISD_SaISD_EEEESI_PSD_ET1_T_T0_SK_ = comdat any

$_ZNSt19_UninitDestroyGuardIPN8nlohmann10basic_jsonISt3mapSt6vectorNSt7__cxx1112basic_stringIcSt11char_traitsIcESaIcEEEblmdSaNS0_14adl_serializerEEEvEC2ERSC_ = comdat any

$_ZSt10_ConstructIN8nlohmann10basic_jsonISt3mapSt6vectorNSt7__cxx1112basic_stringIcSt11char_traitsIcESaIcEEEblmdSaNS0_14adl_serializerEEEJRKSB_EEvPT_DpOT0_ = comdat any

$_ZNSt19_UninitDestroyGuardIPN8nlohmann10basic_jsonISt3mapSt6vectorNSt7__cxx1112basic_stringIcSt11char_traitsIcESaIcEEEblmdSaNS0_14adl_serializerEEEvE7releaseEv = comdat any

$_ZNSt19_UninitDestroyGuardIPN8nlohmann10basic_jsonISt3mapSt6vectorNSt7__cxx1112basic_stringIcSt11char_traitsIcESaIcEEEblmdSaNS0_14adl_serializerEEEvED2Ev = comdat any

$_ZNKSt15__uniq_ptr_implISt6vectorIN8nlohmann10basic_jsonISt3mapS0_NSt7__cxx1112basic_stringIcSt11char_traitsIcESaIcEEEblmdSaNS1_14adl_serializerEEESaISB_EEZNSB_6createISD_JRKSD_EEEPT_DpOT0_EUlPSD_E_E6_M_ptrEv = comdat any

$_ZSt3getILm0EJPSt6vectorIN8nlohmann10basic_jsonISt3mapS0_NSt7__cxx1112basic_stringIcSt11char_traitsIcESaIcEEEblmdSaNS1_14adl_serializerEEESaISB_EEZNSB_6createISD_JRKSD_EEEPT_DpOT0_EUlSE_E_EERKNSt13tuple_elementIXT_ESt5tupleIJDpSK_EEE4typeERKSR_ = comdat any

$_ZSt12__get_helperILm0EPSt6vectorIN8nlohmann10basic_jsonISt3mapS0_NSt7__cxx1112basic_stringIcSt11char_traitsIcESaIcEEEblmdSaNS1_14adl_serializerEEESaISB_EEJZNSB_6createISD_JRKSD_EEEPT_DpOT0_EUlSE_E_EERKT0_RKSt11_Tuple_implIXT_EJSO_DpT1_EE = comdat any

$_ZNSt11_Tuple_implILm0EJPSt6vectorIN8nlohmann10basic_jsonISt3mapS0_NSt7__cxx1112basic_stringIcSt11char_traitsIcESaIcEEEblmdSaNS1_14adl_serializerEEESaISB_EEZNSB_6createISD_JRKSD_EEEPT_DpOT0_EUlSE_E_EE7_M_headERKSO_ = comdat any

$_ZNKSt10unique_ptrISt6vectorIN8nlohmann10basic_jsonISt3mapS0_NSt7__cxx1112basic_stringIcSt11char_traitsIcESaIcEEEblmdSaNS1_14adl_serializerEEESaISB_EEZNSB_6createISD_JRKSD_EEEPT_DpOT0_EUlPSD_E_EcvbEv = comdat any

$_ZNSt15__uniq_ptr_implISt6vectorIN8nlohmann10basic_jsonISt3mapS0_NSt7__cxx1112basic_stringIcSt11char_traitsIcESaIcEEEblmdSaNS1_14adl_serializerEEESaISB_EEZNSB_6createISD_JRKSD_EEEPT_DpOT0_EUlPSD_E_E7releaseEv = comdat any

$_ZNSt15__uniq_ptr_implISt6vectorIN8nlohmann10basic_jsonISt3mapS0_NSt7__cxx1112basic_stringIcSt11char_traitsIcESaIcEEEblmdSaNS1_14adl_serializerEEESaISB_EEZNSB_6createISD_JRKSD_EEEPT_DpOT0_EUlPSD_E_E6_M_ptrEv = comdat any

$_ZSt3getILm0EJPSt6vectorIN8nlohmann10basic_jsonISt3mapS0_NSt7__cxx1112basic_stringIcSt11char_traitsIcESaIcEEEblmdSaNS1_14adl_serializerEEESaISB_EEZNSB_6createISD_JRKSD_EEEPT_DpOT0_EUlSE_E_EERNSt13tuple_elementIXT_ESt5tupleIJDpSK_EEE4typeERSR_ = comdat any

$_ZSt12__get_helperILm0EPSt6vectorIN8nlohmann10basic_jsonISt3mapS0_NSt7__cxx1112basic_stringIcSt11char_traitsIcESaIcEEEblmdSaNS1_14adl_serializerEEESaISB_EEJZNSB_6createISD_JRKSD_EEEPT_DpOT0_EUlSE_E_EERT0_RSt11_Tuple_implIXT_EJSO_DpT1_EE = comdat any

$_ZNSt11_Tuple_implILm0EJPSt6vectorIN8nlohmann10basic_jsonISt3mapS0_NSt7__cxx1112basic_stringIcSt11char_traitsIcESaIcEEEblmdSaNS1_14adl_serializerEEESaISB_EEZNSB_6createISD_JRKSD_EEEPT_DpOT0_EUlSE_E_EE7_M_headERSO_ = comdat any

$_ZNSt10unique_ptrISt6vectorIN8nlohmann10basic_jsonISt3mapS0_NSt7__cxx1112basic_stringIcSt11char_traitsIcESaIcEEEblmdSaNS1_14adl_serializerEEESaISB_EEZNSB_6createISD_JRKSD_EEEPT_DpOT0_EUlPSD_E_E11get_deleterEv = comdat any

$_ZZN8nlohmann10basic_jsonISt3mapSt6vectorNSt7__cxx1112basic_stringIcSt11char_traitsIcESaIcEEEblmdSaNS_14adl_serializerEE6createIS2_ISA_SaISA_EEJRKSD_EEEPT_DpOT0_ENKUlPSD_E_clESL_ = comdat any

$_ZNSt15__uniq_ptr_implISt6vectorIN8nlohmann10basic_jsonISt3mapS0_NSt7__cxx1112basic_stringIcSt11char_traitsIcESaIcEEEblmdSaNS1_14adl_serializerEEESaISB_EEZNSB_6createISD_JRKSD_EEEPT_DpOT0_EUlPSD_E_E10_M_deleterEv = comdat any

$_ZSt3getILm1EJPSt6vectorIN8nlohmann10basic_jsonISt3mapS0_NSt7__cxx1112basic_stringIcSt11char_traitsIcESaIcEEEblmdSaNS1_14adl_serializerEEESaISB_EEZNSB_6createISD_JRKSD_EEEPT_DpOT0_EUlSE_E_EERNSt13tuple_elementIXT_ESt5tupleIJDpSK_EEE4typeERSR_ = comdat any

$_ZSt12__get_helperILm1EZN8nlohmann10basic_jsonISt3mapSt6vectorNSt7__cxx1112basic_stringIcSt11char_traitsIcESaIcEEEblmdSaNS0_14adl_serializerEE6createIS3_ISB_SaISB_EEJRKSE_EEEPT_DpOT0_EUlPSE_E_JEERT0_RSt11_Tuple_implIXT_EJSO_DpT1_EE = comdat any

$_ZNSt11_Tuple_implILm1EJZN8nlohmann10basic_jsonISt3mapSt6vectorNSt7__cxx1112basic_stringIcSt11char_traitsIcESaIcEEEblmdSaNS0_14adl_serializerEE6createIS3_ISB_SaISB_EEJRKSE_EEEPT_DpOT0_EUlPSE_E_EE7_M_headERSO_ = comdat any

$_ZNSt10_Head_baseILm1EZN8nlohmann10basic_jsonISt3mapSt6vectorNSt7__cxx1112basic_stringIcSt11char_traitsIcESaIcEEEblmdSaNS0_14adl_serializerEE6createIS3_ISB_SaISB_EEJRKSE_EEEPT_DpOT0_EUlPSE_E_Lb0EE7_M_headERSO_ = comdat any

$_ZN8nlohmann10basic_jsonISt3mapSt6vectorNSt7__cxx1112basic_stringIcSt11char_traitsIcESaIcEEEblmdSaNS_14adl_serializerEE6createIS8_JRKS8_EEEPT_DpOT0_ = comdat any

$_ZNSt10unique_ptrINSt7__cxx1112basic_stringIcSt11char_traitsIcESaIcEEEZN8nlohmann10basic_jsonISt3mapSt6vectorS5_blmdSaNS6_14adl_serializerEE6createIS5_JRKS5_EEEPT_DpOT0_EUlPS5_E_EC2ISL_vEESK_RKSL_ = comdat any

$_ZNKSt10unique_ptrINSt7__cxx1112basic_stringIcSt11char_traitsIcESaIcEEEZN8nlohmann10basic_jsonISt3mapSt6vectorS5_blmdSaNS6_14adl_serializerEE6createIS5_JRKS5_EEEPT_DpOT0_EUlPS5_E_E3getEv = comdat any

$_ZStneINSt7__cxx1112basic_stringIcSt11char_traitsIcESaIcEEEZN8nlohmann10basic_jsonISt3mapSt6vectorS5_blmdSaNS6_14adl_serializerEE6createIS5_JRKS5_EEEPT_DpOT0_EUlPS5_E_EbRKSt10unique_ptrISF_T0_EDn = comdat any

$_ZNSt10unique_ptrINSt7__cxx1112basic_stringIcSt11char_traitsIcESaIcEEEZN8nlohmann10basic_jsonISt3mapSt6vectorS5_blmdSaNS6_14adl_serializerEE6createIS5_JRKS5_EEEPT_DpOT0_EUlPS5_E_E7releaseEv = comdat any

$_ZNSt10unique_ptrINSt7__cxx1112basic_stringIcSt11char_traitsIcESaIcEEEZN8nlohmann10basic_jsonISt3mapSt6vectorS5_blmdSaNS6_14adl_serializerEE6createIS5_JRKS5_EEEPT_DpOT0_EUlPS5_E_ED2Ev = comdat any

$_ZNSt15__uniq_ptr_dataINSt7__cxx1112basic_stringIcSt11char_traitsIcESaIcEEEZN8nlohmann10basic_jsonISt3mapSt6vectorS5_blmdSaNS6_14adl_serializerEE6createIS5_JRKS5_EEEPT_DpOT0_EUlPS5_E_Lb1ELb0EECI2St15__uniq_ptr_implIS5_SL_EIRKSL_EESK_OSF_ = comdat any

$_ZNSt15__uniq_ptr_implINSt7__cxx1112basic_stringIcSt11char_traitsIcESaIcEEEZN8nlohmann10basic_jsonISt3mapSt6vectorS5_blmdSaNS6_14adl_serializerEE6createIS5_JRKS5_EEEPT_DpOT0_EUlPS5_E_EC2IRKSL_EESK_OSF_ = comdat any

$_ZNSt5tupleIJPNSt7__cxx1112basic_stringIcSt11char_traitsIcESaIcEEEZN8nlohmann10basic_jsonISt3mapSt6vectorS5_blmdSaNS7_14adl_serializerEE6createIS5_JRKS5_EEEPT_DpOT0_EUlS6_E_EEC2IRS6_RKSL_TnNSt9enable_ifIXclsr4_TCCIXntcl14__is_alloc_argISG_EEEEE29__is_implicitly_constructibleISG_T0_EEEbE4typeELb1EEEOSG_OSS_ = comdat any

$_ZNSt11_Tuple_implILm0EJPNSt7__cxx1112basic_stringIcSt11char_traitsIcESaIcEEEZN8nlohmann10basic_jsonISt3mapSt6vectorS5_blmdSaNS7_14adl_serializerEE6createIS5_JRKS5_EEEPT_DpOT0_EUlS6_E_EEC2IRS6_JRKSL_EvEEOSG_SK_ = comdat any

$_ZNSt11_Tuple_implILm1EJZN8nlohmann10basic_jsonISt3mapSt6vectorNSt7__cxx1112basic_stringIcSt11char_traitsIcESaIcEEEblmdSaNS0_14adl_serializerEE6createIS9_JRKS9_EEEPT_DpOT0_EUlPS9_E_EEC2ERKSL_ = comdat any

$_ZNSt10_Head_baseILm1EZN8nlohmann10basic_jsonISt3mapSt6vectorNSt7__cxx1112basic_stringIcSt11char_traitsIcESaIcEEEblmdSaNS0_14adl_serializerEE6createIS9_JRKS9_EEEPT_DpOT0_EUlPS9_E_Lb0EEC2ERKSL_ = comdat any

$_ZNKSt15__uniq_ptr_implINSt7__cxx1112basic_stringIcSt11char_traitsIcESaIcEEEZN8nlohmann10basic_jsonISt3mapSt6vectorS5_blmdSaNS6_14adl_serializerEE6createIS5_JRKS5_EEEPT_DpOT0_EUlPS5_E_E6_M_ptrEv = comdat any

$_ZSt3getILm0EJPNSt7__cxx1112basic_stringIcSt11char_traitsIcESaIcEEEZN8nlohmann10basic_jsonISt3mapSt6vectorS5_blmdSaNS7_14adl_serializerEE6createIS5_JRKS5_EEEPT_DpOT0_EUlS6_E_EERKNSt13tuple_elementIXT_ESt5tupleIJDpSI_EEE4typeERKSP_ = comdat any

$_ZSt12__get_helperILm0EPNSt7__cxx1112basic_stringIcSt11char_traitsIcESaIcEEEJZN8nlohmann10basic_jsonISt3mapSt6vectorS5_blmdSaNS7_14adl_serializerEE6createIS5_JRKS5_EEEPT_DpOT0_EUlS6_E_EERKT0_RKSt11_Tuple_implIXT_EJSM_DpT1_EE = comdat any

$_ZNSt11_Tuple_implILm0EJPNSt7__cxx1112basic_stringIcSt11char_traitsIcESaIcEEEZN8nlohmann10basic_jsonISt3mapSt6vectorS5_blmdSaNS7_14adl_serializerEE6createIS5_JRKS5_EEEPT_DpOT0_EUlS6_E_EE7_M_headERKSM_ = comdat any

$_ZNKSt10unique_ptrINSt7__cxx1112basic_stringIcSt11char_traitsIcESaIcEEEZN8nlohmann10basic_jsonISt3mapSt6vectorS5_blmdSaNS6_14adl_serializerEE6createIS5_JRKS5_EEEPT_DpOT0_EUlPS5_E_EcvbEv = comdat any

$_ZNSt15__uniq_ptr_implINSt7__cxx1112basic_stringIcSt11char_traitsIcESaIcEEEZN8nlohmann10basic_jsonISt3mapSt6vectorS5_blmdSaNS6_14adl_serializerEE6createIS5_JRKS5_EEEPT_DpOT0_EUlPS5_E_E7releaseEv = comdat any

$_ZNSt15__uniq_ptr_implINSt7__cxx1112basic_stringIcSt11char_traitsIcESaIcEEEZN8nlohmann10basic_jsonISt3mapSt6vectorS5_blmdSaNS6_14adl_serializerEE6createIS5_JRKS5_EEEPT_DpOT0_EUlPS5_E_E6_M_ptrEv = comdat any

$_ZSt3getILm0EJPNSt7__cxx1112basic_stringIcSt11char_traitsIcESaIcEEEZN8nlohmann10basic_jsonISt3mapSt6vectorS5_blmdSaNS7_14adl_serializerEE6createIS5_JRKS5_EEEPT_DpOT0_EUlS6_E_EERNSt13tuple_elementIXT_ESt5tupleIJDpSI_EEE4typeERSP_ = comdat any

$_ZSt12__get_helperILm0EPNSt7__cxx1112basic_stringIcSt11char_traitsIcESaIcEEEJZN8nlohmann10basic_jsonISt3mapSt6vectorS5_blmdSaNS7_14adl_serializerEE6createIS5_JRKS5_EEEPT_DpOT0_EUlS6_E_EERT0_RSt11_Tuple_implIXT_EJSM_DpT1_EE = comdat any

$_ZNSt11_Tuple_implILm0EJPNSt7__cxx1112basic_stringIcSt11char_traitsIcESaIcEEEZN8nlohmann10basic_jsonISt3mapSt6vectorS5_blmdSaNS7_14adl_serializerEE6createIS5_JRKS5_EEEPT_DpOT0_EUlS6_E_EE7_M_headERSM_ = comdat any

$_ZNSt10unique_ptrINSt7__cxx1112basic_stringIcSt11char_traitsIcESaIcEEEZN8nlohmann10basic_jsonISt3mapSt6vectorS5_blmdSaNS6_14adl_serializerEE6createIS5_JRKS5_EEEPT_DpOT0_EUlPS5_E_E11get_deleterEv = comdat any

$_ZZN8nlohmann10basic_jsonISt3mapSt6vectorNSt7__cxx1112basic_stringIcSt11char_traitsIcESaIcEEEblmdSaNS_14adl_serializerEE6createIS8_JRKS8_EEEPT_DpOT0_ENKUlPS8_E_clESJ_ = comdat any

$_ZNSt15__uniq_ptr_implINSt7__cxx1112basic_stringIcSt11char_traitsIcESaIcEEEZN8nlohmann10basic_jsonISt3mapSt6vectorS5_blmdSaNS6_14adl_serializerEE6createIS5_JRKS5_EEEPT_DpOT0_EUlPS5_E_E10_M_deleterEv = comdat any

$_ZSt3getILm1EJPNSt7__cxx1112basic_stringIcSt11char_traitsIcESaIcEEEZN8nlohmann10basic_jsonISt3mapSt6vectorS5_blmdSaNS7_14adl_serializerEE6createIS5_JRKS5_EEEPT_DpOT0_EUlS6_E_EERNSt13tuple_elementIXT_ESt5tupleIJDpSI_EEE4typeERSP_ = comdat any

$_ZSt12__get_helperILm1EZN8nlohmann10basic_jsonISt3mapSt6vectorNSt7__cxx1112basic_stringIcSt11char_traitsIcESaIcEEEblmdSaNS0_14adl_serializerEE6createIS9_JRKS9_EEEPT_DpOT0_EUlPS9_E_JEERT0_RSt11_Tuple_implIXT_EJSM_DpT1_EE = comdat any

$_ZNSt11_Tuple_implILm1EJZN8nlohmann10basic_jsonISt3mapSt6vectorNSt7__cxx1112basic_stringIcSt11char_traitsIcESaIcEEEblmdSaNS0_14adl_serializerEE6createIS9_JRKS9_EEEPT_DpOT0_EUlPS9_E_EE7_M_headERSM_ = comdat any

$_ZNSt10_Head_baseILm1EZN8nlohmann10basic_jsonISt3mapSt6vectorNSt7__cxx1112basic_stringIcSt11char_traitsIcESaIcEEEblmdSaNS0_14adl_serializerEE6createIS9_JRKS9_EEEPT_DpOT0_EUlPS9_E_Lb0EE7_M_headERSM_ = comdat any

$_ZNSt15__new_allocatorISt13_Rb_tree_nodeISt4pairIKNSt7__cxx1112basic_stringIcSt11char_traitsIcESaIcEEEN8nlohmann10basic_jsonISt3mapSt6vectorS7_blmdSaNS9_14adl_serializerEEEEEE10deallocateEPSG_m = comdat any

$_ZNSt4pairIPSt18_Rb_tree_node_baseS1_EC2IS1_RS1_TnNSt9enable_ifIXaaclsr5_PCCPE22_MoveConstructiblePairIT_T0_EEclsr5_PCCPE30_ImplicitlyMoveConvertiblePairIS6_S7_EEEbE4typeELb1EEEOS6_OS7_ = comdat any

$_ZNSt8_Rb_treeINSt7__cxx1112basic_stringIcSt11char_traitsIcESaIcEEESt4pairIKS5_N8nlohmann10basic_jsonISt3mapSt6vectorS5_blmdSaNS8_14adl_serializerEEEESt10_Select1stISE_ESt4lessIS5_ESaISE_EE24_M_get_insert_unique_posERS7_ = comdat any

$_ZNSt4pairIPSt18_Rb_tree_node_baseS1_EC2IRS1_S4_TnNSt9enable_ifIXaaclsr5_PCCPE22_MoveConstructiblePairIT_T0_EEclsr5_PCCPE30_ImplicitlyMoveConvertiblePairIS6_S7_EEEbE4typeELb1EEEOS6_OS7_ = comdat any

$_ZNSt17_Rb_tree_iteratorISt4pairIKNSt7__cxx1112basic_stringIcSt11char_traitsIcESaIcEEEN8nlohmann10basic_jsonISt3mapSt6vectorS6_blmdSaNS8_14adl_serializerEEEEEmmEv = comdat any

$_ZNSt17_Rb_tree_iteratorISt4pairIKNSt7__cxx1112basic_stringIcSt11char_traitsIcESaIcEEEN8nlohmann10basic_jsonISt3mapSt6vectorS6_blmdSaNS8_14adl_serializerEEEEEppEv = comdat any

$_ZNSt4pairIPSt18_Rb_tree_node_baseS1_EC2IRS1_S1_TnNSt9enable_ifIXaaclsr5_PCCPE22_MoveConstructiblePairIT_T0_EEclsr5_PCCPE30_ImplicitlyMoveConvertiblePairIS6_S7_EEEbE4typeELb1EEEOS6_OS7_ = comdat any

$_ZNSt8_Rb_treeINSt7__cxx1112basic_stringIcSt11char_traitsIcESaIcEEESt4pairIKS5_N8nlohmann10basic_jsonISt3mapSt6vectorS5_blmdSaNS8_14adl_serializerEEEESt10_Select1stISE_ESt4lessIS5_ESaISE_EE5beginEv = comdat any

$_ZNSt8_Rb_treeINSt7__cxx1112basic_stringIcSt11char_traitsIcESaIcEEESt4pairIKS5_N8nlohmann10basic_jsonISt3mapSt6vectorS5_blmdSaNS8_14adl_serializerEEEESt10_Select1stISE_ESt4lessIS5_ESaISE_EE6_S_keyEPSt13_Rb_tree_nodeISE_E = comdat any

$_ZNSt8_Rb_treeINSt7__cxx1112basic_stringIcSt11char_traitsIcESaIcEEESt4pairIKS5_N8nlohmann10basic_jsonISt3mapSt6vectorS5_blmdSaNS8_14adl_serializerEEEESt10_Select1stISE_ESt4lessIS5_ESaISE_EE14_M_insert_nodeEPSt18_Rb_tree_node_baseSM_PSt13_Rb_tree_nodeISE_E = comdat any

$_ZNSt9__rb_tree12_Node_traitsISt4pairIKNSt7__cxx1112basic_stringIcSt11char_traitsIcESaIcEEEN8nlohmann10basic_jsonISt3mapSt6vectorS7_blmdSaNS9_14adl_serializerEEEEPSF_E23_S_insert_and_rebalanceEbPSt18_Rb_tree_node_baseSJ_RSI_ = comdat any

$_ZNSt10unique_ptrISt6vectorIN8nlohmann10basic_jsonISt3mapS0_NSt7__cxx1112basic_stringIcSt11char_traitsIcESaIcEEEblmdSaNS1_14adl_serializerEEESaISB_EEZNSB_6createISD_JRSt16initializer_listISB_EEEEPT_DpOT0_EUlPSD_E_EC2ISO_vEESN_RKSO_ = comdat any

$_ZNKSt10unique_ptrISt6vectorIN8nlohmann10basic_jsonISt3mapS0_NSt7__cxx1112basic_stringIcSt11char_traitsIcESaIcEEEblmdSaNS1_14adl_serializerEEESaISB_EEZNSB_6createISD_JRSt16initializer_listISB_EEEEPT_DpOT0_EUlPSD_E_E3getEv = comdat any

$_ZStneISt6vectorIN8nlohmann10basic_jsonISt3mapS0_NSt7__cxx1112basic_stringIcSt11char_traitsIcESaIcEEEblmdSaNS1_14adl_serializerEEESaISB_EEZNSB_6createISD_JRSt16initializer_listISB_EEEEPT_DpOT0_EUlPSD_E_EbRKSt10unique_ptrISI_T0_EDn = comdat any

$_ZNSt10unique_ptrISt6vectorIN8nlohmann10basic_jsonISt3mapS0_NSt7__cxx1112basic_stringIcSt11char_traitsIcESaIcEEEblmdSaNS1_14adl_serializerEEESaISB_EEZNSB_6createISD_JRSt16initializer_listISB_EEEEPT_DpOT0_EUlPSD_E_E7releaseEv = comdat any

$_ZNSt10unique_ptrISt6vectorIN8nlohmann10basic_jsonISt3mapS0_NSt7__cxx1112basic_stringIcSt11char_traitsIcESaIcEEEblmdSaNS1_14adl_serializerEEESaISB_EEZNSB_6createISD_JRSt16initializer_listISB_EEEEPT_DpOT0_EUlPSD_E_ED2Ev = comdat any

$_ZNSt15__uniq_ptr_dataISt6vectorIN8nlohmann10basic_jsonISt3mapS0_NSt7__cxx1112basic_stringIcSt11char_traitsIcESaIcEEEblmdSaNS1_14adl_serializerEEESaISB_EEZNSB_6createISD_JRSt16initializer_listISB_EEEEPT_DpOT0_EUlPSD_E_Lb1ELb0EECI2St15__uniq_ptr_implISD_SO_EIRKSO_EESN_OSI_ = comdat any

$_ZNSt15__uniq_ptr_implISt6vectorIN8nlohmann10basic_jsonISt3mapS0_NSt7__cxx1112basic_stringIcSt11char_traitsIcESaIcEEEblmdSaNS1_14adl_serializerEEESaISB_EEZNSB_6createISD_JRSt16initializer_listISB_EEEEPT_DpOT0_EUlPSD_E_EC2IRKSO_EESN_OSI_ = comdat any

$_ZNSt5tupleIJPSt6vectorIN8nlohmann10basic_jsonISt3mapS0_NSt7__cxx1112basic_stringIcSt11char_traitsIcESaIcEEEblmdSaNS1_14adl_serializerEEESaISB_EEZNSB_6createISD_JRSt16initializer_listISB_EEEEPT_DpOT0_EUlSE_E_EEC2IRSE_RKSO_TnNSt9enable_ifIXclsr4_TCCIXntcl14__is_alloc_argISJ_EEEEE29__is_implicitly_constructibleISJ_T0_EEEbE4typeELb1EEEOSJ_OSV_ = comdat any

$_ZNSt11_Tuple_implILm0EJPSt6vectorIN8nlohmann10basic_jsonISt3mapS0_NSt7__cxx1112basic_stringIcSt11char_traitsIcESaIcEEEblmdSaNS1_14adl_serializerEEESaISB_EEZNSB_6createISD_JRSt16initializer_listISB_EEEEPT_DpOT0_EUlSE_E_EEC2IRSE_JRKSO_EvEEOSJ_SN_ = comdat any

$_ZNSt11_Tuple_implILm1EJZN8nlohmann10basic_jsonISt3mapSt6vectorNSt7__cxx1112basic_stringIcSt11char_traitsIcESaIcEEEblmdSaNS0_14adl_serializerEE6createIS3_ISB_SaISB_EEJRSt16initializer_listISB_EEEEPT_DpOT0_EUlPSE_E_EEC2ERKSO_ = comdat any

$_ZNSt10_Head_baseILm1EZN8nlohmann10basic_jsonISt3mapSt6vectorNSt7__cxx1112basic_stringIcSt11char_traitsIcESaIcEEEblmdSaNS0_14adl_serializerEE6createIS3_ISB_SaISB_EEJRSt16initializer_listISB_EEEEPT_DpOT0_EUlPSE_E_Lb0EEC2ERKSO_ = comdat any

$_ZNSt6vectorIN8nlohmann10basic_jsonISt3mapS_NSt7__cxx1112basic_stringIcSt11char_traitsIcESaIcEEEblmdSaNS0_14adl_serializerEEESaISA_EEC2ESt16initializer_listISA_ERKSB_ = comdat any

$_ZNSt12_Vector_baseIN8nlohmann10basic_jsonISt3mapSt6vectorNSt7__cxx1112basic_stringIcSt11char_traitsIcESaIcEEEblmdSaNS0_14adl_serializerEEESaISB_EEC2ERKSC_ = comdat any

$_ZNSt6vectorIN8nlohmann10basic_jsonISt3mapS_NSt7__cxx1112basic_stringIcSt11char_traitsIcESaIcEEEblmdSaNS0_14adl_serializerEEESaISA_EE21_M_range_initialize_nIPKSA_SF_EEvT_T0_m = comdat any

$_ZNSt6vectorIN8nlohmann10basic_jsonISt3mapS_NSt7__cxx1112basic_stringIcSt11char_traitsIcESaIcEEEblmdSaNS0_14adl_serializerEEESaISA_EE17_S_check_init_lenEmRKSB_ = comdat any

$_ZSt22__uninitialized_copy_aIPKN8nlohmann10basic_jsonISt3mapSt6vectorNSt7__cxx1112basic_stringIcSt11char_traitsIcESaIcEEEblmdSaNS0_14adl_serializerEEESD_PSB_SB_ET1_T_T0_SF_RSaIT2_E = comdat any

$_ZNSt6vectorIN8nlohmann10basic_jsonISt3mapS_NSt7__cxx1112basic_stringIcSt11char_traitsIcESaIcEEEblmdSaNS0_14adl_serializerEEESaISA_EE11_S_max_sizeERKSB_ = comdat any

$_ZSt18uninitialized_copyIPKN8nlohmann10basic_jsonISt3mapSt6vectorNSt7__cxx1112basic_stringIcSt11char_traitsIcESaIcEEEblmdSaNS0_14adl_serializerEEEPSB_ET0_T_SG_SF_ = comdat any

$_ZSt16__do_uninit_copyIPKN8nlohmann10basic_jsonISt3mapSt6vectorNSt7__cxx1112basic_stringIcSt11char_traitsIcESaIcEEEblmdSaNS0_14adl_serializerEEESD_PSB_ET1_T_T0_SF_ = comdat any

$_ZNKSt15__uniq_ptr_implISt6vectorIN8nlohmann10basic_jsonISt3mapS0_NSt7__cxx1112basic_stringIcSt11char_traitsIcESaIcEEEblmdSaNS1_14adl_serializerEEESaISB_EEZNSB_6createISD_JRSt16initializer_listISB_EEEEPT_DpOT0_EUlPSD_E_E6_M_ptrEv = comdat any

$_ZSt3getILm0EJPSt6vectorIN8nlohmann10basic_jsonISt3mapS0_NSt7__cxx1112basic_stringIcSt11char_traitsIcESaIcEEEblmdSaNS1_14adl_serializerEEESaISB_EEZNSB_6createISD_JRSt16initializer_listISB_EEEEPT_DpOT0_EUlSE_E_EERKNSt13tuple_elementIXT_ESt5tupleIJDpSL_EEE4typeERKSS_ = comdat any

$_ZSt12__get_helperILm0EPSt6vectorIN8nlohmann10basic_jsonISt3mapS0_NSt7__cxx1112basic_stringIcSt11char_traitsIcESaIcEEEblmdSaNS1_14adl_serializerEEESaISB_EEJZNSB_6createISD_JRSt16initializer_listISB_EEEEPT_DpOT0_EUlSE_E_EERKT0_RKSt11_Tuple_implIXT_EJSP_DpT1_EE = comdat any

$_ZNSt11_Tuple_implILm0EJPSt6vectorIN8nlohmann10basic_jsonISt3mapS0_NSt7__cxx1112basic_stringIcSt11char_traitsIcESaIcEEEblmdSaNS1_14adl_serializerEEESaISB_EEZNSB_6createISD_JRSt16initializer_listISB_EEEEPT_DpOT0_EUlSE_E_EE7_M_headERKSP_ = comdat any

$_ZNKSt10unique_ptrISt6vectorIN8nlohmann10basic_jsonISt3mapS0_NSt7__cxx1112basic_stringIcSt11char_traitsIcESaIcEEEblmdSaNS1_14adl_serializerEEESaISB_EEZNSB_6createISD_JRSt16initializer_listISB_EEEEPT_DpOT0_EUlPSD_E_EcvbEv = comdat any

$_ZNSt15__uniq_ptr_implISt6vectorIN8nlohmann10basic_jsonISt3mapS0_NSt7__cxx1112basic_stringIcSt11char_traitsIcESaIcEEEblmdSaNS1_14adl_serializerEEESaISB_EEZNSB_6createISD_JRSt16initializer_listISB_EEEEPT_DpOT0_EUlPSD_E_E7releaseEv = comdat any

$_ZNSt15__uniq_ptr_implISt6vectorIN8nlohmann10basic_jsonISt3mapS0_NSt7__cxx1112basic_stringIcSt11char_traitsIcESaIcEEEblmdSaNS1_14adl_serializerEEESaISB_EEZNSB_6createISD_JRSt16initializer_listISB_EEEEPT_DpOT0_EUlPSD_E_E6_M_ptrEv = comdat any

$_ZSt3getILm0EJPSt6vectorIN8nlohmann10basic_jsonISt3mapS0_NSt7__cxx1112basic_stringIcSt11char_traitsIcESaIcEEEblmdSaNS1_14adl_serializerEEESaISB_EEZNSB_6createISD_JRSt16initializer_listISB_EEEEPT_DpOT0_EUlSE_E_EERNSt13tuple_elementIXT_ESt5tupleIJDpSL_EEE4typeERSS_ = comdat any

$_ZSt12__get_helperILm0EPSt6vectorIN8nlohmann10basic_jsonISt3mapS0_NSt7__cxx1112basic_stringIcSt11char_traitsIcESaIcEEEblmdSaNS1_14adl_serializerEEESaISB_EEJZNSB_6createISD_JRSt16initializer_listISB_EEEEPT_DpOT0_EUlSE_E_EERT0_RSt11_Tuple_implIXT_EJSP_DpT1_EE = comdat any

$_ZNSt11_Tuple_implILm0EJPSt6vectorIN8nlohmann10basic_jsonISt3mapS0_NSt7__cxx1112basic_stringIcSt11char_traitsIcESaIcEEEblmdSaNS1_14adl_serializerEEESaISB_EEZNSB_6createISD_JRSt16initializer_listISB_EEEEPT_DpOT0_EUlSE_E_EE7_M_headERSP_ = comdat any

$_ZNSt10unique_ptrISt6vectorIN8nlohmann10basic_jsonISt3mapS0_NSt7__cxx1112basic_stringIcSt11char_traitsIcESaIcEEEblmdSaNS1_14adl_serializerEEESaISB_EEZNSB_6createISD_JRSt16initializer_listISB_EEEEPT_DpOT0_EUlPSD_E_E11get_deleterEv = comdat any

$_ZZN8nlohmann10basic_jsonISt3mapSt6vectorNSt7__cxx1112basic_stringIcSt11char_traitsIcESaIcEEEblmdSaNS_14adl_serializerEE6createIS2_ISA_SaISA_EEJRSt16initializer_listISA_EEEEPT_DpOT0_ENKUlPSD_E_clESM_ = comdat any

$_ZNSt15__uniq_ptr_implISt6vectorIN8nlohmann10basic_jsonISt3mapS0_NSt7__cxx1112basic_stringIcSt11char_traitsIcESaIcEEEblmdSaNS1_14adl_serializerEEESaISB_EEZNSB_6createISD_JRSt16initializer_listISB_EEEEPT_DpOT0_EUlPSD_E_E10_M_deleterEv = comdat any

$_ZSt3getILm1EJPSt6vectorIN8nlohmann10basic_jsonISt3mapS0_NSt7__cxx1112basic_stringIcSt11char_traitsIcESaIcEEEblmdSaNS1_14adl_serializerEEESaISB_EEZNSB_6createISD_JRSt16initializer_listISB_EEEEPT_DpOT0_EUlSE_E_EERNSt13tuple_elementIXT_ESt5tupleIJDpSL_EEE4typeERSS_ = comdat any

$_ZSt12__get_helperILm1EZN8nlohmann10basic_jsonISt3mapSt6vectorNSt7__cxx1112basic_stringIcSt11char_traitsIcESaIcEEEblmdSaNS0_14adl_serializerEE6createIS3_ISB_SaISB_EEJRSt16initializer_listISB_EEEEPT_DpOT0_EUlPSE_E_JEERT0_RSt11_Tuple_implIXT_EJSP_DpT1_EE = comdat any

$_ZNSt11_Tuple_implILm1EJZN8nlohmann10basic_jsonISt3mapSt6vectorNSt7__cxx1112basic_stringIcSt11char_traitsIcESaIcEEEblmdSaNS0_14adl_serializerEE6createIS3_ISB_SaISB_EEJRSt16initializer_listISB_EEEEPT_DpOT0_EUlPSE_E_EE7_M_headERSP_ = comdat any

$_ZNSt10_Head_baseILm1EZN8nlohmann10basic_jsonISt3mapSt6vectorNSt7__cxx1112basic_stringIcSt11char_traitsIcESaIcEEEblmdSaNS0_14adl_serializerEE6createIS3_ISB_SaISB_EEJRSt16initializer_listISB_EEEEPT_DpOT0_EUlPSE_E_Lb0EE7_M_headERSP_ = comdat any

$_ZN4llvm8DenseMapIPKN5clang11DeclContextENS_9StringRefENS_12DenseMapInfoIS4_vEENS_6detail12DenseMapPairIS4_S5_EEED2Ev = comdat any

$_ZN4llvm12DenseMapBaseINS_8DenseMapIPKN5clang11DeclContextENS_9StringRefENS_12DenseMapInfoIS5_vEENS_6detail12DenseMapPairIS5_S6_EEEES5_S6_S8_SB_E10destroyAllEv = comdat any

$_ZN4llvm12DenseMapBaseINS_8DenseMapIPKN5clang11DeclContextENS_9StringRefENS_12DenseMapInfoIS5_vEENS_6detail12DenseMapPairIS5_S6_EEEES5_S6_S8_SB_E15getTombstoneKeyEv = comdat any

$_ZN4llvm12DenseMapInfoIPKN5clang11DeclContextEvE7isEqualES4_S4_ = comdat any

$_ZN4llvm6detail12DenseMapPairIPKN5clang11DeclContextENS_9StringRefEE9getSecondEv = comdat any

$_ZN4llvm12DenseMapInfoIPKN5clang11DeclContextEvE15getTombstoneKeyEv = comdat any

$_ZN4llvm18raw_string_ostreamC2ERNSt7__cxx1112basic_stringIcSt11char_traitsIcESaIcEEE = comdat any

$_ZNK5clang20CodeCompleteConsumer20includeBriefCommentsEv = comdat any

$_ZN8nlohmann10basic_jsonISt3mapSt6vectorNSt7__cxx1112basic_stringIcSt11char_traitsIcESaIcEEEblmdSaNS_14adl_serializerEE9push_backEOSA_ = comdat any

$_Z6encodeB5cxx11RKN5clang20CodeCompletionResultEPKNS_20CodeCompletionStringERKNS_13SourceManagerE = comdat any

$_ZN4llvm18raw_string_ostreamD2Ev = comdat any

$_ZN4llvm11raw_ostreamC2EbNS0_11OStreamKindE = comdat any

$_ZN4llvm11raw_ostream13SetUnbufferedEv = comdat any

$_ZN4llvm11raw_ostream5flushEv = comdat any

$_ZNK8nlohmann10basic_jsonISt3mapSt6vectorNSt7__cxx1112basic_stringIcSt11char_traitsIcESaIcEEEblmdSaNS_14adl_serializerEE7is_nullEv = comdat any

$_ZNSt6vectorIN8nlohmann10basic_jsonISt3mapS_NSt7__cxx1112basic_stringIcSt11char_traitsIcESaIcEEEblmdSaNS0_14adl_serializerEEESaISA_EE9push_backEOSA_ = comdat any

$_ZNSt6vectorIN8nlohmann10basic_jsonISt3mapS_NSt7__cxx1112basic_stringIcSt11char_traitsIcESaIcEEEblmdSaNS0_14adl_serializerEEESaISA_EE12emplace_backIJSA_EEERSA_DpOT_ = comdat any

$_ZNSt6vectorIN8nlohmann10basic_jsonISt3mapS_NSt7__cxx1112basic_stringIcSt11char_traitsIcESaIcEEEblmdSaNS0_14adl_serializerEEESaISA_EE17_M_realloc_appendIJSA_EEEvDpOT_ = comdat any

$_ZNSt6vectorIN8nlohmann10basic_jsonISt3mapS_NSt7__cxx1112basic_stringIcSt11char_traitsIcESaIcEEEblmdSaNS0_14adl_serializerEEESaISA_EE4backEv = comdat any

$_ZN8nlohmann10basic_jsonISt3mapSt6vectorNSt7__cxx1112basic_stringIcSt11char_traitsIcESaIcEEEblmdSaNS_14adl_serializerEEC2EOSA_ = comdat any

$_ZNKSt6vectorIN8nlohmann10basic_jsonISt3mapS_NSt7__cxx1112basic_stringIcSt11char_traitsIcESaIcEEEblmdSaNS0_14adl_serializerEEESaISA_EE12_M_check_lenEmPKc = comdat any

$_ZNSt6vectorIN8nlohmann10basic_jsonISt3mapS_NSt7__cxx1112basic_stringIcSt11char_traitsIcESaIcEEEblmdSaNS0_14adl_serializerEEESaISA_EE3endEv = comdat any

$_ZNSt6vectorIN8nlohmann10basic_jsonISt3mapS_NSt7__cxx1112basic_stringIcSt11char_traitsIcESaIcEEEblmdSaNS0_14adl_serializerEEESaISA_EE5beginEv = comdat any

$_ZNSt6vectorIN8nlohmann10basic_jsonISt3mapS_NSt7__cxx1112basic_stringIcSt11char_traitsIcESaIcEEEblmdSaNS0_14adl_serializerEEESaISA_EE12_Guard_allocC2EPSA_mRSt12_Vector_baseISA_SB_E = comdat any

$_ZNSt6vectorIN8nlohmann10basic_jsonISt3mapS_NSt7__cxx1112basic_stringIcSt11char_traitsIcESaIcEEEblmdSaNS0_14adl_serializerEEESaISA_EE11_S_relocateEPSA_SD_SD_RSB_ = comdat any

$_ZNSt6vectorIN8nlohmann10basic_jsonISt3mapS_NSt7__cxx1112basic_stringIcSt11char_traitsIcESaIcEEEblmdSaNS0_14adl_serializerEEESaISA_EE12_Guard_allocD2Ev = comdat any

$_ZNKSt6vectorIN8nlohmann10basic_jsonISt3mapS_NSt7__cxx1112basic_stringIcSt11char_traitsIcESaIcEEEblmdSaNS0_14adl_serializerEEESaISA_EE8max_sizeEv = comdat any

$_ZSt12__relocate_aIPN8nlohmann10basic_jsonISt3mapSt6vectorNSt7__cxx1112basic_stringIcSt11char_traitsIcESaIcEEEblmdSaNS0_14adl_serializerEEESC_SaISB_EET0_T_SF_SE_RT1_ = comdat any

$_ZSt14__relocate_a_1IPN8nlohmann10basic_jsonISt3mapSt6vectorNSt7__cxx1112basic_stringIcSt11char_traitsIcESaIcEEEblmdSaNS0_14adl_serializerEEESC_SaISB_EET0_T_SF_SE_RT1_ = comdat any

$_ZSt19__relocate_object_aIN8nlohmann10basic_jsonISt3mapSt6vectorNSt7__cxx1112basic_stringIcSt11char_traitsIcESaIcEEEblmdSaNS0_14adl_serializerEEESB_SaISB_EEvPT_PT0_RT1_ = comdat any

$_ZNKSt6vectorIN8nlohmann10basic_jsonISt3mapS_NSt7__cxx1112basic_stringIcSt11char_traitsIcESaIcEEEblmdSaNS0_14adl_serializerEEESaISA_EE5emptyEv = comdat any

$_ZN8nlohmann10basic_jsonISt3mapSt6vectorNSt7__cxx1112basic_stringIcSt11char_traitsIcESaIcEEEblmdSaNS_14adl_serializerEEC2IRA11_KcA11_cTnNSt9enable_ifIXaaaaaantsr3std10is_base_ofISiT0_EE5valuentsr3std7is_sameISH_SA_EE5valuentsr6detail25is_basic_json_nested_typeISA_SH_EE5valuesr6detail11has_to_jsonISA_SH_EE5valueEiE4typeELi0EEEOT_ = comdat any

$_Z6encodeB5cxx11PKN5clang20CodeCompletionStringE = comdat any

$_ZNK5clang4Decl11getLocationEv = comdat any

$_ZNK5clang11PresumedLoc11getFilenameEv = comdat any

$_Z14quoteCppStringRNSt7__cxx1112basic_stringIcSt11char_traitsIcESaIcEEE = comdat any

$_ZNSt7__cxx1112basic_stringIcSt11char_traitsIcESaIcEEaSEOS4_ = comdat any

$_ZN8nlohmann10basic_jsonISt3mapSt6vectorNSt7__cxx1112basic_stringIcSt11char_traitsIcESaIcEEEblmdSaNS_14adl_serializerEEC2IPKcSD_TnNSt9enable_ifIXaaaaaantsr3std10is_base_ofISiT0_EE5valuentsr3std7is_sameISF_SA_EE5valuentsr6detail25is_basic_json_nested_typeISA_SF_EE5valuesr6detail11has_to_jsonISA_SF_EE5valueEiE4typeELi0EEEOT_ = comdat any

$_ZN8nlohmann10basic_jsonISt3mapSt6vectorNSt7__cxx1112basic_stringIcSt11char_traitsIcESaIcEEEblmdSaNS_14adl_serializerEEixIKcEERSA_PT_ = comdat any

$_ZN8nlohmann10basic_jsonISt3mapSt6vectorNSt7__cxx1112basic_stringIcSt11char_traitsIcESaIcEEEblmdSaNS_14adl_serializerEEaSESA_ = comdat any

$_ZN4llvm8dyn_castIN5clang12FunctionDeclEKNS1_9NamedDeclEEEDcPT0_ = comdat any

$_ZNK5clang12FunctionDecl10parametersEv = comdat any

$_ZNK4llvm8ArrayRefIPN5clang11ParmVarDeclEE4sizeEv = comdat any

$_ZN8nlohmann10basic_jsonISt3mapSt6vectorNSt7__cxx1112basic_stringIcSt11char_traitsIcESaIcEEEblmdSaNS_14adl_serializerEEC2IRA5_KcA5_cTnNSt9enable_ifIXaaaaaantsr3std10is_base_ofISiT0_EE5valuentsr3std7is_sameISH_SA_EE5valuentsr6detail25is_basic_json_nested_typeISA_SH_EE5valuesr6detail11has_to_jsonISA_SH_EE5valueEiE4typeELi0EEEOT_ = comdat any

$_ZNK4llvm8ArrayRefIPN5clang11ParmVarDeclEEixEm = comdat any

$_ZNK5clang9ValueDecl7getTypeEv = comdat any

$_ZN8nlohmann10basic_jsonISt3mapSt6vectorNSt7__cxx1112basic_stringIcSt11char_traitsIcESaIcEEEblmdSaNS_14adl_serializerEEC2IS8_S8_TnNSt9enable_ifIXaaaaaantsr3std10is_base_ofISiT0_EE5valuentsr3std7is_sameISD_SA_EE5valuentsr6detail25is_basic_json_nested_typeISA_SD_EE5valuesr6detail11has_to_jsonISA_SD_EE5valueEiE4typeELi0EEEOT_ = comdat any

$_ZNK5clang9NamedDecl15getNameAsStringB5cxx11Ev = comdat any

$_ZN8nlohmann10basic_jsonISt3mapSt6vectorNSt7__cxx1112basic_stringIcSt11char_traitsIcESaIcEEEblmdSaNS_14adl_serializerEEC2IRA8_KcA8_cTnNSt9enable_ifIXaaaaaantsr3std10is_base_ofISiT0_EE5valuentsr3std7is_sameISH_SA_EE5valuentsr6detail25is_basic_json_nested_typeISA_SH_EE5valuesr6detail11has_to_jsonISA_SH_EE5valueEiE4typeELi0EEEOT_ = comdat any

$_ZN8nlohmann10basic_jsonISt3mapSt6vectorNSt7__cxx1112basic_stringIcSt11char_traitsIcESaIcEEEblmdSaNS_14adl_serializerEEC2IRA6_KcA6_cTnNSt9enable_ifIXaaaaaantsr3std10is_base_ofISiT0_EE5valuentsr3std7is_sameISH_SA_EE5valuentsr6detail25is_basic_json_nested_typeISA_SH_EE5valuesr6detail11has_to_jsonISA_SH_EE5valueEiE4typeELi0EEEOT_ = comdat any

$_ZN8nlohmann14adl_serializerIA11_cvE7to_jsonINS_10basic_jsonISt3mapSt6vectorNSt7__cxx1112basic_stringIcSt11char_traitsIcESaIcEEEblmdSaS0_EERA11_KcEEvRT_OT0_ = comdat any

$_ZNK8nlohmann6detail10to_json_fnclINS_10basic_jsonISt3mapSt6vectorNSt7__cxx1112basic_stringIcSt11char_traitsIcESaIcEEEblmdSaNS_14adl_serializerEEERA11_KcEEvRT_OT0_ = comdat any

$_ZNK8nlohmann6detail10to_json_fn4callINS_10basic_jsonISt3mapSt6vectorNSt7__cxx1112basic_stringIcSt11char_traitsIcESaIcEEEblmdSaNS_14adl_serializerEEERA11_KcEEDTcmcl7to_jsonfp_clsr3stdE7forwardIT0_Efp0_EEcvv_EERT_OSH_NS0_12priority_tagILj1EEE = comdat any

$_ZN8nlohmann6detail7to_jsonINS_10basic_jsonISt3mapSt6vectorNSt7__cxx1112basic_stringIcSt11char_traitsIcESaIcEEEblmdSaNS_14adl_serializerEEEA11_cTnNSt9enable_ifIXsr3std16is_constructibleINT_8string_tET0_EE5valueEiE4typeELi0EEEvRSF_RKSH_ = comdat any

$_ZN8nlohmann6detail20external_constructorILNS0_7value_tE3EE9constructINS_10basic_jsonISt3mapSt6vectorNSt7__cxx1112basic_stringIcSt11char_traitsIcESaIcEEEblmdSaNS_14adl_serializerEEEEEvRT_RKNSG_8string_tE = comdat any

$_ZNK5clang20CodeCompletionString5beginEv = comdat any

$_ZNK5clang20CodeCompletionString3endEv = comdat any

$_ZN8nlohmann10basic_jsonISt3mapSt6vectorNSt7__cxx1112basic_stringIcSt11char_traitsIcESaIcEEEblmdSaNS_14adl_serializerEEC2IRA2_KcA2_cTnNSt9enable_ifIXaaaaaantsr3std10is_base_ofISiT0_EE5valuentsr3std7is_sameISH_SA_EE5valuentsr6detail25is_basic_json_nested_typeISA_SH_EE5valuesr6detail11has_to_jsonISA_SH_EE5valueEiE4typeELi0EEEOT_ = comdat any

$_ZN8nlohmann10basic_jsonISt3mapSt6vectorNSt7__cxx1112basic_stringIcSt11char_traitsIcESaIcEEEblmdSaNS_14adl_serializerEEC2IRA14_KcA14_cTnNSt9enable_ifIXaaaaaantsr3std10is_base_ofISiT0_EE5valuentsr3std7is_sameISH_SA_EE5valuentsr6detail25is_basic_json_nested_typeISA_SH_EE5valuesr6detail11has_to_jsonISA_SH_EE5valueEiE4typeELi0EEEOT_ = comdat any

$_ZN8nlohmann10basic_jsonISt3mapSt6vectorNSt7__cxx1112basic_stringIcSt11char_traitsIcESaIcEEEblmdSaNS_14adl_serializerEEC2IRKPKcSD_TnNSt9enable_ifIXaaaaaantsr3std10is_base_ofISiT0_EE5valuentsr3std7is_sameISH_SA_EE5valuentsr6detail25is_basic_json_nested_typeISA_SH_EE5valuesr6detail11has_to_jsonISA_SH_EE5valueEiE4typeELi0EEEOT_ = comdat any

$_ZN8nlohmann10basic_jsonISt3mapSt6vectorNSt7__cxx1112basic_stringIcSt11char_traitsIcESaIcEEEblmdSaNS_14adl_serializerEEC2IRA9_KcA9_cTnNSt9enable_ifIXaaaaaantsr3std10is_base_ofISiT0_EE5valuentsr3std7is_sameISH_SA_EE5valuentsr6detail25is_basic_json_nested_typeISA_SH_EE5valuesr6detail11has_to_jsonISA_SH_EE5valueEiE4typeELi0EEEOT_ = comdat any

$_ZN8nlohmann10basic_jsonISt3mapSt6vectorNSt7__cxx1112basic_stringIcSt11char_traitsIcESaIcEEEblmdSaNS_14adl_serializerEEC2IRA12_KcA12_cTnNSt9enable_ifIXaaaaaantsr3std10is_base_ofISiT0_EE5valuentsr3std7is_sameISH_SA_EE5valuentsr6detail25is_basic_json_nested_typeISA_SH_EE5valuesr6detail11has_to_jsonISA_SH_EE5valueEiE4typeELi0EEEOT_ = comdat any

$_ZN8nlohmann10basic_jsonISt3mapSt6vectorNSt7__cxx1112basic_stringIcSt11char_traitsIcESaIcEEEblmdSaNS_14adl_serializerEEC2IRA4_KcA4_cTnNSt9enable_ifIXaaaaaantsr3std10is_base_ofISiT0_EE5valuentsr3std7is_sameISH_SA_EE5valuentsr6detail25is_basic_json_nested_typeISA_SH_EE5valuesr6detail11has_to_jsonISA_SH_EE5valueEiE4typeELi0EEEOT_ = comdat any

$_ZN8nlohmann10basic_jsonISt3mapSt6vectorNSt7__cxx1112basic_stringIcSt11char_traitsIcESaIcEEEblmdSaNS_14adl_serializerEEC2IRA10_KcA10_cTnNSt9enable_ifIXaaaaaantsr3std10is_base_ofISiT0_EE5valuentsr3std7is_sameISH_SA_EE5valuentsr6detail25is_basic_json_nested_typeISA_SH_EE5valuesr6detail11has_to_jsonISA_SH_EE5valueEiE4typeELi0EEEOT_ = comdat any

$_ZN8nlohmann10basic_jsonISt3mapSt6vectorNSt7__cxx1112basic_stringIcSt11char_traitsIcESaIcEEEblmdSaNS_14adl_serializerEE6objectESt16initializer_listISA_E = comdat any

$_ZNK5clang20CodeCompletionString15getBriefCommentEv = comdat any

$_ZN8nlohmann14adl_serializerIA2_cvE7to_jsonINS_10basic_jsonISt3mapSt6vectorNSt7__cxx1112basic_stringIcSt11char_traitsIcESaIcEEEblmdSaS0_EERA2_KcEEvRT_OT0_ = comdat any

$_ZNK8nlohmann6detail10to_json_fnclINS_10basic_jsonISt3mapSt6vectorNSt7__cxx1112basic_stringIcSt11char_traitsIcESaIcEEEblmdSaNS_14adl_serializerEEERA2_KcEEvRT_OT0_ = comdat any

$_ZNK8nlohmann6detail10to_json_fn4callINS_10basic_jsonISt3mapSt6vectorNSt7__cxx1112basic_stringIcSt11char_traitsIcESaIcEEEblmdSaNS_14adl_serializerEEERA2_KcEEDTcmcl7to_jsonfp_clsr3stdE7forwardIT0_Efp0_EEcvv_EERT_OSH_NS0_12priority_tagILj1EEE = comdat any

$_ZN8nlohmann6detail7to_jsonINS_10basic_jsonISt3mapSt6vectorNSt7__cxx1112basic_stringIcSt11char_traitsIcESaIcEEEblmdSaNS_14adl_serializerEEEA2_cTnNSt9enable_ifIXsr3std16is_constructibleINT_8string_tET0_EE5valueEiE4typeELi0EEEvRSF_RKSH_ = comdat any

$_ZN8nlohmann14adl_serializerIA14_cvE7to_jsonINS_10basic_jsonISt3mapSt6vectorNSt7__cxx1112basic_stringIcSt11char_traitsIcESaIcEEEblmdSaS0_EERA14_KcEEvRT_OT0_ = comdat any

$_ZNK8nlohmann6detail10to_json_fnclINS_10basic_jsonISt3mapSt6vectorNSt7__cxx1112basic_stringIcSt11char_traitsIcESaIcEEEblmdSaNS_14adl_serializerEEERA14_KcEEvRT_OT0_ = comdat any

$_ZNK8nlohmann6detail10to_json_fn4callINS_10basic_jsonISt3mapSt6vectorNSt7__cxx1112basic_stringIcSt11char_traitsIcESaIcEEEblmdSaNS_14adl_serializerEEERA14_KcEEDTcmcl7to_jsonfp_clsr3stdE7forwardIT0_Efp0_EEcvv_EERT_OSH_NS0_12priority_tagILj1EEE = comdat any

$_ZN8nlohmann6detail7to_jsonINS_10basic_jsonISt3mapSt6vectorNSt7__cxx1112basic_stringIcSt11char_traitsIcESaIcEEEblmdSaNS_14adl_serializerEEEA14_cTnNSt9enable_ifIXsr3std16is_constructibleINT_8string_tET0_EE5valueEiE4typeELi0EEEvRSF_RKSH_ = comdat any

$_ZN8nlohmann14adl_serializerIPKcvE7to_jsonINS_10basic_jsonISt3mapSt6vectorNSt7__cxx1112basic_stringIcSt11char_traitsIcESaIcEEEblmdSaS0_EERKS2_EEvRT_OT0_ = comdat any

$_ZNK8nlohmann6detail10to_json_fnclINS_10basic_jsonISt3mapSt6vectorNSt7__cxx1112basic_stringIcSt11char_traitsIcESaIcEEEblmdSaNS_14adl_serializerEEERKPKcEEvRT_OT0_ = comdat any

$_ZNK8nlohmann6detail10to_json_fn4callINS_10basic_jsonISt3mapSt6vectorNSt7__cxx1112basic_stringIcSt11char_traitsIcESaIcEEEblmdSaNS_14adl_serializerEEERKPKcEEDTcmcl7to_jsonfp_clsr3stdE7forwardIT0_Efp0_EEcvv_EERT_OSI_NS0_12priority_tagILj1EEE = comdat any

$_ZN8nlohmann6detail7to_jsonINS_10basic_jsonISt3mapSt6vectorNSt7__cxx1112basic_stringIcSt11char_traitsIcESaIcEEEblmdSaNS_14adl_serializerEEEPKcTnNSt9enable_ifIXsr3std16is_constructibleINT_8string_tET0_EE5valueEiE4typeELi0EEEvRSG_RKSI_ = comdat any

$_ZN8nlohmann14adl_serializerIA9_cvE7to_jsonINS_10basic_jsonISt3mapSt6vectorNSt7__cxx1112basic_stringIcSt11char_traitsIcESaIcEEEblmdSaS0_EERA9_KcEEvRT_OT0_ = comdat any

$_ZNK8nlohmann6detail10to_json_fnclINS_10basic_jsonISt3mapSt6vectorNSt7__cxx1112basic_stringIcSt11char_traitsIcESaIcEEEblmdSaNS_14adl_serializerEEERA9_KcEEvRT_OT0_ = comdat any

$_ZNK8nlohmann6detail10to_json_fn4callINS_10basic_jsonISt3mapSt6vectorNSt7__cxx1112basic_stringIcSt11char_traitsIcESaIcEEEblmdSaNS_14adl_serializerEEERA9_KcEEDTcmcl7to_jsonfp_clsr3stdE7forwardIT0_Efp0_EEcvv_EERT_OSH_NS0_12priority_tagILj1EEE = comdat any

$_ZN8nlohmann6detail7to_jsonINS_10basic_jsonISt3mapSt6vectorNSt7__cxx1112basic_stringIcSt11char_traitsIcESaIcEEEblmdSaNS_14adl_serializerEEEA9_cTnNSt9enable_ifIXsr3std16is_constructibleINT_8string_tET0_EE5valueEiE4typeELi0EEEvRSF_RKSH_ = comdat any

$_ZN8nlohmann14adl_serializerIA12_cvE7to_jsonINS_10basic_jsonISt3mapSt6vectorNSt7__cxx1112basic_stringIcSt11char_traitsIcESaIcEEEblmdSaS0_EERA12_KcEEvRT_OT0_ = comdat any

$_ZNK8nlohmann6detail10to_json_fnclINS_10basic_jsonISt3mapSt6vectorNSt7__cxx1112basic_stringIcSt11char_traitsIcESaIcEEEblmdSaNS_14adl_serializerEEERA12_KcEEvRT_OT0_ = comdat any

$_ZNK8nlohmann6detail10to_json_fn4callINS_10basic_jsonISt3mapSt6vectorNSt7__cxx1112basic_stringIcSt11char_traitsIcESaIcEEEblmdSaNS_14adl_serializerEEERA12_KcEEDTcmcl7to_jsonfp_clsr3stdE7forwardIT0_Efp0_EEcvv_EERT_OSH_NS0_12priority_tagILj1EEE = comdat any

$_ZN8nlohmann6detail7to_jsonINS_10basic_jsonISt3mapSt6vectorNSt7__cxx1112basic_stringIcSt11char_traitsIcESaIcEEEblmdSaNS_14adl_serializerEEEA12_cTnNSt9enable_ifIXsr3std16is_constructibleINT_8string_tET0_EE5valueEiE4typeELi0EEEvRSF_RKSH_ = comdat any

$_ZN8nlohmann14adl_serializerIA4_cvE7to_jsonINS_10basic_jsonISt3mapSt6vectorNSt7__cxx1112basic_stringIcSt11char_traitsIcESaIcEEEblmdSaS0_EERA4_KcEEvRT_OT0_ = comdat any

$_ZNK8nlohmann6detail10to_json_fnclINS_10basic_jsonISt3mapSt6vectorNSt7__cxx1112basic_stringIcSt11char_traitsIcESaIcEEEblmdSaNS_14adl_serializerEEERA4_KcEEvRT_OT0_ = comdat any

$_ZNK8nlohmann6detail10to_json_fn4callINS_10basic_jsonISt3mapSt6vectorNSt7__cxx1112basic_stringIcSt11char_traitsIcESaIcEEEblmdSaNS_14adl_serializerEEERA4_KcEEDTcmcl7to_jsonfp_clsr3stdE7forwardIT0_Efp0_EEcvv_EERT_OSH_NS0_12priority_tagILj1EEE = comdat any

$_ZN8nlohmann6detail7to_jsonINS_10basic_jsonISt3mapSt6vectorNSt7__cxx1112basic_stringIcSt11char_traitsIcESaIcEEEblmdSaNS_14adl_serializerEEEA4_cTnNSt9enable_ifIXsr3std16is_constructibleINT_8string_tET0_EE5valueEiE4typeELi0EEEvRSF_RKSH_ = comdat any

$_ZN8nlohmann14adl_serializerIA10_cvE7to_jsonINS_10basic_jsonISt3mapSt6vectorNSt7__cxx1112basic_stringIcSt11char_traitsIcESaIcEEEblmdSaS0_EERA10_KcEEvRT_OT0_ = comdat any

$_ZNK8nlohmann6detail10to_json_fnclINS_10basic_jsonISt3mapSt6vectorNSt7__cxx1112basic_stringIcSt11char_traitsIcESaIcEEEblmdSaNS_14adl_serializerEEERA10_KcEEvRT_OT0_ = comdat any

$_ZNK8nlohmann6detail10to_json_fn4callINS_10basic_jsonISt3mapSt6vectorNSt7__cxx1112basic_stringIcSt11char_traitsIcESaIcEEEblmdSaNS_14adl_serializerEEERA10_KcEEDTcmcl7to_jsonfp_clsr3stdE7forwardIT0_Efp0_EEcvv_EERT_OSH_NS0_12priority_tagILj1EEE = comdat any

$_ZN8nlohmann6detail7to_jsonINS_10basic_jsonISt3mapSt6vectorNSt7__cxx1112basic_stringIcSt11char_traitsIcESaIcEEEblmdSaNS_14adl_serializerEEEA10_cTnNSt9enable_ifIXsr3std16is_constructibleINT_8string_tET0_EE5valueEiE4typeELi0EEEvRSF_RKSH_ = comdat any

$_ZNK5clang11PresumedLoc7isValidEv = comdat any

$_ZNSt7__cxx1112basic_stringIcSt11char_traitsIcESaIcEE5clearEv = comdat any

$_ZN8nlohmann14adl_serializerIPKcvE7to_jsonINS_10basic_jsonISt3mapSt6vectorNSt7__cxx1112basic_stringIcSt11char_traitsIcESaIcEEEblmdSaS0_EES2_EEvRT_OT0_ = comdat any

$_ZNK8nlohmann6detail10to_json_fnclINS_10basic_jsonISt3mapSt6vectorNSt7__cxx1112basic_stringIcSt11char_traitsIcESaIcEEEblmdSaNS_14adl_serializerEEEPKcEEvRT_OT0_ = comdat any

$_ZNK8nlohmann6detail10to_json_fn4callINS_10basic_jsonISt3mapSt6vectorNSt7__cxx1112basic_stringIcSt11char_traitsIcESaIcEEEblmdSaNS_14adl_serializerEEEPKcEEDTcmcl7to_jsonfp_clsr3stdE7forwardIT0_Efp0_EEcvv_EERT_OSG_NS0_12priority_tagILj1EEE = comdat any

$_ZNK8nlohmann10basic_jsonISt3mapSt6vectorNSt7__cxx1112basic_stringIcSt11char_traitsIcESaIcEEEblmdSaNS_14adl_serializerEE9is_objectEv = comdat any

$_ZNSt3mapINSt7__cxx1112basic_stringIcSt11char_traitsIcESaIcEEEN8nlohmann10basic_jsonIS_St6vectorS5_blmdSaNS6_14adl_serializerEEESt4lessIS5_ESaISt4pairIKS5_SA_EEEixEOS5_ = comdat any

$_ZNSt8_Rb_treeINSt7__cxx1112basic_stringIcSt11char_traitsIcESaIcEEESt4pairIKS5_N8nlohmann10basic_jsonISt3mapSt6vectorS5_blmdSaNS8_14adl_serializerEEEESt10_Select1stISE_ESt4lessIS5_ESaISE_EE22_M_emplace_hint_uniqueIJRKSt21piecewise_construct_tSt5tupleIJOS5_EESP_IJEEEEESt17_Rb_tree_iteratorISE_ESt23_Rb_tree_const_iteratorISE_EDpOT_ = comdat any

$_ZSt16forward_as_tupleIJNSt7__cxx1112basic_stringIcSt11char_traitsIcESaIcEEEEESt5tupleIJDpOT_EES9_ = comdat any

$_ZNSt8_Rb_treeINSt7__cxx1112basic_stringIcSt11char_traitsIcESaIcEEESt4pairIKS5_N8nlohmann10basic_jsonISt3mapSt6vectorS5_blmdSaNS8_14adl_serializerEEEESt10_Select1stISE_ESt4lessIS5_ESaISE_EE10_Auto_nodeC2IJRKSt21piecewise_construct_tSt5tupleIJOS5_EESQ_IJEEEEERSK_DpOT_ = comdat any

$_ZNSt8_Rb_treeINSt7__cxx1112basic_stringIcSt11char_traitsIcESaIcEEESt4pairIKS5_N8nlohmann10basic_jsonISt3mapSt6vectorS5_blmdSaNS8_14adl_serializerEEEESt10_Select1stISE_ESt4lessIS5_ESaISE_EE14_M_create_nodeIJRKSt21piecewise_construct_tSt5tupleIJOS5_EESP_IJEEEEEPSt13_Rb_tree_nodeISE_EDpOT_ = comdat any

$_ZNSt8_Rb_treeINSt7__cxx1112basic_stringIcSt11char_traitsIcESaIcEEESt4pairIKS5_N8nlohmann10basic_jsonISt3mapSt6vectorS5_blmdSaNS8_14adl_serializerEEEESt10_Select1stISE_ESt4lessIS5_ESaISE_EE17_M_construct_nodeIJRKSt21piecewise_construct_tSt5tupleIJOS5_EESP_IJEEEEEvPSt13_Rb_tree_nodeISE_EDpOT_ = comdat any

$_ZNSt5tupleIJONSt7__cxx1112basic_stringIcSt11char_traitsIcESaIcEEEEEC2EOS7_ = comdat any

$_ZNSt4pairIKNSt7__cxx1112basic_stringIcSt11char_traitsIcESaIcEEEN8nlohmann10basic_jsonISt3mapSt6vectorS5_blmdSaNS7_14adl_serializerEEEEC2IJOS5_EJEEESt21piecewise_construct_tSt5tupleIJDpT_EESH_IJDpT0_EE = comdat any

$_ZNSt11_Tuple_implILm0EJONSt7__cxx1112basic_stringIcSt11char_traitsIcESaIcEEEEEC2EOS7_ = comdat any

$_ZNSt4pairIKNSt7__cxx1112basic_stringIcSt11char_traitsIcESaIcEEEN8nlohmann10basic_jsonISt3mapSt6vectorS5_blmdSaNS7_14adl_serializerEEEEC2IJOS5_EJLm0EEJETpTnmJEEERSt5tupleIJDpT_EERSG_IJDpT1_EESt12_Index_tupleIJXspT0_EEESP_IJXspT2_EEE = comdat any

$_ZSt3getILm0EJONSt7__cxx1112basic_stringIcSt11char_traitsIcESaIcEEEEERNSt13tuple_elementIXT_ESt5tupleIJDpT0_EEE4typeERSB_ = comdat any

$_ZN8nlohmann10basic_jsonISt3mapSt6vectorNSt7__cxx1112basic_stringIcSt11char_traitsIcESaIcEEEblmdSaNS_14adl_serializerEEC2EDn = comdat any

$_ZSt12__get_helperILm0EONSt7__cxx1112basic_stringIcSt11char_traitsIcESaIcEEEJEERT0_RSt11_Tuple_implIXT_EJS7_DpT1_EE = comdat any

$_ZNSt11_Tuple_implILm0EJONSt7__cxx1112basic_stringIcSt11char_traitsIcESaIcEEEEE7_M_headERS7_ = comdat any

$_ZNSt10_Head_baseILm0EONSt7__cxx1112basic_stringIcSt11char_traitsIcESaIcEEELb0EE7_M_headERS7_ = comdat any

$_ZN8nlohmann10basic_jsonISt3mapSt6vectorNSt7__cxx1112basic_stringIcSt11char_traitsIcESaIcEEEblmdSaNS_14adl_serializerEEC2ENS_6detail7value_tE = comdat any

$_ZNSt5tupleIJONSt7__cxx1112basic_stringIcSt11char_traitsIcESaIcEEEEEC2IJS5_ELb1ETnNSt9enable_ifIXclsr4_TCCIXT0_EEE29__is_implicitly_constructibleIDpT_EEEbE4typeELb1EEEDpOSA_ = comdat any

$_ZNSt11_Tuple_implILm0EJONSt7__cxx1112basic_stringIcSt11char_traitsIcESaIcEEEEEC2IS5_EEOT_ = comdat any

$_ZNSt10_Head_baseILm0EONSt7__cxx1112basic_stringIcSt11char_traitsIcESaIcEEELb0EEC2IS5_EEOT_ = comdat any

$_ZSt4swapIN8nlohmann6detail7value_tEENSt9enable_ifIXsr6__and_ISt6__not_ISt15__is_tuple_likeIT_EESt21is_move_constructibleIS6_ESt18is_move_assignableIS6_EEE5valueEvE4typeERS6_SF_ = comdat any

$_ZSt4swapIN8nlohmann10basic_jsonISt3mapSt6vectorNSt7__cxx1112basic_stringIcSt11char_traitsIcESaIcEEEblmdSaNS0_14adl_serializerEE10json_valueEENSt9enable_ifIXsr6__and_ISt6__not_ISt15__is_tuple_likeIT_EESt21is_move_constructibleISG_ESt18is_move_assignableISG_EEE5valueEvE4typeERSG_SP_ = comdat any

$_ZN4llvm6detail9isPresentIPKN5clang9NamedDeclEEEbRKT_ = comdat any

$_ZN4llvm8CastInfoIN5clang12FunctionDeclEPKNS1_9NamedDeclEvE16doCastIfPossibleERKS5_ = comdat any

$_ZN4llvm14ValueIsPresentIPKN5clang9NamedDeclEvE9isPresentERKS4_ = comdat any

$_ZN4llvm13simplify_typeIPKN5clang9NamedDeclEE18getSimplifiedValueERS4_ = comdat any

$_ZN4llvm14CastIsPossibleIN5clang12FunctionDeclEPKNS1_9NamedDeclEvE10isPossibleERKS5_ = comdat any

$_ZN4llvm8CastInfoIN5clang12FunctionDeclEPKNS1_9NamedDeclEvE10castFailedEv = comdat any

$_ZN4llvm8CastInfoIN5clang12FunctionDeclEPKNS1_9NamedDeclEvE6doCastERKS5_ = comdat any

$_ZN4llvm13isa_impl_wrapIN5clang12FunctionDeclEKPKNS1_9NamedDeclES5_E4doitERS6_ = comdat any

$_ZN4llvm13isa_impl_wrapIN5clang12FunctionDeclEPKNS1_9NamedDeclES5_E4doitERKS5_ = comdat any

$_ZN4llvm13simplify_typeIKPKN5clang9NamedDeclEE18getSimplifiedValueERS5_ = comdat any

$_ZN4llvm11isa_impl_clIN5clang12FunctionDeclEPKNS1_9NamedDeclEE4doitES5_ = comdat any

$_ZN4llvm8isa_implIN5clang12FunctionDeclENS1_9NamedDeclEvE4doitERKS3_ = comdat any

$_ZN5clang12FunctionDecl7classofEPKNS_4DeclE = comdat any

$_ZN5clang12FunctionDecl11classofKindENS_4Decl4KindE = comdat any

$_ZNK5clang4Decl7getKindEv = comdat any

$_ZN4llvm16cast_convert_valIN5clang12FunctionDeclEPKNS1_9NamedDeclES5_E4doitES5_ = comdat any

$_ZN4llvm8ArrayRefIPN5clang11ParmVarDeclEEC2EPKS3_m = comdat any

$_ZN8nlohmann14adl_serializerIA5_cvE7to_jsonINS_10basic_jsonISt3mapSt6vectorNSt7__cxx1112basic_stringIcSt11char_traitsIcESaIcEEEblmdSaS0_EERA5_KcEEvRT_OT0_ = comdat any

$_ZNK8nlohmann6detail10to_json_fnclINS_10basic_jsonISt3mapSt6vectorNSt7__cxx1112basic_stringIcSt11char_traitsIcESaIcEEEblmdSaNS_14adl_serializerEEERA5_KcEEvRT_OT0_ = comdat any

$_ZNK8nlohmann6detail10to_json_fn4callINS_10basic_jsonISt3mapSt6vectorNSt7__cxx1112basic_stringIcSt11char_traitsIcESaIcEEEblmdSaNS_14adl_serializerEEERA5_KcEEDTcmcl7to_jsonfp_clsr3stdE7forwardIT0_Efp0_EEcvv_EERT_OSH_NS0_12priority_tagILj1EEE = comdat any

$_ZN8nlohmann6detail7to_jsonINS_10basic_jsonISt3mapSt6vectorNSt7__cxx1112basic_stringIcSt11char_traitsIcESaIcEEEblmdSaNS_14adl_serializerEEEA5_cTnNSt9enable_ifIXsr3std16is_constructibleINT_8string_tET0_EE5valueEiE4typeELi0EEEvRSF_RKSH_ = comdat any

$_ZN8nlohmann14adl_serializerINSt7__cxx1112basic_stringIcSt11char_traitsIcESaIcEEEvE7to_jsonINS_10basic_jsonISt3mapSt6vectorS6_blmdSaS0_EES6_EEvRT_OT0_ = comdat any

$_ZNK8nlohmann6detail10to_json_fnclINS_10basic_jsonISt3mapSt6vectorNSt7__cxx1112basic_stringIcSt11char_traitsIcESaIcEEEblmdSaNS_14adl_serializerEEESB_EEvRT_OT0_ = comdat any

$_ZNK8nlohmann6detail10to_json_fn4callINS_10basic_jsonISt3mapSt6vectorNSt7__cxx1112basic_stringIcSt11char_traitsIcESaIcEEEblmdSaNS_14adl_serializerEEESB_EEDTcmcl7to_jsonfp_clsr3stdE7forwardIT0_Efp0_EEcvv_EERT_OSE_NS0_12priority_tagILj1EEE = comdat any

$_ZN8nlohmann6detail7to_jsonINS_10basic_jsonISt3mapSt6vectorNSt7__cxx1112basic_stringIcSt11char_traitsIcESaIcEEEblmdSaNS_14adl_serializerEEESA_TnNSt9enable_ifIXsr3std16is_constructibleINT_8string_tET0_EE5valueEiE4typeELi0EEEvRSE_RKSG_ = comdat any

$_ZN8nlohmann14adl_serializerIA8_cvE7to_jsonINS_10basic_jsonISt3mapSt6vectorNSt7__cxx1112basic_stringIcSt11char_traitsIcESaIcEEEblmdSaS0_EERA8_KcEEvRT_OT0_ = comdat any

$_ZNK8nlohmann6detail10to_json_fnclINS_10basic_jsonISt3mapSt6vectorNSt7__cxx1112basic_stringIcSt11char_traitsIcESaIcEEEblmdSaNS_14adl_serializerEEERA8_KcEEvRT_OT0_ = comdat any

$_ZNK8nlohmann6detail10to_json_fn4callINS_10basic_jsonISt3mapSt6vectorNSt7__cxx1112basic_stringIcSt11char_traitsIcESaIcEEEblmdSaNS_14adl_serializerEEERA8_KcEEDTcmcl7to_jsonfp_clsr3stdE7forwardIT0_Efp0_EEcvv_EERT_OSH_NS0_12priority_tagILj1EEE = comdat any

$_ZN8nlohmann6detail7to_jsonINS_10basic_jsonISt3mapSt6vectorNSt7__cxx1112basic_stringIcSt11char_traitsIcESaIcEEEblmdSaNS_14adl_serializerEEEA8_cTnNSt9enable_ifIXsr3std16is_constructibleINT_8string_tET0_EE5valueEiE4typeELi0EEEvRSF_RKSH_ = comdat any

$_ZN8nlohmann14adl_serializerIA6_cvE7to_jsonINS_10basic_jsonISt3mapSt6vectorNSt7__cxx1112basic_stringIcSt11char_traitsIcESaIcEEEblmdSaS0_EERA6_KcEEvRT_OT0_ = comdat any

$_ZNK8nlohmann6detail10to_json_fnclINS_10basic_jsonISt3mapSt6vectorNSt7__cxx1112basic_stringIcSt11char_traitsIcESaIcEEEblmdSaNS_14adl_serializerEEERA6_KcEEvRT_OT0_ = comdat any

$_ZNK8nlohmann6detail10to_json_fn4callINS_10basic_jsonISt3mapSt6vectorNSt7__cxx1112basic_stringIcSt11char_traitsIcESaIcEEEblmdSaNS_14adl_serializerEEERA6_KcEEDTcmcl7to_jsonfp_clsr3stdE7forwardIT0_Efp0_EEcvv_EERT_OSH_NS0_12priority_tagILj1EEE = comdat any

$_ZN8nlohmann6detail7to_jsonINS_10basic_jsonISt3mapSt6vectorNSt7__cxx1112basic_stringIcSt11char_traitsIcESaIcEEEblmdSaNS_14adl_serializerEEEA6_cTnNSt9enable_ifIXsr3std16is_constructibleINT_8string_tET0_EE5valueEiE4typeELi0EEEvRSF_RKSH_ = comdat any

$_ZNK5clang20CodeCompletionTUInfo12getAllocatorEv = comdat any

$_ZNKSt12__shared_ptrIN5clang29GlobalCodeCompletionAllocatorELN9__gnu_cxx12_Lock_policyE2EEcvbEv = comdat any

$_ZNKSt19__shared_ptr_accessIN5clang29GlobalCodeCompletionAllocatorELN9__gnu_cxx12_Lock_policyE2ELb0ELb0EEdeEv = comdat any

$_ZNKSt19__shared_ptr_accessIN5clang29GlobalCodeCompletionAllocatorELN9__gnu_cxx12_Lock_policyE2ELb0ELb0EE6_M_getEv = comdat any

$_ZNKSt12__shared_ptrIN5clang29GlobalCodeCompletionAllocatorELN9__gnu_cxx12_Lock_policyE2EE3getEv = comdat any

$_ZN5clang18CompilerInvocation15getFrontendOptsEv = comdat any

$_ZNKSt19__shared_ptr_accessIN5clang15FrontendOptionsELN9__gnu_cxx12_Lock_policyE2ELb0ELb0EEdeEv = comdat any

$_ZNKSt19__shared_ptr_accessIN5clang15FrontendOptionsELN9__gnu_cxx12_Lock_policyE2ELb0ELb0EE6_M_getEv = comdat any

$_ZNKSt12__shared_ptrIN5clang15FrontendOptionsELN9__gnu_cxx12_Lock_policyE2EE3getEv = comdat any

$_ZNK4llvm9StringRef3strB5cxx11Ev = comdat any

$_ZNSt8optionalIN4llvm15MemoryBufferRefEEC2Ev = comdat any

$_ZNK4llvm9StringRef4dataEv = comdat any

$_ZNK4llvm9StringRef4sizeEv = comdat any

$_ZNSt7__cxx1112basic_stringIcSt11char_traitsIcESaIcEEC2EPKcmRKS3_ = comdat any

$_ZNSt7__cxx1112basic_stringIcSt11char_traitsIcESaIcEE12_Alloc_hiderC2EPcRKS3_ = comdat any

$_ZNSt7__cxx1112basic_stringIcSt11char_traitsIcESaIcEE12_M_constructIPKcEEvT_S8_St20forward_iterator_tag = comdat any

$_ZZNSt7__cxx1112basic_stringIcSt11char_traitsIcESaIcEE12_M_constructIPKcEEvT_S8_St20forward_iterator_tagEN6_GuardC2EPS4_ = comdat any

$_ZNSt7__cxx1112basic_stringIcSt11char_traitsIcESaIcEE13_S_copy_charsIPKcEEvPcT_S9_ = comdat any

$_ZZNSt7__cxx1112basic_stringIcSt11char_traitsIcESaIcEE12_M_constructIPKcEEvT_S8_St20forward_iterator_tagEN6_GuardD2Ev = comdat any

$_ZNSt14_Optional_baseIN4llvm15MemoryBufferRefELb1ELb1EEC2Ev = comdat any

$_ZNSt17_Optional_payloadIN4llvm15MemoryBufferRefELb1ELb1ELb1EEC2Ev = comdat any

$_ZNSt22_Optional_payload_baseIN4llvm15MemoryBufferRefEEC2Ev = comdat any

$_ZNSt22_Optional_payload_baseIN4llvm15MemoryBufferRefEE8_StorageIS1_Lb1EEC2Ev = comdat any

$_ZN5clang18CompilerInvocation19getPreprocessorOptsEv = comdat any

$_ZNKSt19__shared_ptr_accessIN5clang19PreprocessorOptionsELN9__gnu_cxx12_Lock_policyE2ELb0ELb0EEdeEv = comdat any

$_ZNKSt19__shared_ptr_accessIN5clang19PreprocessorOptionsELN9__gnu_cxx12_Lock_policyE2ELb0ELb0EE6_M_getEv = comdat any

$_ZNKSt12__shared_ptrIN5clang19PreprocessorOptionsELN9__gnu_cxx12_Lock_policyE2EE3getEv = comdat any

$_ZNSt6vectorISt4pairINSt7__cxx1112basic_stringIcSt11char_traitsIcESaIcEEES6_ESaIS7_EE5clearEv = comdat any

$_ZNSt6vectorISt4pairINSt7__cxx1112basic_stringIcSt11char_traitsIcESaIcEEEPN4llvm12MemoryBufferEESaISA_EE5clearEv = comdat any

$_ZNSt6vectorISt4pairINSt7__cxx1112basic_stringIcSt11char_traitsIcESaIcEEES6_ESaIS7_EE15_M_erase_at_endEPS7_ = comdat any

$_ZNSt12_Vector_baseISt4pairINSt7__cxx1112basic_stringIcSt11char_traitsIcESaIcEEES6_ESaIS7_EE19_M_get_Tp_allocatorEv = comdat any

$_ZSt8_DestroyIPSt4pairINSt7__cxx1112basic_stringIcSt11char_traitsIcESaIcEEES6_EEvT_S9_ = comdat any

$_ZSt8_DestroyISt4pairINSt7__cxx1112basic_stringIcSt11char_traitsIcESaIcEEES6_EEvPT_ = comdat any

$_ZNSt4pairINSt7__cxx1112basic_stringIcSt11char_traitsIcESaIcEEES5_ED2Ev = comdat any

$_ZNSt6vectorISt4pairINSt7__cxx1112basic_stringIcSt11char_traitsIcESaIcEEEPN4llvm12MemoryBufferEESaISA_EE15_M_erase_at_endEPSA_ = comdat any

$_ZNSt12_Vector_baseISt4pairINSt7__cxx1112basic_stringIcSt11char_traitsIcESaIcEEEPN4llvm12MemoryBufferEESaISA_EE19_M_get_Tp_allocatorEv = comdat any

$_ZSt8_DestroyIPSt4pairINSt7__cxx1112basic_stringIcSt11char_traitsIcESaIcEEEPN4llvm12MemoryBufferEEEvT_SC_ = comdat any

$_ZSt8_DestroyISt4pairINSt7__cxx1112basic_stringIcSt11char_traitsIcESaIcEEEPN4llvm12MemoryBufferEEEvPT_ = comdat any

$_ZNSt4pairINSt7__cxx1112basic_stringIcSt11char_traitsIcESaIcEEEPN4llvm12MemoryBufferEED2Ev = comdat any

$_ZNSt6vectorISt4pairINSt7__cxx1112basic_stringIcSt11char_traitsIcESaIcEEEPN4llvm12MemoryBufferEESaISA_EE12emplace_backIJS6_RS9_EEERSA_DpOT_ = comdat any

$_ZNSt7__cxx1112basic_stringIcSt11char_traitsIcESaIcEEC2IN4llvm9StringRefEvEERKT_RKS3_ = comdat any

$_ZNSt6vectorISt4pairINSt7__cxx1112basic_stringIcSt11char_traitsIcESaIcEEEPN4llvm12MemoryBufferEESaISA_EE17_M_realloc_appendIJS6_RS9_EEEvDpOT_ = comdat any

$_ZNSt6vectorISt4pairINSt7__cxx1112basic_stringIcSt11char_traitsIcESaIcEEEPN4llvm12MemoryBufferEESaISA_EE4backEv = comdat any

$_ZNSt4pairINSt7__cxx1112basic_stringIcSt11char_traitsIcESaIcEEEPN4llvm12MemoryBufferEEC2IS5_RS8_TnNSt9enable_ifIXaaclsr5_PCCPE22_MoveConstructiblePairIT_T0_EEclsr5_PCCPE30_ImplicitlyMoveConvertiblePairISD_SE_EEEbE4typeELb1EEEOSD_OSE_ = comdat any

$_ZNKSt6vectorISt4pairINSt7__cxx1112basic_stringIcSt11char_traitsIcESaIcEEEPN4llvm12MemoryBufferEESaISA_EE12_M_check_lenEmPKc = comdat any

$_ZNSt6vectorISt4pairINSt7__cxx1112basic_stringIcSt11char_traitsIcESaIcEEEPN4llvm12MemoryBufferEESaISA_EE3endEv = comdat any

$_ZNSt6vectorISt4pairINSt7__cxx1112basic_stringIcSt11char_traitsIcESaIcEEEPN4llvm12MemoryBufferEESaISA_EE5beginEv = comdat any

$_ZNSt12_Vector_baseISt4pairINSt7__cxx1112basic_stringIcSt11char_traitsIcESaIcEEEPN4llvm12MemoryBufferEESaISA_EE11_M_allocateEm = comdat any

$_ZNSt6vectorISt4pairINSt7__cxx1112basic_stringIcSt11char_traitsIcESaIcEEEPN4llvm12MemoryBufferEESaISA_EE12_Guard_allocC2EPSA_mRSt12_Vector_baseISA_SB_E = comdat any

$_ZNSt6vectorISt4pairINSt7__cxx1112basic_stringIcSt11char_traitsIcESaIcEEEPN4llvm12MemoryBufferEESaISA_EE11_S_relocateEPSA_SD_SD_RSB_ = comdat any

$_ZNSt6vectorISt4pairINSt7__cxx1112basic_stringIcSt11char_traitsIcESaIcEEEPN4llvm12MemoryBufferEESaISA_EE12_Guard_allocD2Ev = comdat any

$_ZNKSt6vectorISt4pairINSt7__cxx1112basic_stringIcSt11char_traitsIcESaIcEEEPN4llvm12MemoryBufferEESaISA_EE8max_sizeEv = comdat any

$_ZNKSt6vectorISt4pairINSt7__cxx1112basic_stringIcSt11char_traitsIcESaIcEEEPN4llvm12MemoryBufferEESaISA_EE4sizeEv = comdat any

$_ZNSt6vectorISt4pairINSt7__cxx1112basic_stringIcSt11char_traitsIcESaIcEEEPN4llvm12MemoryBufferEESaISA_EE11_S_max_sizeERKSB_ = comdat any

$_ZNKSt12_Vector_baseISt4pairINSt7__cxx1112basic_stringIcSt11char_traitsIcESaIcEEEPN4llvm12MemoryBufferEESaISA_EE19_M_get_Tp_allocatorEv = comdat any

$_ZNSt15__new_allocatorISt4pairINSt7__cxx1112basic_stringIcSt11char_traitsIcESaIcEEEPN4llvm12MemoryBufferEEE8allocateEmPKv = comdat any

$_ZSt12__relocate_aIPSt4pairINSt7__cxx1112basic_stringIcSt11char_traitsIcESaIcEEEPN4llvm12MemoryBufferEESB_SaISA_EET0_T_SE_SD_RT1_ = comdat any

$_ZSt14__relocate_a_1IPSt4pairINSt7__cxx1112basic_stringIcSt11char_traitsIcESaIcEEEPN4llvm12MemoryBufferEESB_SaISA_EET0_T_SE_SD_RT1_ = comdat any

$_ZSt19__relocate_object_aISt4pairINSt7__cxx1112basic_stringIcSt11char_traitsIcESaIcEEEPN4llvm12MemoryBufferEESA_SaISA_EEvPT_PT0_RT1_ = comdat any

$_ZNSt4pairINSt7__cxx1112basic_stringIcSt11char_traitsIcESaIcEEEPN4llvm12MemoryBufferEEC2EOS9_ = comdat any

$_ZNSt12_Vector_baseISt4pairINSt7__cxx1112basic_stringIcSt11char_traitsIcESaIcEEEPN4llvm12MemoryBufferEESaISA_EE13_M_deallocateEPSA_m = comdat any

$_ZNSt15__new_allocatorISt4pairINSt7__cxx1112basic_stringIcSt11char_traitsIcESaIcEEEPN4llvm12MemoryBufferEEE10deallocateEPSA_m = comdat any

$_ZNKSt6vectorISt4pairINSt7__cxx1112basic_stringIcSt11char_traitsIcESaIcEEEPN4llvm12MemoryBufferEESaISA_EE5emptyEv = comdat any

$_ZNKSt6vectorISt4pairINSt7__cxx1112basic_stringIcSt11char_traitsIcESaIcEEEPN4llvm12MemoryBufferEESaISA_EE5beginEv = comdat any

$_ZNKSt6vectorISt4pairINSt7__cxx1112basic_stringIcSt11char_traitsIcESaIcEEEPN4llvm12MemoryBufferEESaISA_EE3endEv = comdat any

$_ZNSt7__cxx1112basic_stringIcSt11char_traitsIcESaIcEE17_S_to_string_viewESt17basic_string_viewIcS2_E = comdat any

$_ZNK4llvm9StringRefcvSt17basic_string_viewIcSt11char_traitsIcEEEv = comdat any

$_ZNSt7__cxx1112basic_stringIcSt11char_traitsIcESaIcEE12__sv_wrapperC2ESt17basic_string_viewIcS2_E = comdat any

$_ZNSt7__cxx1112basic_stringIcSt11char_traitsIcESaIcEEC2ENS4_12__sv_wrapperERKS3_ = comdat any

$_ZNSt17basic_string_viewIcSt11char_traitsIcEEC2EPKcm = comdat any

$_ZNKSt17basic_string_viewIcSt11char_traitsIcEE4dataEv = comdat any

$_ZNKSt17basic_string_viewIcSt11char_traitsIcEE4sizeEv = comdat any

$_ZN5clang17ASTFrontendActionC2Ev = comdat any

$_ZN4llvm5Error15assertIsCheckedEv = comdat any

$_ZNK4llvm5Error6getPtrEv = comdat any

$_ZNSt12__shared_ptrIN5clang13TargetOptionsELN9__gnu_cxx12_Lock_policyE2EED2Ev = comdat any

$_ZNSt12_Vector_baseINSt7__cxx1112basic_stringIcSt11char_traitsIcESaIcEEESaIS5_EED2Ev = comdat any

$_ZSt8_DestroyIPNSt7__cxx1112basic_stringIcSt11char_traitsIcESaIcEEEEvT_S7_ = comdat any

$_ZSt8_DestroyINSt7__cxx1112basic_stringIcSt11char_traitsIcESaIcEEEEvPT_ = comdat any

$_ZNSt12_Vector_baseINSt7__cxx1112basic_stringIcSt11char_traitsIcESaIcEEESaIS5_EE12_Vector_implD2Ev = comdat any

$_ZNSt15__uniq_ptr_implIN4llvm12MemoryBufferESt14default_deleteIS1_EE6_M_ptrEv = comdat any

$_ZNSt10unique_ptrIN4llvm12MemoryBufferESt14default_deleteIS1_EE11get_deleterEv = comdat any

$_ZNKSt14default_deleteIN4llvm12MemoryBufferEEclEPS1_ = comdat any

$_ZSt3getILm0EJPN4llvm12MemoryBufferESt14default_deleteIS1_EEERNSt13tuple_elementIXT_ESt5tupleIJDpT0_EEE4typeERS9_ = comdat any

$_ZSt12__get_helperILm0EPN4llvm12MemoryBufferEJSt14default_deleteIS1_EEERT0_RSt11_Tuple_implIXT_EJS5_DpT1_EE = comdat any

$_ZNSt11_Tuple_implILm0EJPN4llvm12MemoryBufferESt14default_deleteIS1_EEE7_M_headERS5_ = comdat any

$_ZNSt10_Head_baseILm0EPN4llvm12MemoryBufferELb0EE7_M_headERS3_ = comdat any

$_ZNSt15__uniq_ptr_implIN4llvm12MemoryBufferESt14default_deleteIS1_EE10_M_deleterEv = comdat any

$_ZSt3getILm1EJPN4llvm12MemoryBufferESt14default_deleteIS1_EEERNSt13tuple_elementIXT_ESt5tupleIJDpT0_EEE4typeERS9_ = comdat any

$_ZSt12__get_helperILm1ESt14default_deleteIN4llvm12MemoryBufferEEJEERT0_RSt11_Tuple_implIXT_EJS4_DpT1_EE = comdat any

$_ZNSt11_Tuple_implILm1EJSt14default_deleteIN4llvm12MemoryBufferEEEE7_M_headERS4_ = comdat any

$_ZNSt10_Head_baseILm1ESt14default_deleteIN4llvm12MemoryBufferEELb1EE7_M_headERS4_ = comdat any

$_ZN4llvm18IntrusiveRefCntPtrINS_3vfs10FileSystemEE7releaseEv = comdat any

$_ZN4llvm22IntrusiveRefCntPtrInfoINS_3vfs10FileSystemEE7releaseEPS2_ = comdat any

$_ZNK4llvm24ThreadSafeRefCountedBaseINS_3vfs10FileSystemEE7ReleaseEv = comdat any

$_ZNSt7__cxx1112basic_stringIcSt11char_traitsIcESaIcEE6assignEPKc = comdat any

$_ZNSt7__cxx1112basic_stringIcSt11char_traitsIcESaIcEE6assignERKS4_ = comdat any

$_ZNSt7__cxx1112basic_stringIcSt11char_traitsIcESaIcEE9_M_assignERKS4_ = comdat any

$_ZN4llvm18IntrusiveRefCntPtrINS_3vfs10FileSystemEE6retainEv = comdat any

$_ZN4llvm22IntrusiveRefCntPtrInfoINS_3vfs10FileSystemEE6retainEPS2_ = comdat any

$_ZNK4llvm24ThreadSafeRefCountedBaseINS_3vfs10FileSystemEE6RetainEv = comdat any

$_ZNK8nlohmann10basic_jsonISt3mapSt6vectorNSt7__cxx1112basic_stringIcSt11char_traitsIcESaIcEEEblmdSaNS_14adl_serializerEE4dumpERSobjj = comdat any

$_ZNKSt3mapINSt7__cxx1112basic_stringIcSt11char_traitsIcESaIcEEEN8nlohmann10basic_jsonIS_St6vectorS5_blmdSaNS6_14adl_serializerEEESt4lessIS5_ESaISt4pairIKS5_SA_EEE5emptyEv = comdat any

$_ZNKSt3mapINSt7__cxx1112basic_stringIcSt11char_traitsIcESaIcEEEN8nlohmann10basic_jsonIS_St6vectorS5_blmdSaNS6_14adl_serializerEEESt4lessIS5_ESaISt4pairIKS5_SA_EEE6cbeginEv = comdat any

$_ZStneRKSt23_Rb_tree_const_iteratorISt4pairIKNSt7__cxx1112basic_stringIcSt11char_traitsIcESaIcEEEN8nlohmann10basic_jsonISt3mapSt6vectorS6_blmdSaNS8_14adl_serializerEEEEESH_ = comdat any

$_ZNKSt3mapINSt7__cxx1112basic_stringIcSt11char_traitsIcESaIcEEEN8nlohmann10basic_jsonIS_St6vectorS5_blmdSaNS6_14adl_serializerEEESt4lessIS5_ESaISt4pairIKS5_SA_EEE4cendEv = comdat any

$_ZNSt7__cxx1112basic_stringIcSt11char_traitsIcESaIcEEC2IS3_EEmcRKS3_ = comdat any

$_ZN8nlohmann10basic_jsonISt3mapSt6vectorNSt7__cxx1112basic_stringIcSt11char_traitsIcESaIcEEEblmdSaNS_14adl_serializerEE13escape_stringERKS8_ = comdat any

$_ZNKSt23_Rb_tree_const_iteratorISt4pairIKNSt7__cxx1112basic_stringIcSt11char_traitsIcESaIcEEEN8nlohmann10basic_jsonISt3mapSt6vectorS6_blmdSaNS8_14adl_serializerEEEEEptEv = comdat any

$_ZNSt23_Rb_tree_const_iteratorISt4pairIKNSt7__cxx1112basic_stringIcSt11char_traitsIcESaIcEEEN8nlohmann10basic_jsonISt3mapSt6vectorS6_blmdSaNS8_14adl_serializerEEEEEppEv = comdat any

$_ZStplIcSt11char_traitsIcESaIcEENSt7__cxx1112basic_stringIT_T0_T1_EEOS8_PKS5_ = comdat any

$_ZNKSt6vectorIN8nlohmann10basic_jsonISt3mapS_NSt7__cxx1112basic_stringIcSt11char_traitsIcESaIcEEEblmdSaNS0_14adl_serializerEEESaISA_EE6cbeginEv = comdat any

$_ZNKSt6vectorIN8nlohmann10basic_jsonISt3mapS_NSt7__cxx1112basic_stringIcSt11char_traitsIcESaIcEEEblmdSaNS0_14adl_serializerEEESaISA_EE4cendEv = comdat any

$_ZN8nlohmann10basic_jsonISt3mapSt6vectorNSt7__cxx1112basic_stringIcSt11char_traitsIcESaIcEEEblmdSaNS_14adl_serializerEE8numtostrC2IlEET_ = comdat any

$_ZNK8nlohmann10basic_jsonISt3mapSt6vectorNSt7__cxx1112basic_stringIcSt11char_traitsIcESaIcEEEblmdSaNS_14adl_serializerEE8numtostr5c_strEv = comdat any

$_ZN8nlohmann10basic_jsonISt3mapSt6vectorNSt7__cxx1112basic_stringIcSt11char_traitsIcESaIcEEEblmdSaNS_14adl_serializerEE8numtostrC2ImEET_ = comdat any

$_ZN8nlohmann10basic_jsonISt3mapSt6vectorNSt7__cxx1112basic_stringIcSt11char_traitsIcESaIcEEEblmdSaNS_14adl_serializerEE8numtostrC2IdEET_ = comdat any

$_ZNKSt8_Rb_treeINSt7__cxx1112basic_stringIcSt11char_traitsIcESaIcEEESt4pairIKS5_N8nlohmann10basic_jsonISt3mapSt6vectorS5_blmdSaNS8_14adl_serializerEEEESt10_Select1stISE_ESt4lessIS5_ESaISE_EE5emptyEv = comdat any

$_ZNKSt8_Rb_treeINSt7__cxx1112basic_stringIcSt11char_traitsIcESaIcEEESt4pairIKS5_N8nlohmann10basic_jsonISt3mapSt6vectorS5_blmdSaNS8_14adl_serializerEEEESt10_Select1stISE_ESt4lessIS5_ESaISE_EE5beginEv = comdat any

$_ZNSt23_Rb_tree_const_iteratorISt4pairIKNSt7__cxx1112basic_stringIcSt11char_traitsIcESaIcEEEN8nlohmann10basic_jsonISt3mapSt6vectorS6_blmdSaNS8_14adl_serializerEEEEEC2EPSt18_Rb_tree_node_base = comdat any

$_ZNKSt8_Rb_treeINSt7__cxx1112basic_stringIcSt11char_traitsIcESaIcEEESt4pairIKS5_N8nlohmann10basic_jsonISt3mapSt6vectorS5_blmdSaNS8_14adl_serializerEEEESt10_Select1stISE_ESt4lessIS5_ESaISE_EE3endEv = comdat any

$_ZNSt7__cxx1112basic_stringIcSt11char_traitsIcESaIcEE12_M_constructEmc = comdat any

$_ZNSt7__cxx1112basic_stringIcSt11char_traitsIcESaIcEE9_S_assignEPcmc = comdat any

$_ZNSt11char_traitsIcE6assignEPcmc = comdat any

$_ZN8nlohmann10basic_jsonISt3mapSt6vectorNSt7__cxx1112basic_stringIcSt11char_traitsIcESaIcEEEblmdSaNS_14adl_serializerEE11extra_spaceERKS8_ = comdat any

$_ZNKSt7__cxx1112basic_stringIcSt11char_traitsIcESaIcEE5beginEv = comdat any

$_ZNKSt7__cxx1112basic_stringIcSt11char_traitsIcESaIcEE3endEv = comdat any

$_ZNSt7__cxx1112basic_stringIcSt11char_traitsIcESaIcEEixEm = comdat any

$_ZNKSt16initializer_listIcE5beginEv = comdat any

$_ZNKSt16initializer_listIcE3endEv = comdat any

$_ZSt10accumulateIN9__gnu_cxx17__normal_iteratorIPKcNSt7__cxx1112basic_stringIcSt11char_traitsIcESaIcEEEEEmZN8nlohmann10basic_jsonISt3mapSt6vectorS9_blmdSaNSB_14adl_serializerEE11extra_spaceERKS9_EUlmcE_ET0_T_SL_SK_T1_ = comdat any

$_ZZN8nlohmann10basic_jsonISt3mapSt6vectorNSt7__cxx1112basic_stringIcSt11char_traitsIcESaIcEEEblmdSaNS_14adl_serializerEE11extra_spaceERKS8_ENKUlmcE_clEmc = comdat any

$_ZNKSt16initializer_listIcE4sizeEv = comdat any

$_ZNSt7__cxx1112basic_stringIcSt11char_traitsIcESaIcEE6appendEPKc = comdat any

$_ZNSt7__cxx1112basic_stringIcSt11char_traitsIcESaIcEE9_M_appendEPKcm = comdat any

$_ZN8nlohmann10basic_jsonISt3mapSt6vectorNSt7__cxx1112basic_stringIcSt11char_traitsIcESaIcEEEblmdSaNS_14adl_serializerEE8numtostr7x_writeIlEEvT_St17integral_constantIbLb1EE = comdat any

$_ZNSt5arrayIcLm64EEixEm = comdat any

$_ZSt7reverseIPcEvT_S1_ = comdat any

$_ZNSt5arrayIcLm64EE5beginEv = comdat any

$_ZSt9__reverseIPcEvT_S1_St26random_access_iterator_tag = comdat any

$_ZSt9iter_swapIPcS0_EvT_T0_ = comdat any

$_ZSt4swapIcENSt9enable_ifIXsr6__and_ISt6__not_ISt15__is_tuple_likeIT_EESt21is_move_constructibleIS3_ESt18is_move_assignableIS3_EEE5valueEvE4typeERS3_SC_ = comdat any

$_ZNKSt5arrayIcLm64EE4dataEv = comdat any

$_ZN8nlohmann10basic_jsonISt3mapSt6vectorNSt7__cxx1112basic_stringIcSt11char_traitsIcESaIcEEEblmdSaNS_14adl_serializerEE8numtostr7x_writeImEEvT_St17integral_constantIbLb1EE = comdat any

$_ZN8nlohmann10basic_jsonISt3mapSt6vectorNSt7__cxx1112basic_stringIcSt11char_traitsIcESaIcEEEblmdSaNS_14adl_serializerEE8numtostr7x_writeIdEEvT_St17integral_constantIbLb0EE = comdat any

$_ZSt7signbitd = comdat any

$_ZSt6removeIPccET_S1_S1_RKT0_ = comdat any

$_ZNSt5arrayIcLm64EE3endEv = comdat any

$_ZSt11__remove_ifIPcN9__gnu_cxx5__ops16_Iter_equals_valIKcEEET_S6_S6_T0_ = comdat any

$_ZN9__gnu_cxx5__ops17__iter_equals_valIKcEENS0_16_Iter_equals_valIT_EERS4_ = comdat any

$_ZSt9__find_ifIPcN9__gnu_cxx5__ops16_Iter_equals_valIKcEEET_S6_S6_T0_ = comdat any

$_ZN9__gnu_cxx5__ops16_Iter_equals_valIKcEclIPcEEbT_ = comdat any

$_ZN9__gnu_cxx5__ops16_Iter_equals_valIKcEC2ERS2_ = comdat any

$_ZSt9__fill_a1IccEN9__gnu_cxx11__enable_ifIXaasr9__is_byteIT_EE7__valueoosr10__are_sameIS2_T0_EE7__valuesr20__memcpyable_integerIS3_EE7__widthEvE6__typeEPS2_S6_RKS3_ = comdat any

$_ZNSt10shared_ptrIN5clang22PCHContainerOperationsEEC2ISaIvEJEEESt20_Sp_alloc_shared_tagIT_EDpOT0_ = comdat any

$_ZNSt12__shared_ptrIN5clang22PCHContainerOperationsELN9__gnu_cxx12_Lock_policyE2EEC2ISaIvEJEEESt20_Sp_alloc_shared_tagIT_EDpOT0_ = comdat any

$_ZNSt14__shared_countILN9__gnu_cxx12_Lock_policyE2EEC2IN5clang22PCHContainerOperationsESaIvEJEEERPT_St20_Sp_alloc_shared_tagIT0_EDpOT1_ = comdat any

$_ZNSt12__shared_ptrIN5clang22PCHContainerOperationsELN9__gnu_cxx12_Lock_policyE2EE31_M_enable_shared_from_this_withIS1_S1_EENSt9enable_ifIXntsr15__has_esft_baseIT0_EE5valueEvE4typeEPT_ = comdat any

$_ZSt18__allocate_guardedISaISt23_Sp_counted_ptr_inplaceIN5clang22PCHContainerOperationsESaIvELN9__gnu_cxx12_Lock_policyE2EEEESt15__allocated_ptrIT_ERS9_ = comdat any

$_ZNKSt15__allocated_ptrISaISt23_Sp_counted_ptr_inplaceIN5clang22PCHContainerOperationsESaIvELN9__gnu_cxx12_Lock_policyE2EEEE3getEv = comdat any

$_ZNSt23_Sp_counted_ptr_inplaceIN5clang22PCHContainerOperationsESaIvELN9__gnu_cxx12_Lock_policyE2EEC2IJEEES2_DpOT_ = comdat any

$_ZNSt15__allocated_ptrISaISt23_Sp_counted_ptr_inplaceIN5clang22PCHContainerOperationsESaIvELN9__gnu_cxx12_Lock_policyE2EEEEaSEDn = comdat any

$_ZNSt23_Sp_counted_ptr_inplaceIN5clang22PCHContainerOperationsESaIvELN9__gnu_cxx12_Lock_policyE2EE6_M_ptrEv = comdat any

$_ZNSt15__allocated_ptrISaISt23_Sp_counted_ptr_inplaceIN5clang22PCHContainerOperationsESaIvELN9__gnu_cxx12_Lock_policyE2EEEED2Ev = comdat any

$_ZNSt15__allocated_ptrISaISt23_Sp_counted_ptr_inplaceIN5clang22PCHContainerOperationsESaIvELN9__gnu_cxx12_Lock_policyE2EEEEC2ERS7_PS6_ = comdat any

$_ZNSt15__new_allocatorISt23_Sp_counted_ptr_inplaceIN5clang22PCHContainerOperationsESaIvELN9__gnu_cxx12_Lock_policyE2EEE8allocateEmPKv = comdat any

$_ZNSt23_Sp_counted_ptr_inplaceIN5clang22PCHContainerOperationsESaIvELN9__gnu_cxx12_Lock_policyE2EE5_ImplC2ES2_ = comdat any

$_ZNSt23_Sp_counted_ptr_inplaceIN5clang22PCHContainerOperationsESaIvELN9__gnu_cxx12_Lock_policyE2EED2Ev = comdat any

$_ZNSt23_Sp_counted_ptr_inplaceIN5clang22PCHContainerOperationsESaIvELN9__gnu_cxx12_Lock_policyE2EED0Ev = comdat any

$_ZNSt23_Sp_counted_ptr_inplaceIN5clang22PCHContainerOperationsESaIvELN9__gnu_cxx12_Lock_policyE2EE10_M_disposeEv = comdat any

$_ZNSt23_Sp_counted_ptr_inplaceIN5clang22PCHContainerOperationsESaIvELN9__gnu_cxx12_Lock_policyE2EE10_M_destroyEv = comdat any

$_ZNSt23_Sp_counted_ptr_inplaceIN5clang22PCHContainerOperationsESaIvELN9__gnu_cxx12_Lock_policyE2EE14_M_get_deleterERKSt9type_info = comdat any

$_ZSt10_ConstructIN5clang22PCHContainerOperationsEJEEvPT_DpOT0_ = comdat any

$_ZNSt23_Sp_counted_ptr_inplaceIN5clang22PCHContainerOperationsESaIvELN9__gnu_cxx12_Lock_policyE2EE5_Impl8_M_allocEv = comdat any

$_ZSt8_DestroyIN5clang22PCHContainerOperationsEEvPT_ = comdat any

$_ZN5clang22PCHContainerOperationsD2Ev = comdat any

$_ZN4llvm11SmallVectorISt10unique_ptrIN5clang18PCHContainerReaderESt14default_deleteIS3_EELj6EED2Ev = comdat any

$_ZN4llvm9StringMapIPN5clang18PCHContainerReaderENS_15MallocAllocatorEED2Ev = comdat any

$_ZN4llvm9StringMapISt10unique_ptrIN5clang18PCHContainerWriterESt14default_deleteIS3_EENS_15MallocAllocatorEED2Ev = comdat any

$_ZN4llvm23SmallVectorTemplateBaseISt10unique_ptrIN5clang18PCHContainerReaderESt14default_deleteIS3_EELb0EE13destroy_rangeEPS6_S8_ = comdat any

$_ZN4llvm25SmallVectorTemplateCommonISt10unique_ptrIN5clang18PCHContainerReaderESt14default_deleteIS3_EEvE5beginEv = comdat any

$_ZN4llvm25SmallVectorTemplateCommonISt10unique_ptrIN5clang18PCHContainerReaderESt14default_deleteIS3_EEvE3endEv = comdat any

$_ZN4llvm15SmallVectorImplISt10unique_ptrIN5clang18PCHContainerReaderESt14default_deleteIS3_EEED2Ev = comdat any

$_ZNSt10unique_ptrIN5clang18PCHContainerReaderESt14default_deleteIS1_EED2Ev = comdat any

$_ZNSt15__uniq_ptr_implIN5clang18PCHContainerReaderESt14default_deleteIS1_EE6_M_ptrEv = comdat any

$_ZNSt10unique_ptrIN5clang18PCHContainerReaderESt14default_deleteIS1_EE11get_deleterEv = comdat any

$_ZNKSt14default_deleteIN5clang18PCHContainerReaderEEclEPS1_ = comdat any

$_ZSt3getILm0EJPN5clang18PCHContainerReaderESt14default_deleteIS1_EEERNSt13tuple_elementIXT_ESt5tupleIJDpT0_EEE4typeERS9_ = comdat any

$_ZSt12__get_helperILm0EPN5clang18PCHContainerReaderEJSt14default_deleteIS1_EEERT0_RSt11_Tuple_implIXT_EJS5_DpT1_EE = comdat any

$_ZNSt11_Tuple_implILm0EJPN5clang18PCHContainerReaderESt14default_deleteIS1_EEE7_M_headERS5_ = comdat any

$_ZNSt10_Head_baseILm0EPN5clang18PCHContainerReaderELb0EE7_M_headERS3_ = comdat any

$_ZNSt15__uniq_ptr_implIN5clang18PCHContainerReaderESt14default_deleteIS1_EE10_M_deleterEv = comdat any

$_ZSt3getILm1EJPN5clang18PCHContainerReaderESt14default_deleteIS1_EEERNSt13tuple_elementIXT_ESt5tupleIJDpT0_EEE4typeERS9_ = comdat any

$_ZSt12__get_helperILm1ESt14default_deleteIN5clang18PCHContainerReaderEEJEERT0_RSt11_Tuple_implIXT_EJS4_DpT1_EE = comdat any

$_ZNSt11_Tuple_implILm1EJSt14default_deleteIN5clang18PCHContainerReaderEEEE7_M_headERS4_ = comdat any

$_ZNSt10_Head_baseILm1ESt14default_deleteIN5clang18PCHContainerReaderEELb1EE7_M_headERS4_ = comdat any

$_ZNK4llvm25SmallVectorTemplateCommonISt10unique_ptrIN5clang18PCHContainerReaderESt14default_deleteIS3_EEvE7isSmallEv = comdat any

$_ZNK4llvm25SmallVectorTemplateCommonISt10unique_ptrIN5clang18PCHContainerReaderESt14default_deleteIS3_EEvE10getFirstElEv = comdat any

$_ZNK4llvm13StringMapImpl5emptyEv = comdat any

$_ZN4llvm13StringMapImpl15getTombstoneValEv = comdat any

$_ZN4llvm14StringMapEntryIPN5clang18PCHContainerReaderEE7DestroyINS_15MallocAllocatorEEEvRT_ = comdat any

$_ZN4llvm13StringMapImplD2Ev = comdat any

$_ZNK4llvm18StringMapEntryBase12getKeyLengthEv = comdat any

$_ZN4llvm14StringMapEntryISt10unique_ptrIN5clang18PCHContainerWriterESt14default_deleteIS3_EEE7DestroyINS_15MallocAllocatorEEEvRT_ = comdat any

$_ZN4llvm14StringMapEntryISt10unique_ptrIN5clang18PCHContainerWriterESt14default_deleteIS3_EEED2Ev = comdat any

$_ZN4llvm21StringMapEntryStorageISt10unique_ptrIN5clang18PCHContainerWriterESt14default_deleteIS3_EEED2Ev = comdat any

$_ZNSt10unique_ptrIN5clang18PCHContainerWriterESt14default_deleteIS1_EED2Ev = comdat any

$_ZNSt15__uniq_ptr_implIN5clang18PCHContainerWriterESt14default_deleteIS1_EE6_M_ptrEv = comdat any

$_ZNSt10unique_ptrIN5clang18PCHContainerWriterESt14default_deleteIS1_EE11get_deleterEv = comdat any

$_ZNKSt14default_deleteIN5clang18PCHContainerWriterEEclEPS1_ = comdat any

$_ZSt3getILm0EJPN5clang18PCHContainerWriterESt14default_deleteIS1_EEERNSt13tuple_elementIXT_ESt5tupleIJDpT0_EEE4typeERS9_ = comdat any

$_ZSt12__get_helperILm0EPN5clang18PCHContainerWriterEJSt14default_deleteIS1_EEERT0_RSt11_Tuple_implIXT_EJS5_DpT1_EE = comdat any

$_ZNSt11_Tuple_implILm0EJPN5clang18PCHContainerWriterESt14default_deleteIS1_EEE7_M_headERS5_ = comdat any

$_ZNSt10_Head_baseILm0EPN5clang18PCHContainerWriterELb0EE7_M_headERS3_ = comdat any

$_ZNSt15__uniq_ptr_implIN5clang18PCHContainerWriterESt14default_deleteIS1_EE10_M_deleterEv = comdat any

$_ZSt3getILm1EJPN5clang18PCHContainerWriterESt14default_deleteIS1_EEERNSt13tuple_elementIXT_ESt5tupleIJDpT0_EEE4typeERS9_ = comdat any

$_ZSt12__get_helperILm1ESt14default_deleteIN5clang18PCHContainerWriterEEJEERT0_RSt11_Tuple_implIXT_EJS4_DpT1_EE = comdat any

$_ZNSt11_Tuple_implILm1EJSt14default_deleteIN5clang18PCHContainerWriterEEEE7_M_headERS4_ = comdat any

$_ZNSt10_Head_baseILm1ESt14default_deleteIN5clang18PCHContainerWriterEELb1EE7_M_headERS4_ = comdat any

$_ZN9__gnu_cxx16__aligned_bufferIN5clang22PCHContainerOperationsEE6_M_ptrEv = comdat any

$_ZN9__gnu_cxx16__aligned_bufferIN5clang22PCHContainerOperationsEE7_M_addrEv = comdat any

$_ZNSt15__new_allocatorISt23_Sp_counted_ptr_inplaceIN5clang22PCHContainerOperationsESaIvELN9__gnu_cxx12_Lock_policyE2EEE10deallocateEPS6_m = comdat any

$_ZNSt15__new_allocatorISt23_Sp_counted_ptr_inplaceIN5clang22PCHContainerOperationsESaIvELN9__gnu_cxx12_Lock_policyE2EEED2Ev = comdat any

$_ZNSt10shared_ptrIN5clang13TargetOptionsEEC2ISaIvEJEEESt20_Sp_alloc_shared_tagIT_EDpOT0_ = comdat any

$_ZNSt12__shared_ptrIN5clang13TargetOptionsELN9__gnu_cxx12_Lock_policyE2EEC2ISaIvEJEEESt20_Sp_alloc_shared_tagIT_EDpOT0_ = comdat any

$_ZNSt14__shared_countILN9__gnu_cxx12_Lock_policyE2EEC2IN5clang13TargetOptionsESaIvEJEEERPT_St20_Sp_alloc_shared_tagIT0_EDpOT1_ = comdat any

$_ZNSt12__shared_ptrIN5clang13TargetOptionsELN9__gnu_cxx12_Lock_policyE2EE31_M_enable_shared_from_this_withIS1_S1_EENSt9enable_ifIXntsr15__has_esft_baseIT0_EE5valueEvE4typeEPT_ = comdat any

$_ZSt18__allocate_guardedISaISt23_Sp_counted_ptr_inplaceIN5clang13TargetOptionsESaIvELN9__gnu_cxx12_Lock_policyE2EEEESt15__allocated_ptrIT_ERS9_ = comdat any

$_ZNKSt15__allocated_ptrISaISt23_Sp_counted_ptr_inplaceIN5clang13TargetOptionsESaIvELN9__gnu_cxx12_Lock_policyE2EEEE3getEv = comdat any

$_ZNSt23_Sp_counted_ptr_inplaceIN5clang13TargetOptionsESaIvELN9__gnu_cxx12_Lock_policyE2EEC2IJEEES2_DpOT_ = comdat any

$_ZNSt15__allocated_ptrISaISt23_Sp_counted_ptr_inplaceIN5clang13TargetOptionsESaIvELN9__gnu_cxx12_Lock_policyE2EEEEaSEDn = comdat any

$_ZNSt23_Sp_counted_ptr_inplaceIN5clang13TargetOptionsESaIvELN9__gnu_cxx12_Lock_policyE2EE6_M_ptrEv = comdat any

$_ZNSt15__allocated_ptrISaISt23_Sp_counted_ptr_inplaceIN5clang13TargetOptionsESaIvELN9__gnu_cxx12_Lock_policyE2EEEED2Ev = comdat any

$_ZNSt15__allocated_ptrISaISt23_Sp_counted_ptr_inplaceIN5clang13TargetOptionsESaIvELN9__gnu_cxx12_Lock_policyE2EEEEC2ERS7_PS6_ = comdat any

$_ZNSt15__new_allocatorISt23_Sp_counted_ptr_inplaceIN5clang13TargetOptionsESaIvELN9__gnu_cxx12_Lock_policyE2EEE8allocateEmPKv = comdat any

$_ZNSt23_Sp_counted_ptr_inplaceIN5clang13TargetOptionsESaIvELN9__gnu_cxx12_Lock_policyE2EE5_ImplC2ES2_ = comdat any

$_ZNSt23_Sp_counted_ptr_inplaceIN5clang13TargetOptionsESaIvELN9__gnu_cxx12_Lock_policyE2EED2Ev = comdat any

$_ZNSt23_Sp_counted_ptr_inplaceIN5clang13TargetOptionsESaIvELN9__gnu_cxx12_Lock_policyE2EED0Ev = comdat any

$_ZNSt23_Sp_counted_ptr_inplaceIN5clang13TargetOptionsESaIvELN9__gnu_cxx12_Lock_policyE2EE10_M_disposeEv = comdat any

$_ZNSt23_Sp_counted_ptr_inplaceIN5clang13TargetOptionsESaIvELN9__gnu_cxx12_Lock_policyE2EE10_M_destroyEv = comdat any

$_ZNSt23_Sp_counted_ptr_inplaceIN5clang13TargetOptionsESaIvELN9__gnu_cxx12_Lock_policyE2EE14_M_get_deleterERKSt9type_info = comdat any

$_ZSt10_ConstructIN5clang13TargetOptionsEJEEvPT_DpOT0_ = comdat any

$_ZN5clang13TargetOptionsC2Ev = comdat any

$_ZN4llvm9StringMapIbNS_15MallocAllocatorEEC2Ev = comdat any

$_ZN4llvm12VersionTupleC2Ev = comdat any

$_ZN4llvm9StringMapIbNS_15MallocAllocatorEED2Ev = comdat any

$_ZN4llvm13StringMapImplC2Ej = comdat any

$_ZN4llvm14StringMapEntryIbE7DestroyINS_15MallocAllocatorEEEvRT_ = comdat any

$_ZNSt23_Sp_counted_ptr_inplaceIN5clang13TargetOptionsESaIvELN9__gnu_cxx12_Lock_policyE2EE5_Impl8_M_allocEv = comdat any

$_ZSt8_DestroyIN5clang13TargetOptionsEEvPT_ = comdat any

$_ZN5clang13TargetOptionsD2Ev = comdat any

$_ZN9__gnu_cxx16__aligned_bufferIN5clang13TargetOptionsEE6_M_ptrEv = comdat any

$_ZN9__gnu_cxx16__aligned_bufferIN5clang13TargetOptionsEE7_M_addrEv = comdat any

$_ZNSt15__new_allocatorISt23_Sp_counted_ptr_inplaceIN5clang13TargetOptionsESaIvELN9__gnu_cxx12_Lock_policyE2EEE10deallocateEPS6_m = comdat any

$_ZNSt15__new_allocatorISt23_Sp_counted_ptr_inplaceIN5clang13TargetOptionsESaIvELN9__gnu_cxx12_Lock_policyE2EEED2Ev = comdat any

$_ZNKSt19__shared_ptr_accessIN5clang13TargetOptionsELN9__gnu_cxx12_Lock_policyE2ELb0ELb0EE6_M_getEv = comdat any

$_ZNKSt12__shared_ptrIN5clang13TargetOptionsELN9__gnu_cxx12_Lock_policyE2EE3getEv = comdat any

$_ZN4llvm23SmallVectorTemplateBaseIN5clang17FrontendInputFileELb0EE28reserveForParamAndGetAddressERS2_m = comdat any

$_ZN4llvm25SmallVectorTemplateCommonIN5clang17FrontendInputFileEvE3endEv = comdat any

$_ZN5clang17FrontendInputFileC2EOS0_ = comdat any

$_ZN4llvm25SmallVectorTemplateCommonIN5clang17FrontendInputFileEvE32reserveForParamAndGetAddressImplINS_23SmallVectorTemplateBaseIS2_Lb0EEEEEPKS2_PT_RS7_m = comdat any

$_ZNK4llvm25SmallVectorTemplateCommonIN5clang17FrontendInputFileEvE20isReferenceToStorageEPKv = comdat any

$_ZN4llvm25SmallVectorTemplateCommonIN5clang17FrontendInputFileEvE5beginEv = comdat any

$_ZN4llvm23SmallVectorTemplateBaseIN5clang17FrontendInputFileELb0EE4growEm = comdat any

$_ZNK4llvm25SmallVectorTemplateCommonIN5clang17FrontendInputFileEvE18isReferenceToRangeEPKvS5_S5_ = comdat any

$_ZNK4llvm25SmallVectorTemplateCommonIN5clang17FrontendInputFileEvE5beginEv = comdat any

$_ZNK4llvm25SmallVectorTemplateCommonIN5clang17FrontendInputFileEvE3endEv = comdat any

$_ZNKSt4lessIvEclIKvS2_EEbPT_PT0_ = comdat any

$_ZNKSt4lessIPKvEclES1_S1_ = comdat any

$_ZN4llvm23SmallVectorTemplateBaseIN5clang17FrontendInputFileELb0EE13mallocForGrowEmRm = comdat any

$_ZN4llvm23SmallVectorTemplateBaseIN5clang17FrontendInputFileELb0EE19moveElementsForGrowEPS2_ = comdat any

$_ZN4llvm23SmallVectorTemplateBaseIN5clang17FrontendInputFileELb0EE21takeAllocationForGrowEPS2_m = comdat any

$_ZNK4llvm25SmallVectorTemplateCommonIN5clang17FrontendInputFileEvE10getFirstElEv = comdat any

$_ZN4llvm23SmallVectorTemplateBaseIN5clang17FrontendInputFileELb0EE18uninitialized_moveIPS2_S5_EEvT_S6_T0_ = comdat any

$_ZN4llvm23SmallVectorTemplateBaseIN5clang17FrontendInputFileELb0EE13destroy_rangeEPS2_S4_ = comdat any

$_ZSt18uninitialized_moveIPN5clang17FrontendInputFileES2_ET0_T_S4_S3_ = comdat any

$_ZSt18uninitialized_copyISt13move_iteratorIPN5clang17FrontendInputFileEES3_ET0_T_S6_S5_ = comdat any

$_ZSt18make_move_iteratorIPN5clang17FrontendInputFileEESt13move_iteratorIT_ES4_ = comdat any

$_ZSt16__do_uninit_copyISt13move_iteratorIPN5clang17FrontendInputFileEES4_S3_ET1_T_T0_S5_ = comdat any

$_ZNSt19_UninitDestroyGuardIPN5clang17FrontendInputFileEvEC2ERS2_ = comdat any

$_ZStneIPN5clang17FrontendInputFileEEbRKSt13move_iteratorIT_ES7_ = comdat any

$_ZSt10_ConstructIN5clang17FrontendInputFileEJS1_EEvPT_DpOT0_ = comdat any

$_ZNKSt13move_iteratorIPN5clang17FrontendInputFileEEdeEv = comdat any

$_ZNSt13move_iteratorIPN5clang17FrontendInputFileEEppEv = comdat any

$_ZNSt19_UninitDestroyGuardIPN5clang17FrontendInputFileEvE7releaseEv = comdat any

$_ZNSt19_UninitDestroyGuardIPN5clang17FrontendInputFileEvED2Ev = comdat any

$_ZSteqIPN5clang17FrontendInputFileEEbRKSt13move_iteratorIT_ES7_ = comdat any

$_ZNKSt13move_iteratorIPN5clang17FrontendInputFileEE4baseEv = comdat any

$_ZSt8_DestroyIPN5clang17FrontendInputFileEEvT_S3_ = comdat any

$_ZSt8_DestroyIN5clang17FrontendInputFileEEvPT_ = comdat any

$_ZNSt13move_iteratorIPN5clang17FrontendInputFileEEC2ES2_ = comdat any

$_ZNK4llvm25SmallVectorTemplateCommonIN5clang17FrontendInputFileEvE7isSmallEv = comdat any

$_ZNSt15__uniq_ptr_implIN4llvm12MemoryBufferESt14default_deleteIS1_EE7releaseEv = comdat any

$_ZTV26CustomCodeCompleteConsumer = comdat any

$_ZTI26CustomCodeCompleteConsumer = comdat any

$_ZTS26CustomCodeCompleteConsumer = comdat any

$_ZTVSt23_Sp_counted_ptr_inplaceIN5clang29GlobalCodeCompletionAllocatorESaIvELN9__gnu_cxx12_Lock_policyE2EE = comdat any

$_ZTISt23_Sp_counted_ptr_inplaceIN5clang29GlobalCodeCompletionAllocatorESaIvELN9__gnu_cxx12_Lock_policyE2EE = comdat any

$_ZTSSt23_Sp_counted_ptr_inplaceIN5clang29GlobalCodeCompletionAllocatorESaIvELN9__gnu_cxx12_Lock_policyE2EE = comdat any

$_ZTISt16_Sp_counted_baseILN9__gnu_cxx12_Lock_policyE2EE = comdat any

$_ZTSSt16_Sp_counted_baseILN9__gnu_cxx12_Lock_policyE2EE = comdat any

$_ZTISt11_Mutex_baseILN9__gnu_cxx12_Lock_policyE2EE = comdat any

$_ZTSSt11_Mutex_baseILN9__gnu_cxx12_Lock_policyE2EE = comdat any

$_ZTVSt16_Sp_counted_baseILN9__gnu_cxx12_Lock_policyE2EE = comdat any

$_ZTISt19_Sp_make_shared_tag = comdat any

$_ZTSSt19_Sp_make_shared_tag = comdat any

$_ZZNSt19_Sp_make_shared_tag5_S_tiEvE5__tag = comdat any

$_ZN8nlohmann6detail12static_constINS0_10to_json_fnEE5valueE = comdat any

$_ZSt19piecewise_construct = comdat any

$_ZZN8nlohmann10basic_jsonISt3mapSt6vectorNSt7__cxx1112basic_stringIcSt11char_traitsIcESaIcEEEblmdSaNS_14adl_serializerEE13escape_stringERKS8_E6hexify = comdat any

$_ZZN8nlohmann10basic_jsonISt3mapSt6vectorNSt7__cxx1112basic_stringIcSt11char_traitsIcESaIcEEEblmdSaNS_14adl_serializerEE8numtostr7x_writeIdEEvT_St17integral_constantIbLb0EEE1d = comdat any

$_ZTVSt23_Sp_counted_ptr_inplaceIN5clang22PCHContainerOperationsESaIvELN9__gnu_cxx12_Lock_policyE2EE = comdat any

$_ZTISt23_Sp_counted_ptr_inplaceIN5clang22PCHContainerOperationsESaIvELN9__gnu_cxx12_Lock_policyE2EE = comdat any

$_ZTSSt23_Sp_counted_ptr_inplaceIN5clang22PCHContainerOperationsESaIvELN9__gnu_cxx12_Lock_policyE2EE = comdat any

$_ZTVSt23_Sp_counted_ptr_inplaceIN5clang13TargetOptionsESaIvELN9__gnu_cxx12_Lock_policyE2EE = comdat any

$_ZTISt23_Sp_counted_ptr_inplaceIN5clang13TargetOptionsESaIvELN9__gnu_cxx12_Lock_policyE2EE = comdat any

$_ZTSSt23_Sp_counted_ptr_inplaceIN5clang13TargetOptionsESaIvELN9__gnu_cxx12_Lock_policyE2EE = comdat any

@_ZN4llvm24DisableABIBreakingChecksE = external global i32, align 4
@_ZN4llvm30VerifyDisableABIBreakingChecksE = weak hidden global ptr @_ZN4llvm24DisableABIBreakingChecksE, align 8
@.str = private unnamed_addr constant [30 x i8] c"construct into local variable\00", align 1
@.str.1 = private unnamed_addr constant [29 x i8] c"construct into new-allocator\00", align 1
@.str.2 = private unnamed_addr constant [30 x i8] c"construct into return address\00", align 1
@.str.3 = private unnamed_addr constant [22 x i8] c"materialize temporary\00", align 1
@.str.4 = private unnamed_addr constant [18 x i8] c"destroy temporary\00", align 1
@.str.5 = private unnamed_addr constant [17 x i8] c"elide destructor\00", align 1
@.str.6 = private unnamed_addr constant [18 x i8] c"elide constructor\00", align 1
@.str.7 = private unnamed_addr constant [24 x i8] c"construct into argument\00", align 1
@.str.8 = private unnamed_addr constant [40 x i8] c"construct into lambda captured variable\00", align 1
@.str.9 = private unnamed_addr constant [31 x i8] c"construct into member variable\00", align 1
@.str.10 = private unnamed_addr constant [17 x i8] c"Unknown ItemKind\00", align 1
@.str.11 = private unnamed_addr constant [50 x i8] c"/usr/include/clang/Analysis/ConstructionContext.h\00", align 1
@.str.12 = private unnamed_addr constant [3 x i8] c"# \00", align 1
@.str.13 = private unnamed_addr constant [7 x i8] c"#line \00", align 1
@debugOutput = external global i8, align 1
@_ZSt4cerr = external global %"class.std::basic_ostream", align 8
@.str.14 = private unnamed_addr constant [26 x i8] c"Code-completions at line \00", align 1
@.str.15 = private unnamed_addr constant [2 x i8] c"\0A\00", align 1
@.str.16 = private unnamed_addr constant [38 x i8] c"Sorry! source code line not found...\0A\00", align 1
@.str.17 = private unnamed_addr constant [20 x i8] c"x86_64-pc-linux-gnu\00", align 1
@.str.18 = private unnamed_addr constant [24 x i8] c"basic_string::_M_create\00", align 1
@.str.19 = private unnamed_addr constant [26 x i8] c"vector::_M_realloc_append\00", align 1
@__libc_single_threaded = external global i8, align 1
@.str.20 = private unnamed_addr constant [38 x i8] c"Compiler instance has no diagnostics!\00", align 1
@.str.21 = private unnamed_addr constant [55 x i8] c"Diagnostics && \22Compiler instance has no diagnostics!\22\00", align 1
@.str.22 = private unnamed_addr constant [47 x i8] c"/usr/include/clang/Frontend/CompilerInstance.h\00", align 1
@__PRETTY_FUNCTION__._ZNK5clang16CompilerInstance14getDiagnosticsEv = private unnamed_addr constant [67 x i8] c"DiagnosticsEngine &clang::CompilerInstance::getDiagnostics() const\00", align 1
@.str.23 = private unnamed_addr constant [103 x i8] c"/usr/bin/../lib64/gcc/x86_64-pc-linux-gnu/15.2.1/../../../../include/c++/15.2.1/bits/shared_ptr_base.h\00", align 1
@__PRETTY_FUNCTION__._ZSt18__shared_ptr_derefIN5clang11LangOptionsEEPT_S3_ = private unnamed_addr constant [63 x i8] c"_Tp *std::__shared_ptr_deref(_Tp *) [_Tp = clang::LangOptions]\00", align 1
@.str.24 = private unnamed_addr constant [15 x i8] c"__p != nullptr\00", align 1
@.str.25 = private unnamed_addr constant [39 x i8] c"Compiler instance has no file manager!\00", align 1
@.str.26 = private unnamed_addr constant [52 x i8] c"FileMgr && \22Compiler instance has no file manager!\22\00", align 1
@__PRETTY_FUNCTION__._ZNK5clang16CompilerInstance14getFileManagerEv = private unnamed_addr constant [61 x i8] c"FileManager &clang::CompilerInstance::getFileManager() const\00", align 1
@.str.27 = private unnamed_addr constant [41 x i8] c"Compiler instance has no source manager!\00", align 1
@.str.28 = private unnamed_addr constant [56 x i8] c"SourceMgr && \22Compiler instance has no source manager!\22\00", align 1
@__PRETTY_FUNCTION__._ZNK5clang16CompilerInstance16getSourceManagerEv = private unnamed_addr constant [65 x i8] c"SourceManager &clang::CompilerInstance::getSourceManager() const\00", align 1
@_ZTV26CustomCodeCompleteConsumer = linkonce_odr dso_local unnamed_addr constant { [9 x ptr] } { [9 x ptr] [ptr null, ptr @_ZTI26CustomCodeCompleteConsumer, ptr @_ZN26CustomCodeCompleteConsumerD2Ev, ptr @_ZN26CustomCodeCompleteConsumerD0Ev, ptr @_ZN5clang20CodeCompleteConsumer19isResultFilteredOutEN4llvm9StringRefENS_20CodeCompletionResultE, ptr @_ZN26CustomCodeCompleteConsumer26ProcessCodeCompleteResultsERN5clang4SemaENS0_21CodeCompletionContextEPNS0_20CodeCompletionResultEj, ptr @_ZN5clang20CodeCompleteConsumer25ProcessOverloadCandidatesERNS_4SemaEjPNS0_17OverloadCandidateEjNS_14SourceLocationEb, ptr @_ZN26CustomCodeCompleteConsumer12getAllocatorEv, ptr @_ZN26CustomCodeCompleteConsumer23getCodeCompletionTUInfoEv] }, comdat, align 8
@_ZTI26CustomCodeCompleteConsumer = linkonce_odr dso_local constant { ptr, ptr, ptr } { ptr getelementptr inbounds (ptr, ptr @_ZTVN10__cxxabiv120__si_class_type_infoE, i64 2), ptr @_ZTS26CustomCodeCompleteConsumer, ptr @_ZTIN5clang20CodeCompleteConsumerE }, comdat, align 8
@_ZTVN10__cxxabiv120__si_class_type_infoE = external global [0 x ptr]
@_ZTS26CustomCodeCompleteConsumer = linkonce_odr dso_local constant [29 x i8] c"26CustomCodeCompleteConsumer\00", comdat, align 1
@_ZTIN5clang20CodeCompleteConsumerE = external constant ptr
@_ZTVN5clang20CodeCompleteConsumerE = external unnamed_addr constant { [9 x ptr] }, align 8
@_ZTVSt23_Sp_counted_ptr_inplaceIN5clang29GlobalCodeCompletionAllocatorESaIvELN9__gnu_cxx12_Lock_policyE2EE = linkonce_odr dso_local unnamed_addr constant { [7 x ptr] } { [7 x ptr] [ptr null, ptr @_ZTISt23_Sp_counted_ptr_inplaceIN5clang29GlobalCodeCompletionAllocatorESaIvELN9__gnu_cxx12_Lock_policyE2EE, ptr @_ZNSt23_Sp_counted_ptr_inplaceIN5clang29GlobalCodeCompletionAllocatorESaIvELN9__gnu_cxx12_Lock_policyE2EED2Ev, ptr @_ZNSt23_Sp_counted_ptr_inplaceIN5clang29GlobalCodeCompletionAllocatorESaIvELN9__gnu_cxx12_Lock_policyE2EED0Ev, ptr @_ZNSt23_Sp_counted_ptr_inplaceIN5clang29GlobalCodeCompletionAllocatorESaIvELN9__gnu_cxx12_Lock_policyE2EE10_M_disposeEv, ptr @_ZNSt23_Sp_counted_ptr_inplaceIN5clang29GlobalCodeCompletionAllocatorESaIvELN9__gnu_cxx12_Lock_policyE2EE10_M_destroyEv, ptr @_ZNSt23_Sp_counted_ptr_inplaceIN5clang29GlobalCodeCompletionAllocatorESaIvELN9__gnu_cxx12_Lock_policyE2EE14_M_get_deleterERKSt9type_info] }, comdat, align 8
@_ZTISt23_Sp_counted_ptr_inplaceIN5clang29GlobalCodeCompletionAllocatorESaIvELN9__gnu_cxx12_Lock_policyE2EE = linkonce_odr dso_local constant { ptr, ptr, ptr } { ptr getelementptr inbounds (ptr, ptr @_ZTVN10__cxxabiv120__si_class_type_infoE, i64 2), ptr @_ZTSSt23_Sp_counted_ptr_inplaceIN5clang29GlobalCodeCompletionAllocatorESaIvELN9__gnu_cxx12_Lock_policyE2EE, ptr @_ZTISt16_Sp_counted_baseILN9__gnu_cxx12_Lock_policyE2EE }, comdat, align 8
@_ZTSSt23_Sp_counted_ptr_inplaceIN5clang29GlobalCodeCompletionAllocatorESaIvELN9__gnu_cxx12_Lock_policyE2EE = linkonce_odr dso_local constant [103 x i8] c"St23_Sp_counted_ptr_inplaceIN5clang29GlobalCodeCompletionAllocatorESaIvELN9__gnu_cxx12_Lock_policyE2EE\00", comdat, align 1
@_ZTISt16_Sp_counted_baseILN9__gnu_cxx12_Lock_policyE2EE = linkonce_odr dso_local constant { ptr, ptr, ptr } { ptr getelementptr inbounds (ptr, ptr @_ZTVN10__cxxabiv120__si_class_type_infoE, i64 2), ptr @_ZTSSt16_Sp_counted_baseILN9__gnu_cxx12_Lock_policyE2EE, ptr @_ZTISt11_Mutex_baseILN9__gnu_cxx12_Lock_policyE2EE }, comdat, align 8
@_ZTSSt16_Sp_counted_baseILN9__gnu_cxx12_Lock_policyE2EE = linkonce_odr dso_local constant [52 x i8] c"St16_Sp_counted_baseILN9__gnu_cxx12_Lock_policyE2EE\00", comdat, align 1
@_ZTISt11_Mutex_baseILN9__gnu_cxx12_Lock_policyE2EE = linkonce_odr dso_local constant { ptr, ptr } { ptr getelementptr inbounds (ptr, ptr @_ZTVN10__cxxabiv117__class_type_infoE, i64 2), ptr @_ZTSSt11_Mutex_baseILN9__gnu_cxx12_Lock_policyE2EE }, comdat, align 8
@_ZTVN10__cxxabiv117__class_type_infoE = external global [0 x ptr]
@_ZTSSt11_Mutex_baseILN9__gnu_cxx12_Lock_policyE2EE = linkonce_odr dso_local constant [47 x i8] c"St11_Mutex_baseILN9__gnu_cxx12_Lock_policyE2EE\00", comdat, align 1
@_ZTVSt16_Sp_counted_baseILN9__gnu_cxx12_Lock_policyE2EE = linkonce_odr dso_local unnamed_addr constant { [7 x ptr] } { [7 x ptr] [ptr null, ptr @_ZTISt16_Sp_counted_baseILN9__gnu_cxx12_Lock_policyE2EE, ptr @_ZNSt16_Sp_counted_baseILN9__gnu_cxx12_Lock_policyE2EED2Ev, ptr @_ZNSt16_Sp_counted_baseILN9__gnu_cxx12_Lock_policyE2EED0Ev, ptr @__cxa_pure_virtual, ptr @_ZNSt16_Sp_counted_baseILN9__gnu_cxx12_Lock_policyE2EE10_M_destroyEv, ptr @__cxa_pure_virtual] }, comdat, align 8
@_ZTISt19_Sp_make_shared_tag = linkonce_odr dso_local constant { ptr, ptr } { ptr getelementptr inbounds (ptr, ptr @_ZTVN10__cxxabiv117__class_type_infoE, i64 2), ptr @_ZTSSt19_Sp_make_shared_tag }, comdat, align 8
@_ZTSSt19_Sp_make_shared_tag = linkonce_odr dso_local constant [24 x i8] c"St19_Sp_make_shared_tag\00", comdat, align 1
@_ZZNSt19_Sp_make_shared_tag5_S_tiEvE5__tag = linkonce_odr dso_local constant [16 x i8] zeroinitializer, comdat, align 8
@.str.29 = private unnamed_addr constant [42 x i8] c"# initial buckets must be a power of two!\00", align 1
@.str.30 = private unnamed_addr constant [94 x i8] c"(getNumBuckets() & (getNumBuckets() - 1)) == 0 && \22# initial buckets must be a power of two!\22\00", align 1
@.str.31 = private unnamed_addr constant [33 x i8] c"/usr/include/llvm/ADT/DenseMap.h\00", align 1
@__PRETTY_FUNCTION__._ZN4llvm12DenseMapBaseINS_8DenseMapIPKN5clang11DeclContextENS_9StringRefENS_12DenseMapInfoIS5_vEENS_6detail12DenseMapPairIS5_S6_EEEES5_S6_S8_SB_E9initEmptyEv = private unnamed_addr constant [540 x i8] c"void llvm::DenseMapBase<llvm::DenseMap<const clang::DeclContext *, llvm::StringRef>, const clang::DeclContext *, llvm::StringRef, llvm::DenseMapInfo<const clang::DeclContext *>, llvm::detail::DenseMapPair<const clang::DeclContext *, llvm::StringRef>>::initEmpty() [DerivedT = llvm::DenseMap<const clang::DeclContext *, llvm::StringRef>, KeyT = const clang::DeclContext *, ValueT = llvm::StringRef, KeyInfoT = llvm::DenseMapInfo<const clang::DeclContext *>, BucketT = llvm::detail::DenseMapPair<const clang::DeclContext *, llvm::StringRef>]\00", align 1
@.str.32 = private unnamed_addr constant [43 x i8] c"cannot create object from initializer list\00", align 1
@_ZTISt12domain_error = external constant ptr
@.str.33 = private unnamed_addr constant [28 x i8] c"cannot use operator[] with \00", align 1
@.str.34 = private unnamed_addr constant [98 x i8] c"/usr/bin/../lib64/gcc/x86_64-pc-linux-gnu/15.2.1/../../../../include/c++/15.2.1/bits/stl_vector.h\00", align 1
@__PRETTY_FUNCTION__._ZNSt6vectorIN8nlohmann10basic_jsonISt3mapS_NSt7__cxx1112basic_stringIcSt11char_traitsIcESaIcEEEblmdSaNS0_14adl_serializerEEESaISA_EEixEm = private unnamed_addr constant [149 x i8] c"reference std::vector<nlohmann::basic_json<>>::operator[](size_type) [_Tp = nlohmann::basic_json<>, _Alloc = std::allocator<nlohmann::basic_json<>>]\00", align 1
@.str.35 = private unnamed_addr constant [19 x i8] c"__n < this->size()\00", align 1
@.str.36 = private unnamed_addr constant [22 x i8] c"basic_string::replace\00", align 1
@.str.37 = private unnamed_addr constant [25 x i8] c"basic_string::_M_replace\00", align 1
@.str.38 = private unnamed_addr constant [55 x i8] c"%s: __pos (which is %zu) > this->size() (which is %zu)\00", align 1
@.str.39 = private unnamed_addr constant [5 x i8] c"null\00", align 1
@.str.40 = private unnamed_addr constant [7 x i8] c"object\00", align 1
@.str.41 = private unnamed_addr constant [6 x i8] c"array\00", align 1
@.str.42 = private unnamed_addr constant [7 x i8] c"string\00", align 1
@.str.43 = private unnamed_addr constant [8 x i8] c"boolean\00", align 1
@.str.44 = private unnamed_addr constant [10 x i8] c"discarded\00", align 1
@.str.45 = private unnamed_addr constant [7 x i8] c"number\00", align 1
@.str.46 = private unnamed_addr constant [1 x i8] zeroinitializer, align 1
@.str.47 = private unnamed_addr constant [47 x i8] c"961c151d2e87f2686a955a9be24d316f1362bf21 2.1.1\00", align 1
@.str.48 = private unnamed_addr constant [18 x i8] c"object != nullptr\00", align 1
@.str.49 = private unnamed_addr constant [11 x i8] c"./json.hpp\00", align 1
@__PRETTY_FUNCTION__._ZN8nlohmann10basic_jsonISt3mapSt6vectorNSt7__cxx1112basic_stringIcSt11char_traitsIcESaIcEEEblmdSaNS_14adl_serializerEE6createIS1_IS8_SA_St4lessIS8_ESaISt4pairIKS8_SA_EEEJEEEPT_DpOT0_ = private unnamed_addr constant [397 x i8] c"static T *nlohmann::basic_json<>::create(Args &&...) [ObjectType = std::map, ArrayType = std::vector, StringType = std::basic_string<char>, BooleanType = bool, NumberIntegerType = long, NumberUnsignedType = unsigned long, NumberFloatType = double, AllocatorType = std::allocator, JSONSerializer = nlohmann::adl_serializer, T = std::map<std::basic_string<char>, nlohmann::basic_json<>>, Args = <>]\00", align 1
@__PRETTY_FUNCTION__._ZN8nlohmann10basic_jsonISt3mapSt6vectorNSt7__cxx1112basic_stringIcSt11char_traitsIcESaIcEEEblmdSaNS_14adl_serializerEE6createIS2_ISA_SaISA_EEJEEEPT_DpOT0_ = private unnamed_addr constant [375 x i8] c"static T *nlohmann::basic_json<>::create(Args &&...) [ObjectType = std::map, ArrayType = std::vector, StringType = std::basic_string<char>, BooleanType = bool, NumberIntegerType = long, NumberUnsignedType = unsigned long, NumberFloatType = double, AllocatorType = std::allocator, JSONSerializer = nlohmann::adl_serializer, T = std::vector<nlohmann::basic_json<>>, Args = <>]\00", align 1
@__PRETTY_FUNCTION__._ZN8nlohmann10basic_jsonISt3mapSt6vectorNSt7__cxx1112basic_stringIcSt11char_traitsIcESaIcEEEblmdSaNS_14adl_serializerEE6createIS8_JRA1_KcEEEPT_DpOT0_ = private unnamed_addr constant [380 x i8] c"static T *nlohmann::basic_json<>::create(Args &&...) [ObjectType = std::map, ArrayType = std::vector, StringType = std::basic_string<char>, BooleanType = bool, NumberIntegerType = long, NumberUnsignedType = unsigned long, NumberFloatType = double, AllocatorType = std::allocator, JSONSerializer = nlohmann::adl_serializer, T = std::basic_string<char>, Args = <const char (&)[1]>]\00", align 1
@__PRETTY_FUNCTION__._ZN8nlohmann10basic_jsonISt3mapSt6vectorNSt7__cxx1112basic_stringIcSt11char_traitsIcESaIcEEEblmdSaNS_14adl_serializerEE6createIS1_IS8_SA_St4lessIS8_ESaISt4pairIKS8_SA_EEEJRKSI_EEEPT_DpOT0_ = private unnamed_addr constant [462 x i8] c"static T *nlohmann::basic_json<>::create(Args &&...) [ObjectType = std::map, ArrayType = std::vector, StringType = std::basic_string<char>, BooleanType = bool, NumberIntegerType = long, NumberUnsignedType = unsigned long, NumberFloatType = double, AllocatorType = std::allocator, JSONSerializer = nlohmann::adl_serializer, T = std::map<std::basic_string<char>, nlohmann::basic_json<>>, Args = <const std::map<std::basic_string<char>, nlohmann::basic_json<>> &>]\00", align 1
@__PRETTY_FUNCTION__._ZN8nlohmann10basic_jsonISt3mapSt6vectorNSt7__cxx1112basic_stringIcSt11char_traitsIcESaIcEEEblmdSaNS_14adl_serializerEE6createIS2_ISA_SaISA_EEJRKSD_EEEPT_DpOT0_ = private unnamed_addr constant [418 x i8] c"static T *nlohmann::basic_json<>::create(Args &&...) [ObjectType = std::map, ArrayType = std::vector, StringType = std::basic_string<char>, BooleanType = bool, NumberIntegerType = long, NumberUnsignedType = unsigned long, NumberFloatType = double, AllocatorType = std::allocator, JSONSerializer = nlohmann::adl_serializer, T = std::vector<nlohmann::basic_json<>>, Args = <const std::vector<nlohmann::basic_json<>> &>]\00", align 1
@__PRETTY_FUNCTION__._ZN8nlohmann10basic_jsonISt3mapSt6vectorNSt7__cxx1112basic_stringIcSt11char_traitsIcESaIcEEEblmdSaNS_14adl_serializerEE6createIS8_JRKS8_EEEPT_DpOT0_ = private unnamed_addr constant [394 x i8] c"static T *nlohmann::basic_json<>::create(Args &&...) [ObjectType = std::map, ArrayType = std::vector, StringType = std::basic_string<char>, BooleanType = bool, NumberIntegerType = long, NumberUnsignedType = unsigned long, NumberFloatType = double, AllocatorType = std::allocator, JSONSerializer = nlohmann::adl_serializer, T = std::basic_string<char>, Args = <const std::basic_string<char> &>]\00", align 1
@__PRETTY_FUNCTION__._ZN8nlohmann10basic_jsonISt3mapSt6vectorNSt7__cxx1112basic_stringIcSt11char_traitsIcESaIcEEEblmdSaNS_14adl_serializerEE6createIS2_ISA_SaISA_EEJRSt16initializer_listISA_EEEEPT_DpOT0_ = private unnamed_addr constant [422 x i8] c"static T *nlohmann::basic_json<>::create(Args &&...) [ObjectType = std::map, ArrayType = std::vector, StringType = std::basic_string<char>, BooleanType = bool, NumberIntegerType = long, NumberUnsignedType = unsigned long, NumberFloatType = double, AllocatorType = std::allocator, JSONSerializer = nlohmann::adl_serializer, T = std::vector<nlohmann::basic_json<>>, Args = <std::initializer_list<nlohmann::basic_json<>> &>]\00", align 1
@.str.50 = private unnamed_addr constant [49 x i8] c"cannot create std::vector larger than max_size()\00", align 1
@.str.51 = private unnamed_addr constant [55 x i8] c"m_type != value_t::object or m_value.object != nullptr\00", align 1
@__PRETTY_FUNCTION__._ZNK8nlohmann10basic_jsonISt3mapSt6vectorNSt7__cxx1112basic_stringIcSt11char_traitsIcESaIcEEEblmdSaNS_14adl_serializerEE16assert_invariantEv = private unnamed_addr constant [324 x i8] c"void nlohmann::basic_json<>::assert_invariant() const [ObjectType = std::map, ArrayType = std::vector, StringType = std::basic_string<char>, BooleanType = bool, NumberIntegerType = long, NumberUnsignedType = unsigned long, NumberFloatType = double, AllocatorType = std::allocator, JSONSerializer = nlohmann::adl_serializer]\00", align 1
@.str.52 = private unnamed_addr constant [53 x i8] c"m_type != value_t::array or m_value.array != nullptr\00", align 1
@.str.53 = private unnamed_addr constant [55 x i8] c"m_type != value_t::string or m_value.string != nullptr\00", align 1
@_ZTVN4llvm18raw_string_ostreamE = external unnamed_addr constant { [15 x ptr] }, align 8
@_ZTVN4llvm11raw_ostreamE = external unnamed_addr constant { [15 x ptr] }, align 8
@.str.54 = private unnamed_addr constant [29 x i8] c"cannot use push_back() with \00", align 1
@__PRETTY_FUNCTION__._ZNSt6vectorIN8nlohmann10basic_jsonISt3mapS_NSt7__cxx1112basic_stringIcSt11char_traitsIcESaIcEEEblmdSaNS0_14adl_serializerEEESaISA_EE4backEv = private unnamed_addr constant [134 x i8] c"reference std::vector<nlohmann::basic_json<>>::back() [_Tp = nlohmann::basic_json<>, _Alloc = std::allocator<nlohmann::basic_json<>>]\00", align 1
@.str.55 = private unnamed_addr constant [15 x i8] c"!this->empty()\00", align 1
@.str.56 = private unnamed_addr constant [11 x i8] c"completion\00", align 1
@.str.57 = private unnamed_addr constant [9 x i8] c"location\00", align 1
@.str.58 = private unnamed_addr constant [5 x i8] c"type\00", align 1
@.str.59 = private unnamed_addr constant [5 x i8] c"name\00", align 1
@.str.60 = private unnamed_addr constant [11 x i8] c"parameters\00", align 1
@.str.61 = private unnamed_addr constant [8 x i8] c"Keyword\00", align 1
@.str.62 = private unnamed_addr constant [8 x i8] c"Pattern\00", align 1
@.str.63 = private unnamed_addr constant [6 x i8] c"Macro\00", align 1
@_ZN8nlohmann6detail12static_constINS0_10to_json_fnEE5valueE = linkonce_odr dso_local constant %"struct.nlohmann::detail::to_json_fn" undef, comdat, align 1
@.str.64 = private unnamed_addr constant [2 x i8] c"t\00", align 1
@.str.65 = private unnamed_addr constant [2 x i8] c":\00", align 1
@.str.66 = private unnamed_addr constant [2 x i8] c",\00", align 1
@.str.67 = private unnamed_addr constant [14 x i8] c"current_param\00", align 1
@.str.68 = private unnamed_addr constant [2 x i8] c"=\00", align 1
@.str.69 = private unnamed_addr constant [2 x i8] c" \00", align 1
@.str.70 = private unnamed_addr constant [5 x i8] c"info\00", align 1
@.str.71 = private unnamed_addr constant [2 x i8] c"<\00", align 1
@.str.72 = private unnamed_addr constant [2 x i8] c"{\00", align 1
@.str.73 = private unnamed_addr constant [2 x i8] c"[\00", align 1
@.str.74 = private unnamed_addr constant [2 x i8] c"(\00", align 1
@.str.75 = private unnamed_addr constant [9 x i8] c"optional\00", align 1
@.str.76 = private unnamed_addr constant [12 x i8] c"placeholder\00", align 1
@.str.77 = private unnamed_addr constant [4 x i8] c"res\00", align 1
@.str.78 = private unnamed_addr constant [2 x i8] c">\00", align 1
@.str.79 = private unnamed_addr constant [2 x i8] c"}\00", align 1
@.str.80 = private unnamed_addr constant [2 x i8] c"]\00", align 1
@.str.81 = private unnamed_addr constant [2 x i8] c")\00", align 1
@.str.82 = private unnamed_addr constant [2 x i8] c";\00", align 1
@.str.83 = private unnamed_addr constant [10 x i8] c"typedtext\00", align 1
@.str.84 = private unnamed_addr constant [7 x i8] c"chunks\00", align 1
@.str.85 = private unnamed_addr constant [6 x i8] c"brief\00", align 1
@.str.86 = private unnamed_addr constant [10 x i8] c"isValid()\00", align 1
@.str.87 = private unnamed_addr constant [42 x i8] c"/usr/include/clang/Basic/SourceLocation.h\00", align 1
@__PRETTY_FUNCTION__._ZNK5clang11PresumedLoc11getFilenameEv = private unnamed_addr constant [52 x i8] c"const char *clang::PresumedLoc::getFilename() const\00", align 1
@_ZSt19piecewise_construct = linkonce_odr dso_local constant %"struct.std::piecewise_construct_t" zeroinitializer, comdat, align 1
@.str.88 = private unnamed_addr constant [33 x i8] c"dyn_cast on a non-existent value\00", align 1
@.str.89 = private unnamed_addr constant [61 x i8] c"detail::isPresent(Val) && \22dyn_cast on a non-existent value\22\00", align 1
@.str.90 = private unnamed_addr constant [36 x i8] c"/usr/include/llvm/Support/Casting.h\00", align 1
@__PRETTY_FUNCTION__._ZN4llvm8dyn_castIN5clang12FunctionDeclEKNS1_9NamedDeclEEEDcPT0_ = private unnamed_addr constant [96 x i8] c"decltype(auto) llvm::dyn_cast(From *) [To = clang::FunctionDecl, From = const clang::NamedDecl]\00", align 1
@.str.91 = private unnamed_addr constant [29 x i8] c"isa<> used on a null pointer\00", align 1
@.str.92 = private unnamed_addr constant [38 x i8] c"Val && \22isa<> used on a null pointer\22\00", align 1
@__PRETTY_FUNCTION__._ZN4llvm11isa_impl_clIN5clang12FunctionDeclEPKNS1_9NamedDeclEE4doitES5_ = private unnamed_addr constant [157 x i8] c"static bool llvm::isa_impl_cl<clang::FunctionDecl, const clang::NamedDecl *>::doit(const From *) [To = clang::FunctionDecl, From = const clang::NamedDecl *]\00", align 1
@.str.93 = private unnamed_addr constant [15 x i8] c"Invalid index!\00", align 1
@.str.94 = private unnamed_addr constant [35 x i8] c"Index < Length && \22Invalid index!\22\00", align 1
@.str.95 = private unnamed_addr constant [33 x i8] c"/usr/include/llvm/ADT/ArrayRef.h\00", align 1
@__PRETTY_FUNCTION__._ZNK4llvm8ArrayRefIPN5clang11ParmVarDeclEEixEm = private unnamed_addr constant [99 x i8] c"const T &llvm::ArrayRef<clang::ParmVarDecl *>::operator[](size_t) const [T = clang::ParmVarDecl *]\00", align 1
@.str.96 = private unnamed_addr constant [13 x i8] c"AllocatorRef\00", align 1
@.str.97 = private unnamed_addr constant [47 x i8] c"/usr/include/clang/Sema/CodeCompleteConsumer.h\00", align 1
@__PRETTY_FUNCTION__._ZNK5clang20CodeCompletionTUInfo12getAllocatorEv = private unnamed_addr constant [75 x i8] c"CodeCompletionAllocator &clang::CodeCompletionTUInfo::getAllocator() const\00", align 1
@__PRETTY_FUNCTION__._ZSt18__shared_ptr_derefIN5clang29GlobalCodeCompletionAllocatorEEPT_S3_ = private unnamed_addr constant [81 x i8] c"_Tp *std::__shared_ptr_deref(_Tp *) [_Tp = clang::GlobalCodeCompletionAllocator]\00", align 1
@__PRETTY_FUNCTION__._ZSt18__shared_ptr_derefIN5clang15FrontendOptionsEEPT_S3_ = private unnamed_addr constant [67 x i8] c"_Tp *std::__shared_ptr_deref(_Tp *) [_Tp = clang::FrontendOptions]\00", align 1
@.str.98 = private unnamed_addr constant [50 x i8] c"basic_string: construction from null is not valid\00", align 1
@__PRETTY_FUNCTION__._ZSt18__shared_ptr_derefIN5clang19PreprocessorOptionsEEPT_S3_ = private unnamed_addr constant [71 x i8] c"_Tp *std::__shared_ptr_deref(_Tp *) [_Tp = clang::PreprocessorOptions]\00", align 1
@__PRETTY_FUNCTION__._ZNSt6vectorISt4pairINSt7__cxx1112basic_stringIcSt11char_traitsIcESaIcEEEPN4llvm12MemoryBufferEESaISA_EE4backEv = private unnamed_addr constant [236 x i8] c"reference std::vector<std::pair<std::basic_string<char>, llvm::MemoryBuffer *>>::back() [_Tp = std::pair<std::basic_string<char>, llvm::MemoryBuffer *>, _Alloc = std::allocator<std::pair<std::basic_string<char>, llvm::MemoryBuffer *>>]\00", align 1
@_ZTVN5clang16SyntaxOnlyActionE = external unnamed_addr constant { [19 x ptr] }, align 8
@_ZTVN5clang17ASTFrontendActionE = external unnamed_addr constant { [19 x ptr] }, align 8
@.str.99 = private unnamed_addr constant [34 x i8] c"Reference count was already zero.\00", align 1
@.str.100 = private unnamed_addr constant [56 x i8] c"NewRefCount >= 0 && \22Reference count was already zero.\22\00", align 1
@.str.101 = private unnamed_addr constant [43 x i8] c"/usr/include/llvm/ADT/IntrusiveRefCntPtr.h\00", align 1
@__PRETTY_FUNCTION__._ZNK4llvm24ThreadSafeRefCountedBaseINS_3vfs10FileSystemEE7ReleaseEv = private unnamed_addr constant [110 x i8] c"void llvm::ThreadSafeRefCountedBase<llvm::vfs::FileSystem>::Release() const [Derived = llvm::vfs::FileSystem]\00", align 1
@.str.102 = private unnamed_addr constant [3 x i8] c"{}\00", align 1
@.str.103 = private unnamed_addr constant [3 x i8] c",\0A\00", align 1
@.str.104 = private unnamed_addr constant [2 x i8] c"\22\00", align 1
@.str.105 = private unnamed_addr constant [3 x i8] c"\22:\00", align 1
@.str.106 = private unnamed_addr constant [3 x i8] c"[]\00", align 1
@.str.107 = private unnamed_addr constant [5 x i8] c"true\00", align 1
@.str.108 = private unnamed_addr constant [6 x i8] c"false\00", align 1
@.str.109 = private unnamed_addr constant [12 x i8] c"<discarded>\00", align 1
@_ZZN8nlohmann10basic_jsonISt3mapSt6vectorNSt7__cxx1112basic_stringIcSt11char_traitsIcESaIcEEEblmdSaNS_14adl_serializerEE13escape_stringERKS8_E6hexify = linkonce_odr dso_local constant [16 x i8] c"0123456789abcdef", comdat, align 16
@.str.110 = private unnamed_addr constant [100 x i8] c"/usr/bin/../lib64/gcc/x86_64-pc-linux-gnu/15.2.1/../../../../include/c++/15.2.1/bits/basic_string.h\00", align 1
@__PRETTY_FUNCTION__._ZNSt7__cxx1112basic_stringIcSt11char_traitsIcESaIcEEixEm = private unnamed_addr constant [138 x i8] c"reference std::basic_string<char>::operator[](size_type) [_CharT = char, _Traits = std::char_traits<char>, _Alloc = std::allocator<char>]\00", align 1
@.str.111 = private unnamed_addr constant [16 x i8] c"__pos <= size()\00", align 1
@.str.112 = private unnamed_addr constant [21 x i8] c"basic_string::append\00", align 1
@.str.113 = private unnamed_addr constant [7 x i8] c"x == 0\00", align 1
@__PRETTY_FUNCTION__._ZN8nlohmann10basic_jsonISt3mapSt6vectorNSt7__cxx1112basic_stringIcSt11char_traitsIcESaIcEEEblmdSaNS_14adl_serializerEE8numtostr7x_writeIlEEvT_St17integral_constantIbLb1EE = private unnamed_addr constant [364 x i8] c"void nlohmann::basic_json<>::numtostr::x_write(NumberType, std::true_type) [ObjectType = std::map, ArrayType = std::vector, StringType = std::basic_string<char>, BooleanType = bool, NumberIntegerType = long, NumberUnsignedType = unsigned long, NumberFloatType = double, AllocatorType = std::allocator, JSONSerializer = nlohmann::adl_serializer, NumberType = long]\00", align 1
@.str.114 = private unnamed_addr constant [21 x i8] c"i < m_buf.size() - 2\00", align 1
@.str.115 = private unnamed_addr constant [86 x i8] c"/usr/bin/../lib64/gcc/x86_64-pc-linux-gnu/15.2.1/../../../../include/c++/15.2.1/array\00", align 1
@__PRETTY_FUNCTION__._ZNSt5arrayIcLm64EEixEm = private unnamed_addr constant [77 x i8] c"reference std::array<char, 64>::operator[](size_type) [_Tp = char, _Nm = 64]\00", align 1
@__PRETTY_FUNCTION__._ZN8nlohmann10basic_jsonISt3mapSt6vectorNSt7__cxx1112basic_stringIcSt11char_traitsIcESaIcEEEblmdSaNS_14adl_serializerEE8numtostr7x_writeImEEvT_St17integral_constantIbLb1EE = private unnamed_addr constant [373 x i8] c"void nlohmann::basic_json<>::numtostr::x_write(NumberType, std::true_type) [ObjectType = std::map, ArrayType = std::vector, StringType = std::basic_string<char>, BooleanType = bool, NumberIntegerType = long, NumberUnsignedType = unsigned long, NumberFloatType = double, AllocatorType = std::allocator, JSONSerializer = nlohmann::adl_serializer, NumberType = unsigned long]\00", align 1
@_ZZN8nlohmann10basic_jsonISt3mapSt6vectorNSt7__cxx1112basic_stringIcSt11char_traitsIcESaIcEEEblmdSaNS_14adl_serializerEE8numtostr7x_writeIdEEvT_St17integral_constantIbLb0EEE1d = linkonce_odr dso_local constant i32 15, comdat, align 4
@.str.116 = private unnamed_addr constant [5 x i8] c"%.*g\00", align 1
@.str.117 = private unnamed_addr constant [18 x i8] c"written_bytes > 0\00", align 1
@__PRETTY_FUNCTION__._ZN8nlohmann10basic_jsonISt3mapSt6vectorNSt7__cxx1112basic_stringIcSt11char_traitsIcESaIcEEEblmdSaNS_14adl_serializerEE8numtostr7x_writeIdEEvT_St17integral_constantIbLb0EE = private unnamed_addr constant [367 x i8] c"void nlohmann::basic_json<>::numtostr::x_write(NumberType, std::false_type) [ObjectType = std::map, ArrayType = std::vector, StringType = std::basic_string<char>, BooleanType = bool, NumberIntegerType = long, NumberUnsignedType = unsigned long, NumberFloatType = double, AllocatorType = std::allocator, JSONSerializer = nlohmann::adl_serializer, NumberType = double]\00", align 1
@.str.118 = private unnamed_addr constant [50 x i8] c"static_cast<size_t>(written_bytes) < m_buf.size()\00", align 1
@.str.119 = private unnamed_addr constant [15 x i8] c"loc != nullptr\00", align 1
@.str.120 = private unnamed_addr constant [23 x i8] c"(i + 2) < m_buf.size()\00", align 1
@.str.121 = private unnamed_addr constant [17 x i8] c"m_buf[i] == '\\0'\00", align 1
@.str.122 = private unnamed_addr constant [21 x i8] c"m_buf[i - 1] != '\\0'\00", align 1
@.str.123 = private unnamed_addr constant [21 x i8] c"m_buf[i + 2] == '\\0'\00", align 1
@__PRETTY_FUNCTION__._ZNSt6vectorINSt7__cxx1112basic_stringIcSt11char_traitsIcESaIcEEESaIS5_EEixEm = private unnamed_addr constant [152 x i8] c"reference std::vector<std::basic_string<char>>::operator[](size_type) [_Tp = std::basic_string<char>, _Alloc = std::allocator<std::basic_string<char>>]\00", align 1
@_ZTVSt23_Sp_counted_ptr_inplaceIN5clang22PCHContainerOperationsESaIvELN9__gnu_cxx12_Lock_policyE2EE = linkonce_odr dso_local unnamed_addr constant { [7 x ptr] } { [7 x ptr] [ptr null, ptr @_ZTISt23_Sp_counted_ptr_inplaceIN5clang22PCHContainerOperationsESaIvELN9__gnu_cxx12_Lock_policyE2EE, ptr @_ZNSt23_Sp_counted_ptr_inplaceIN5clang22PCHContainerOperationsESaIvELN9__gnu_cxx12_Lock_policyE2EED2Ev, ptr @_ZNSt23_Sp_counted_ptr_inplaceIN5clang22PCHContainerOperationsESaIvELN9__gnu_cxx12_Lock_policyE2EED0Ev, ptr @_ZNSt23_Sp_counted_ptr_inplaceIN5clang22PCHContainerOperationsESaIvELN9__gnu_cxx12_Lock_policyE2EE10_M_disposeEv, ptr @_ZNSt23_Sp_counted_ptr_inplaceIN5clang22PCHContainerOperationsESaIvELN9__gnu_cxx12_Lock_policyE2EE10_M_destroyEv, ptr @_ZNSt23_Sp_counted_ptr_inplaceIN5clang22PCHContainerOperationsESaIvELN9__gnu_cxx12_Lock_policyE2EE14_M_get_deleterERKSt9type_info] }, comdat, align 8
@_ZTISt23_Sp_counted_ptr_inplaceIN5clang22PCHContainerOperationsESaIvELN9__gnu_cxx12_Lock_policyE2EE = linkonce_odr dso_local constant { ptr, ptr, ptr } { ptr getelementptr inbounds (ptr, ptr @_ZTVN10__cxxabiv120__si_class_type_infoE, i64 2), ptr @_ZTSSt23_Sp_counted_ptr_inplaceIN5clang22PCHContainerOperationsESaIvELN9__gnu_cxx12_Lock_policyE2EE, ptr @_ZTISt16_Sp_counted_baseILN9__gnu_cxx12_Lock_policyE2EE }, comdat, align 8
@_ZTSSt23_Sp_counted_ptr_inplaceIN5clang22PCHContainerOperationsESaIvELN9__gnu_cxx12_Lock_policyE2EE = linkonce_odr dso_local constant [96 x i8] c"St23_Sp_counted_ptr_inplaceIN5clang22PCHContainerOperationsESaIvELN9__gnu_cxx12_Lock_policyE2EE\00", comdat, align 1
@_ZTVSt23_Sp_counted_ptr_inplaceIN5clang13TargetOptionsESaIvELN9__gnu_cxx12_Lock_policyE2EE = linkonce_odr dso_local unnamed_addr constant { [7 x ptr] } { [7 x ptr] [ptr null, ptr @_ZTISt23_Sp_counted_ptr_inplaceIN5clang13TargetOptionsESaIvELN9__gnu_cxx12_Lock_policyE2EE, ptr @_ZNSt23_Sp_counted_ptr_inplaceIN5clang13TargetOptionsESaIvELN9__gnu_cxx12_Lock_policyE2EED2Ev, ptr @_ZNSt23_Sp_counted_ptr_inplaceIN5clang13TargetOptionsESaIvELN9__gnu_cxx12_Lock_policyE2EED0Ev, ptr @_ZNSt23_Sp_counted_ptr_inplaceIN5clang13TargetOptionsESaIvELN9__gnu_cxx12_Lock_policyE2EE10_M_disposeEv, ptr @_ZNSt23_Sp_counted_ptr_inplaceIN5clang13TargetOptionsESaIvELN9__gnu_cxx12_Lock_policyE2EE10_M_destroyEv, ptr @_ZNSt23_Sp_counted_ptr_inplaceIN5clang13TargetOptionsESaIvELN9__gnu_cxx12_Lock_policyE2EE14_M_get_deleterERKSt9type_info] }, comdat, align 8
@_ZTISt23_Sp_counted_ptr_inplaceIN5clang13TargetOptionsESaIvELN9__gnu_cxx12_Lock_policyE2EE = linkonce_odr dso_local constant { ptr, ptr, ptr } { ptr getelementptr inbounds (ptr, ptr @_ZTVN10__cxxabiv120__si_class_type_infoE, i64 2), ptr @_ZTSSt23_Sp_counted_ptr_inplaceIN5clang13TargetOptionsESaIvELN9__gnu_cxx12_Lock_policyE2EE, ptr @_ZTISt16_Sp_counted_baseILN9__gnu_cxx12_Lock_policyE2EE }, comdat, align 8
@_ZTSSt23_Sp_counted_ptr_inplaceIN5clang13TargetOptionsESaIvELN9__gnu_cxx12_Lock_policyE2EE = linkonce_odr dso_local constant [87 x i8] c"St23_Sp_counted_ptr_inplaceIN5clang13TargetOptionsESaIvELN9__gnu_cxx12_Lock_policyE2EE\00", comdat, align 1
@.str.124 = private unnamed_addr constant [13 x i8] c"idx < size()\00", align 1
@.str.125 = private unnamed_addr constant [36 x i8] c"/usr/include/llvm/ADT/SmallVector.h\00", align 1
@__PRETTY_FUNCTION__._ZN4llvm25SmallVectorTemplateCommonIN5clang17FrontendInputFileEvEixEm = private unnamed_addr constant [122 x i8] c"reference llvm::SmallVectorTemplateCommon<clang::FrontendInputFile>::operator[](size_type) [T = clang::FrontendInputFile]\00", align 1
@llvm.compiler.used = appending global [2 x ptr] [ptr @_ZN5clang23ConstructionContextItem15getKindAsStringENS0_8ItemKindE, ptr @_ZNK5clang23ConstructionContextItem15getKindAsStringEv], section "llvm.metadata"

; Function Attrs: mustprogress noinline optnone sspstrong uwtable
define linkonce_odr dso_local { ptr, i64 } @_ZN5clang23ConstructionContextItem15getKindAsStringENS0_8ItemKindE(i32 noundef %0) #0 comdat align 2 {
  %2 = alloca %"class.llvm::StringRef", align 8
  %3 = alloca i32, align 4
  store i32 %0, ptr %3, align 4
  %4 = load i32, ptr %3, align 4
  switch i32 %4, label %15 [
    i32 0, label %5
    i32 1, label %6
    i32 2, label %7
    i32 3, label %8
    i32 4, label %9
    i32 5, label %10
    i32 6, label %11
    i32 7, label %12
    i32 8, label %13
    i32 9, label %14
  ]

5:                                                ; preds = %1
  call void @_ZN4llvm9StringRefC2EPKc(ptr noundef nonnull align 8 dereferenceable(16) %2, ptr noundef @.str)
  br label %16

6:                                                ; preds = %1
  call void @_ZN4llvm9StringRefC2EPKc(ptr noundef nonnull align 8 dereferenceable(16) %2, ptr noundef @.str.1)
  br label %16

7:                                                ; preds = %1
  call void @_ZN4llvm9StringRefC2EPKc(ptr noundef nonnull align 8 dereferenceable(16) %2, ptr noundef @.str.2)
  br label %16

8:                                                ; preds = %1
  call void @_ZN4llvm9StringRefC2EPKc(ptr noundef nonnull align 8 dereferenceable(16) %2, ptr noundef @.str.3)
  br label %16

9:                                                ; preds = %1
  call void @_ZN4llvm9StringRefC2EPKc(ptr noundef nonnull align 8 dereferenceable(16) %2, ptr noundef @.str.4)
  br label %16

10:                                               ; preds = %1
  call void @_ZN4llvm9StringRefC2EPKc(ptr noundef nonnull align 8 dereferenceable(16) %2, ptr noundef @.str.5)
  br label %16

11:                                               ; preds = %1
  call void @_ZN4llvm9StringRefC2EPKc(ptr noundef nonnull align 8 dereferenceable(16) %2, ptr noundef @.str.6)
  br label %16

12:                                               ; preds = %1
  call void @_ZN4llvm9StringRefC2EPKc(ptr noundef nonnull align 8 dereferenceable(16) %2, ptr noundef @.str.7)
  br label %16

13:                                               ; preds = %1
  call void @_ZN4llvm9StringRefC2EPKc(ptr noundef nonnull align 8 dereferenceable(16) %2, ptr noundef @.str.8)
  br label %16

14:                                               ; preds = %1
  call void @_ZN4llvm9StringRefC2EPKc(ptr noundef nonnull align 8 dereferenceable(16) %2, ptr noundef @.str.9)
  br label %16

15:                                               ; preds = %1
  call void @_ZN4llvm25llvm_unreachable_internalEPKcS1_j(ptr noundef @.str.10, ptr noundef @.str.11, i32 noundef 63) #18
  unreachable

16:                                               ; preds = %14, %13, %12, %11, %10, %9, %8, %7, %6, %5
  %17 = load { ptr, i64 }, ptr %2, align 8
  ret { ptr, i64 } %17
}

; Function Attrs: mustprogress noinline optnone sspstrong uwtable
define linkonce_odr dso_local void @_ZN4llvm9StringRefC2EPKc(ptr noundef nonnull align 8 dereferenceable(16) %0, ptr noundef %1) unnamed_addr #0 comdat align 2 {
  %3 = alloca ptr, align 8
  %4 = alloca ptr, align 8
  store ptr %0, ptr %3, align 8
  store ptr %1, ptr %4, align 8
  %5 = load ptr, ptr %3, align 8
  %6 = getelementptr inbounds nuw %"class.llvm::StringRef", ptr %5, i32 0, i32 0
  %7 = load ptr, ptr %4, align 8
  store ptr %7, ptr %6, align 8
  %8 = getelementptr inbounds nuw %"class.llvm::StringRef", ptr %5, i32 0, i32 1
  %9 = load ptr, ptr %4, align 8
  %10 = icmp ne ptr %9, null
  br i1 %10, label %11, label %14

11:                                               ; preds = %2
  %12 = load ptr, ptr %4, align 8
  %13 = call noundef i64 @_ZNSt11char_traitsIcE6lengthEPKc(ptr noundef %12)
  br label %15

14:                                               ; preds = %2
  br label %15

15:                                               ; preds = %14, %11
  %16 = phi i64 [ %13, %11 ], [ 0, %14 ]
  store i64 %16, ptr %8, align 8
  ret void
}

; Function Attrs: noreturn
declare void @_ZN4llvm25llvm_unreachable_internalEPKcS1_j(ptr noundef, ptr noundef, i32 noundef) #1

; Function Attrs: mustprogress noinline optnone sspstrong uwtable
define linkonce_odr dso_local { ptr, i64 } @_ZNK5clang23ConstructionContextItem15getKindAsStringEv(ptr noundef nonnull align 8 dereferenceable(16) %0) #0 comdat align 2 {
  %2 = alloca %"class.llvm::StringRef", align 8
  %3 = alloca ptr, align 8
  store ptr %0, ptr %3, align 8
  %4 = load ptr, ptr %3, align 8
  %5 = call noundef i32 @_ZNK5clang23ConstructionContextItem7getKindEv(ptr noundef nonnull align 8 dereferenceable(16) %4)
  %6 = call { ptr, i64 } @_ZN5clang23ConstructionContextItem15getKindAsStringENS0_8ItemKindE(i32 noundef %5)
  %7 = getelementptr inbounds nuw { ptr, i64 }, ptr %2, i32 0, i32 0
  %8 = extractvalue { ptr, i64 } %6, 0
  store ptr %8, ptr %7, align 8
  %9 = getelementptr inbounds nuw { ptr, i64 }, ptr %2, i32 0, i32 1
  %10 = extractvalue { ptr, i64 } %6, 1
  store i64 %10, ptr %9, align 8
  %11 = load { ptr, i64 }, ptr %2, align 8
  ret { ptr, i64 } %11
}

; Function Attrs: mustprogress noinline nounwind optnone sspstrong uwtable
define linkonce_odr dso_local noundef i32 @_ZNK5clang23ConstructionContextItem7getKindEv(ptr noundef nonnull align 8 dereferenceable(16) %0) #2 comdat align 2 {
  %2 = alloca ptr, align 8
  store ptr %0, ptr %2, align 8
  %3 = load ptr, ptr %2, align 8
  %4 = getelementptr inbounds nuw %"class.clang::ConstructionContextItem", ptr %3, i32 0, i32 1
  %5 = load i32, ptr %4, align 8
  ret i32 %5
}

; Function Attrs: mustprogress noinline optnone sspstrong uwtable
define dso_local noundef i32 @_Z29FindRealLineForCodeCompletionRNSt7__cxx1112basic_stringIcSt11char_traitsIcESaIcEEES5_i(ptr noundef nonnull align 8 dereferenceable(32) %0, ptr noundef nonnull align 8 dereferenceable(32) %1, i32 noundef %2) #0 personality ptr @__gxx_personality_v0 {
  %4 = alloca ptr, align 8
  %5 = alloca ptr, align 8
  %6 = alloca ptr, align 8
  %7 = alloca ptr, align 8
  %8 = alloca ptr, align 8
  %9 = alloca ptr, align 8
  %10 = alloca ptr, align 8
  %11 = alloca ptr, align 8
  %12 = alloca ptr, align 8
  %13 = alloca ptr, align 8
  %14 = alloca ptr, align 8
  %15 = alloca ptr, align 8
  %16 = alloca ptr, align 8
  %17 = alloca ptr, align 8
  %18 = alloca i32, align 4
  %19 = alloca ptr, align 8
  %20 = alloca ptr, align 8
  %21 = alloca i32, align 4
  %22 = alloca i32, align 4
  %23 = alloca i32, align 4
  %24 = alloca i8, align 1
  %25 = alloca ptr, align 8
  %26 = alloca %"class.std::vector", align 8
  %27 = alloca %"class.__gnu_cxx::__normal_iterator", align 8
  %28 = alloca %"class.__gnu_cxx::__normal_iterator", align 8
  %29 = alloca i32, align 4
  %30 = alloca ptr, align 8
  %31 = alloca %"class.std::__cxx11::basic_string", align 8
  %32 = alloca %"class.std::allocator.0", align 1
  %33 = alloca ptr, align 8
  %34 = alloca i32, align 4
  %35 = alloca %"class.std::__cxx11::basic_string", align 8
  %36 = alloca %"class.std::allocator.0", align 1
  %37 = alloca i1, align 1
  %38 = alloca i1, align 1
  %39 = alloca %"class.std::vector", align 8
  %40 = alloca i32, align 4
  store ptr %0, ptr %19, align 8
  store ptr %1, ptr %20, align 8
  store i32 %2, ptr %21, align 4
  store i32 1, ptr %22, align 4
  store i32 1, ptr %23, align 4
  store i8 0, ptr %24, align 1
  %41 = load ptr, ptr %19, align 8
  call void @_Z5splitRKNSt7__cxx1112basic_stringIcSt11char_traitsIcESaIcEEEc(ptr dead_on_unwind writable sret(%"class.std::vector") align 8 %26, ptr noundef nonnull align 8 dereferenceable(32) %41, i8 noundef signext 10)
  store ptr %26, ptr %25, align 8
  %42 = load ptr, ptr %25, align 8
  %43 = call ptr @_ZNSt6vectorINSt7__cxx1112basic_stringIcSt11char_traitsIcESaIcEEESaIS5_EE5beginEv(ptr noundef nonnull align 8 dereferenceable(24) %42) #19
  %44 = getelementptr inbounds nuw %"class.__gnu_cxx::__normal_iterator", ptr %27, i32 0, i32 0
  store ptr %43, ptr %44, align 8
  %45 = load ptr, ptr %25, align 8
  %46 = call ptr @_ZNSt6vectorINSt7__cxx1112basic_stringIcSt11char_traitsIcESaIcEEESaIS5_EE3endEv(ptr noundef nonnull align 8 dereferenceable(24) %45) #19
  %47 = getelementptr inbounds nuw %"class.__gnu_cxx::__normal_iterator", ptr %28, i32 0, i32 0
  store ptr %46, ptr %47, align 8
  br label %48

48:                                               ; preds = %159, %3
  store ptr %27, ptr %16, align 8
  store ptr %28, ptr %17, align 8
  %49 = load ptr, ptr %16, align 8
  store ptr %49, ptr %6, align 8
  %50 = load ptr, ptr %6, align 8
  %51 = load ptr, ptr %50, align 8
  %52 = load ptr, ptr %17, align 8
  store ptr %52, ptr %7, align 8
  %53 = load ptr, ptr %7, align 8
  %54 = load ptr, ptr %53, align 8
  %55 = icmp ne ptr %51, %54
  br i1 %55, label %57, label %56

56:                                               ; preds = %48
  store i32 2, ptr %29, align 4
  br label %163

57:                                               ; preds = %48
  store ptr %27, ptr %15, align 8
  %58 = load ptr, ptr %15, align 8
  %59 = load ptr, ptr %58, align 8
  store ptr %59, ptr %30, align 8
  %60 = load i32, ptr %23, align 4
  %61 = add nsw i32 %60, 1
  store i32 %61, ptr %23, align 4
  %62 = load i32, ptr %22, align 4
  %63 = add nsw i32 %62, 1
  store i32 %63, ptr %22, align 4
  %64 = load ptr, ptr %30, align 8
  store ptr %32, ptr %14, align 8
  %65 = load ptr, ptr %14, align 8
  store ptr %65, ptr %4, align 8
  %66 = load ptr, ptr %4, align 8
  store i1 false, ptr %37, align 1
  store i1 false, ptr %38, align 1
  invoke void @_ZNSt7__cxx1112basic_stringIcSt11char_traitsIcESaIcEEC2IS3_EEPKcRKS3_(ptr noundef nonnull align 8 dereferenceable(32) %31, ptr noundef @.str.12, ptr noundef nonnull align 1 dereferenceable(1) %32)
          to label %67 unwind label %95

67:                                               ; preds = %57
  %68 = invoke noundef zeroext i1 @_Z10startsWithRKNSt7__cxx1112basic_stringIcSt11char_traitsIcESaIcEEES6_(ptr noundef nonnull align 8 dereferenceable(32) %64, ptr noundef nonnull align 8 dereferenceable(32) %31)
          to label %69 unwind label %99

69:                                               ; preds = %67
  br i1 %68, label %77, label %70

70:                                               ; preds = %69
  %71 = load ptr, ptr %30, align 8
  store ptr %36, ptr %13, align 8
  %72 = load ptr, ptr %13, align 8
  store ptr %72, ptr %5, align 8
  %73 = load ptr, ptr %5, align 8
  store i1 true, ptr %37, align 1
  invoke void @_ZNSt7__cxx1112basic_stringIcSt11char_traitsIcESaIcEEC2IS3_EEPKcRKS3_(ptr noundef nonnull align 8 dereferenceable(32) %35, ptr noundef @.str.13, ptr noundef nonnull align 1 dereferenceable(1) %36)
          to label %74 unwind label %103

74:                                               ; preds = %70
  store i1 true, ptr %38, align 1
  %75 = invoke noundef zeroext i1 @_Z10startsWithRKNSt7__cxx1112basic_stringIcSt11char_traitsIcESaIcEEES6_(ptr noundef nonnull align 8 dereferenceable(32) %71, ptr noundef nonnull align 8 dereferenceable(32) %35)
          to label %76 unwind label %107

76:                                               ; preds = %74
  br label %77

77:                                               ; preds = %76, %69
  %78 = phi i1 [ true, %69 ], [ %75, %76 ]
  %79 = load i1, ptr %38, align 1
  br i1 %79, label %80, label %81

80:                                               ; preds = %77
  call void @_ZNSt7__cxx1112basic_stringIcSt11char_traitsIcESaIcEED2Ev(ptr noundef nonnull align 8 dereferenceable(32) %35) #19
  br label %81

81:                                               ; preds = %80, %77
  %82 = load i1, ptr %37, align 1
  br i1 %82, label %83, label %85

83:                                               ; preds = %81
  store ptr %36, ptr %12, align 8
  %84 = load ptr, ptr %12, align 8
  call void @_ZNSt15__new_allocatorIcED2Ev(ptr noundef nonnull align 1 dereferenceable(1) %84) #19
  br label %85

85:                                               ; preds = %83, %81
  call void @_ZNSt7__cxx1112basic_stringIcSt11char_traitsIcESaIcEED2Ev(ptr noundef nonnull align 8 dereferenceable(32) %31) #19
  store ptr %32, ptr %10, align 8
  %86 = load ptr, ptr %10, align 8
  call void @_ZNSt15__new_allocatorIcED2Ev(ptr noundef nonnull align 1 dereferenceable(1) %86) #19
  br i1 %78, label %87, label %138

87:                                               ; preds = %85
  %88 = load ptr, ptr %30, align 8
  invoke void @_Z5splitRKNSt7__cxx1112basic_stringIcSt11char_traitsIcESaIcEEEc(ptr dead_on_unwind writable sret(%"class.std::vector") align 8 %39, ptr noundef nonnull align 8 dereferenceable(32) %88, i8 noundef signext 32)
          to label %89 unwind label %122

89:                                               ; preds = %87
  %90 = call noundef nonnull align 8 dereferenceable(32) ptr @_ZNSt6vectorINSt7__cxx1112basic_stringIcSt11char_traitsIcESaIcEEESaIS5_EEixEm(ptr noundef nonnull align 8 dereferenceable(24) %39, i64 noundef 1) #19
  %91 = invoke noundef zeroext i1 @_Z11stringToIntRKNSt7__cxx1112basic_stringIcSt11char_traitsIcESaIcEEEPi(ptr noundef nonnull align 8 dereferenceable(32) %90, ptr noundef %40)
          to label %92 unwind label %126

92:                                               ; preds = %89
  br i1 %91, label %93, label %130

93:                                               ; preds = %92
  %94 = load i32, ptr %40, align 4
  store i32 %94, ptr %22, align 4
  br label %130

95:                                               ; preds = %57
  %96 = landingpad { ptr, i32 }
          cleanup
  %97 = extractvalue { ptr, i32 } %96, 0
  store ptr %97, ptr %33, align 8
  %98 = extractvalue { ptr, i32 } %96, 1
  store i32 %98, ptr %34, align 4
  br label %120

99:                                               ; preds = %67
  %100 = landingpad { ptr, i32 }
          cleanup
  %101 = extractvalue { ptr, i32 } %100, 0
  store ptr %101, ptr %33, align 8
  %102 = extractvalue { ptr, i32 } %100, 1
  store i32 %102, ptr %34, align 4
  br label %119

103:                                              ; preds = %70
  %104 = landingpad { ptr, i32 }
          cleanup
  %105 = extractvalue { ptr, i32 } %104, 0
  store ptr %105, ptr %33, align 8
  %106 = extractvalue { ptr, i32 } %104, 1
  store i32 %106, ptr %34, align 4
  br label %114

107:                                              ; preds = %74
  %108 = landingpad { ptr, i32 }
          cleanup
  %109 = extractvalue { ptr, i32 } %108, 0
  store ptr %109, ptr %33, align 8
  %110 = extractvalue { ptr, i32 } %108, 1
  store i32 %110, ptr %34, align 4
  %111 = load i1, ptr %38, align 1
  br i1 %111, label %112, label %113

112:                                              ; preds = %107
  call void @_ZNSt7__cxx1112basic_stringIcSt11char_traitsIcESaIcEED2Ev(ptr noundef nonnull align 8 dereferenceable(32) %35) #19
  br label %113

113:                                              ; preds = %112, %107
  br label %114

114:                                              ; preds = %113, %103
  %115 = load i1, ptr %37, align 1
  br i1 %115, label %116, label %118

116:                                              ; preds = %114
  store ptr %36, ptr %11, align 8
  %117 = load ptr, ptr %11, align 8
  call void @_ZNSt15__new_allocatorIcED2Ev(ptr noundef nonnull align 1 dereferenceable(1) %117) #19
  br label %118

118:                                              ; preds = %116, %114
  br label %119

119:                                              ; preds = %118, %99
  call void @_ZNSt7__cxx1112basic_stringIcSt11char_traitsIcESaIcEED2Ev(ptr noundef nonnull align 8 dereferenceable(32) %31) #19
  br label %120

120:                                              ; preds = %119, %95
  store ptr %32, ptr %9, align 8
  %121 = load ptr, ptr %9, align 8
  call void @_ZNSt15__new_allocatorIcED2Ev(ptr noundef nonnull align 1 dereferenceable(1) %121) #19
  br label %165

122:                                              ; preds = %153, %150, %148, %87
  %123 = landingpad { ptr, i32 }
          cleanup
  %124 = extractvalue { ptr, i32 } %123, 0
  store ptr %124, ptr %33, align 8
  %125 = extractvalue { ptr, i32 } %123, 1
  store i32 %125, ptr %34, align 4
  br label %165

126:                                              ; preds = %89
  %127 = landingpad { ptr, i32 }
          cleanup
  %128 = extractvalue { ptr, i32 } %127, 0
  store ptr %128, ptr %33, align 8
  %129 = extractvalue { ptr, i32 } %127, 1
  store i32 %129, ptr %34, align 4
  call void @_ZNSt6vectorINSt7__cxx1112basic_stringIcSt11char_traitsIcESaIcEEESaIS5_EED2Ev(ptr noundef nonnull align 8 dereferenceable(24) %39) #19
  br label %165

130:                                              ; preds = %93, %92
  %131 = call noundef nonnull align 8 dereferenceable(32) ptr @_ZNSt6vectorINSt7__cxx1112basic_stringIcSt11char_traitsIcESaIcEEESaIS5_EEixEm(ptr noundef nonnull align 8 dereferenceable(24) %39, i64 noundef 2) #19
  %132 = load ptr, ptr %20, align 8
  %133 = call noundef i64 @_ZNKSt7__cxx1112basic_stringIcSt11char_traitsIcESaIcEE4findERKS4_m(ptr noundef nonnull align 8 dereferenceable(32) %131, ptr noundef nonnull align 8 dereferenceable(32) %132, i64 noundef 0) #19
  %134 = icmp ne i64 %133, -1
  br i1 %134, label %135, label %136

135:                                              ; preds = %130
  store i8 1, ptr %24, align 1
  br label %137

136:                                              ; preds = %130
  store i8 0, ptr %24, align 1
  br label %137

137:                                              ; preds = %136, %135
  call void @_ZNSt6vectorINSt7__cxx1112basic_stringIcSt11char_traitsIcESaIcEEESaIS5_EED2Ev(ptr noundef nonnull align 8 dereferenceable(24) %39) #19
  br label %138

138:                                              ; preds = %137, %85
  %139 = load i8, ptr %24, align 1
  %140 = trunc i8 %139 to i1
  br i1 %140, label %141, label %158

141:                                              ; preds = %138
  %142 = load i32, ptr %22, align 4
  %143 = load i32, ptr %21, align 4
  %144 = icmp eq i32 %142, %143
  br i1 %144, label %145, label %158

145:                                              ; preds = %141
  %146 = load i8, ptr @debugOutput, align 1
  %147 = trunc i8 %146 to i1
  br i1 %147, label %148, label %156

148:                                              ; preds = %145
  %149 = invoke noundef nonnull align 8 dereferenceable(8) ptr @_ZStlsISt11char_traitsIcEERSt13basic_ostreamIcT_ES5_PKc(ptr noundef nonnull align 8 dereferenceable(8) @_ZSt4cerr, ptr noundef @.str.14)
          to label %150 unwind label %122

150:                                              ; preds = %148
  %151 = load i32, ptr %23, align 4
  %152 = invoke noundef nonnull align 8 dereferenceable(8) ptr @_ZNSolsEi(ptr noundef nonnull align 8 dereferenceable(8) %149, i32 noundef %151)
          to label %153 unwind label %122

153:                                              ; preds = %150
  %154 = invoke noundef nonnull align 8 dereferenceable(8) ptr @_ZStlsISt11char_traitsIcEERSt13basic_ostreamIcT_ES5_PKc(ptr noundef nonnull align 8 dereferenceable(8) %152, ptr noundef @.str.15)
          to label %155 unwind label %122

155:                                              ; preds = %153
  br label %156

156:                                              ; preds = %155, %145
  %157 = load i32, ptr %23, align 4
  store i32 %157, ptr %18, align 4
  store i32 1, ptr %29, align 4
  br label %163

158:                                              ; preds = %141, %138
  br label %159

159:                                              ; preds = %158
  store ptr %27, ptr %8, align 8
  %160 = load ptr, ptr %8, align 8
  %161 = load ptr, ptr %160, align 8
  %162 = getelementptr inbounds nuw %"class.std::__cxx11::basic_string", ptr %161, i32 1
  store ptr %162, ptr %160, align 8
  br label %48

163:                                              ; preds = %156, %56
  call void @_ZNSt6vectorINSt7__cxx1112basic_stringIcSt11char_traitsIcESaIcEEESaIS5_EED2Ev(ptr noundef nonnull align 8 dereferenceable(24) %26) #19
  %164 = load i32, ptr %29, align 4
  switch i32 %164, label %179 [
    i32 2, label %166
    i32 1, label %172
  ]

165:                                              ; preds = %126, %122, %120
  call void @_ZNSt6vectorINSt7__cxx1112basic_stringIcSt11char_traitsIcESaIcEEESaIS5_EED2Ev(ptr noundef nonnull align 8 dereferenceable(24) %26) #19
  br label %174

166:                                              ; preds = %163
  %167 = load i8, ptr @debugOutput, align 1
  %168 = trunc i8 %167 to i1
  br i1 %168, label %169, label %171

169:                                              ; preds = %166
  %170 = call noundef nonnull align 8 dereferenceable(8) ptr @_ZStlsISt11char_traitsIcEERSt13basic_ostreamIcT_ES5_PKc(ptr noundef nonnull align 8 dereferenceable(8) @_ZSt4cerr, ptr noundef @.str.16)
  br label %171

171:                                              ; preds = %169, %166
  store i32 -1, ptr %18, align 4
  br label %172

172:                                              ; preds = %171, %163
  %173 = load i32, ptr %18, align 4
  ret i32 %173

174:                                              ; preds = %165
  %175 = load ptr, ptr %33, align 8
  %176 = load i32, ptr %34, align 4
  %177 = insertvalue { ptr, i32 } poison, ptr %175, 0
  %178 = insertvalue { ptr, i32 } %177, i32 %176, 1
  resume { ptr, i32 } %178

179:                                              ; preds = %163
  unreachable
}

; Function Attrs: mustprogress noinline optnone sspstrong uwtable
define linkonce_odr dso_local void @_Z5splitRKNSt7__cxx1112basic_stringIcSt11char_traitsIcESaIcEEEc(ptr dead_on_unwind noalias writable sret(%"class.std::vector") align 8 %0, ptr noundef nonnull align 8 dereferenceable(32) %1, i8 noundef signext %2) #0 comdat personality ptr @__gxx_personality_v0 {
  %4 = alloca ptr, align 8
  %5 = alloca ptr, align 8
  %6 = alloca i8, align 1
  %7 = alloca i1, align 1
  %8 = alloca %"class.std::__cxx11::basic_istringstream", align 8
  %9 = alloca ptr, align 8
  %10 = alloca i32, align 4
  %11 = alloca %"class.std::__cxx11::basic_string", align 8
  store ptr %0, ptr %4, align 8
  store ptr %1, ptr %5, align 8
  store i8 %2, ptr %6, align 1
  store i1 false, ptr %7, align 1
  call void @_ZNSt6vectorINSt7__cxx1112basic_stringIcSt11char_traitsIcESaIcEEESaIS5_EEC2Ev(ptr noundef nonnull align 8 dereferenceable(24) %0) #19
  %12 = load ptr, ptr %5, align 8
  invoke void @_ZNSt7__cxx1119basic_istringstreamIcSt11char_traitsIcESaIcEEC1ERKNS_12basic_stringIcS2_S3_EESt13_Ios_Openmode(ptr noundef nonnull align 8 dereferenceable(120) %8, ptr noundef nonnull align 8 dereferenceable(32) %12, i32 noundef 8)
          to label %13 unwind label %26

13:                                               ; preds = %3
  call void @_ZNSt7__cxx1112basic_stringIcSt11char_traitsIcESaIcEEC2Ev(ptr noundef nonnull align 8 dereferenceable(32) %11) #19
  br label %14

14:                                               ; preds = %25, %13
  %15 = load i8, ptr %6, align 1
  %16 = invoke noundef nonnull align 8 dereferenceable(16) ptr @_ZSt7getlineIcSt11char_traitsIcESaIcEERSt13basic_istreamIT_T0_ES7_RNSt7__cxx1112basic_stringIS4_S5_T1_EES4_(ptr noundef nonnull align 8 dereferenceable(16) %8, ptr noundef nonnull align 8 dereferenceable(32) %11, i8 noundef signext %15)
          to label %17 unwind label %30

17:                                               ; preds = %14
  %18 = load ptr, ptr %16, align 8
  %19 = getelementptr i8, ptr %18, i64 -24
  %20 = load i64, ptr %19, align 8
  %21 = getelementptr inbounds i8, ptr %16, i64 %20
  %22 = invoke noundef zeroext i1 @_ZNKSt9basic_iosIcSt11char_traitsIcEEcvbEv(ptr noundef nonnull align 8 dereferenceable(264) %21)
          to label %23 unwind label %30

23:                                               ; preds = %17
  br i1 %22, label %24, label %34

24:                                               ; preds = %23
  invoke void @_ZNSt6vectorINSt7__cxx1112basic_stringIcSt11char_traitsIcESaIcEEESaIS5_EE9push_backERKS5_(ptr noundef nonnull align 8 dereferenceable(24) %0, ptr noundef nonnull align 8 dereferenceable(32) %11)
          to label %25 unwind label %30

25:                                               ; preds = %24
  br label %14, !llvm.loop !6

26:                                               ; preds = %3
  %27 = landingpad { ptr, i32 }
          cleanup
  %28 = extractvalue { ptr, i32 } %27, 0
  store ptr %28, ptr %9, align 8
  %29 = extractvalue { ptr, i32 } %27, 1
  store i32 %29, ptr %10, align 4
  br label %38

30:                                               ; preds = %24, %17, %14
  %31 = landingpad { ptr, i32 }
          cleanup
  %32 = extractvalue { ptr, i32 } %31, 0
  store ptr %32, ptr %9, align 8
  %33 = extractvalue { ptr, i32 } %31, 1
  store i32 %33, ptr %10, align 4
  call void @_ZNSt7__cxx1112basic_stringIcSt11char_traitsIcESaIcEED2Ev(ptr noundef nonnull align 8 dereferenceable(32) %11) #19
  call void @_ZNSt7__cxx1119basic_istringstreamIcSt11char_traitsIcESaIcEED1Ev(ptr noundef nonnull align 8 dereferenceable(120) %8) #19
  br label %38

34:                                               ; preds = %23
  store i1 true, ptr %7, align 1
  call void @_ZNSt7__cxx1112basic_stringIcSt11char_traitsIcESaIcEED2Ev(ptr noundef nonnull align 8 dereferenceable(32) %11) #19
  call void @_ZNSt7__cxx1119basic_istringstreamIcSt11char_traitsIcESaIcEED1Ev(ptr noundef nonnull align 8 dereferenceable(120) %8) #19
  %35 = load i1, ptr %7, align 1
  br i1 %35, label %37, label %36

36:                                               ; preds = %34
  call void @_ZNSt6vectorINSt7__cxx1112basic_stringIcSt11char_traitsIcESaIcEEESaIS5_EED2Ev(ptr noundef nonnull align 8 dereferenceable(24) %0) #19
  br label %37

37:                                               ; preds = %36, %34
  ret void

38:                                               ; preds = %30, %26
  call void @_ZNSt6vectorINSt7__cxx1112basic_stringIcSt11char_traitsIcESaIcEEESaIS5_EED2Ev(ptr noundef nonnull align 8 dereferenceable(24) %0) #19
  br label %39

39:                                               ; preds = %38
  %40 = load ptr, ptr %9, align 8
  %41 = load i32, ptr %10, align 4
  %42 = insertvalue { ptr, i32 } poison, ptr %40, 0
  %43 = insertvalue { ptr, i32 } %42, i32 %41, 1
  resume { ptr, i32 } %43
}

; Function Attrs: mustprogress noinline nounwind optnone sspstrong uwtable
define linkonce_odr dso_local ptr @_ZNSt6vectorINSt7__cxx1112basic_stringIcSt11char_traitsIcESaIcEEESaIS5_EE5beginEv(ptr noundef nonnull align 8 dereferenceable(24) %0) #2 comdat align 2 {
  %2 = alloca ptr, align 8
  %3 = alloca ptr, align 8
  %4 = alloca %"class.__gnu_cxx::__normal_iterator", align 8
  %5 = alloca ptr, align 8
  store ptr %0, ptr %5, align 8
  %6 = load ptr, ptr %5, align 8
  %7 = getelementptr inbounds nuw %"struct.std::_Vector_base", ptr %6, i32 0, i32 0
  %8 = getelementptr inbounds nuw %"struct.std::_Vector_base<std::__cxx11::basic_string<char>, std::allocator<std::__cxx11::basic_string<char>>>::_Vector_impl_data", ptr %7, i32 0, i32 0
  store ptr %4, ptr %2, align 8
  store ptr %8, ptr %3, align 8
  %9 = load ptr, ptr %2, align 8
  %10 = load ptr, ptr %3, align 8
  %11 = load ptr, ptr %10, align 8
  store ptr %11, ptr %9, align 8
  %12 = getelementptr inbounds nuw %"class.__gnu_cxx::__normal_iterator", ptr %4, i32 0, i32 0
  %13 = load ptr, ptr %12, align 8
  ret ptr %13
}

; Function Attrs: mustprogress noinline nounwind optnone sspstrong uwtable
define linkonce_odr dso_local ptr @_ZNSt6vectorINSt7__cxx1112basic_stringIcSt11char_traitsIcESaIcEEESaIS5_EE3endEv(ptr noundef nonnull align 8 dereferenceable(24) %0) #2 comdat align 2 {
  %2 = alloca ptr, align 8
  %3 = alloca ptr, align 8
  %4 = alloca %"class.__gnu_cxx::__normal_iterator", align 8
  %5 = alloca ptr, align 8
  store ptr %0, ptr %5, align 8
  %6 = load ptr, ptr %5, align 8
  %7 = getelementptr inbounds nuw %"struct.std::_Vector_base", ptr %6, i32 0, i32 0
  %8 = getelementptr inbounds nuw %"struct.std::_Vector_base<std::__cxx11::basic_string<char>, std::allocator<std::__cxx11::basic_string<char>>>::_Vector_impl_data", ptr %7, i32 0, i32 1
  store ptr %4, ptr %2, align 8
  store ptr %8, ptr %3, align 8
  %9 = load ptr, ptr %2, align 8
  %10 = load ptr, ptr %3, align 8
  %11 = load ptr, ptr %10, align 8
  store ptr %11, ptr %9, align 8
  %12 = getelementptr inbounds nuw %"class.__gnu_cxx::__normal_iterator", ptr %4, i32 0, i32 0
  %13 = load ptr, ptr %12, align 8
  ret ptr %13
}

; Function Attrs: mustprogress noinline nounwind optnone sspstrong uwtable
define linkonce_odr dso_local noundef zeroext i1 @_Z10startsWithRKNSt7__cxx1112basic_stringIcSt11char_traitsIcESaIcEEES6_(ptr noundef nonnull align 8 dereferenceable(32) %0, ptr noundef nonnull align 8 dereferenceable(32) %1) #2 comdat {
  %3 = alloca ptr, align 8
  %4 = alloca ptr, align 8
  %5 = alloca i32, align 4
  store ptr %0, ptr %3, align 8
  store ptr %1, ptr %4, align 8
  %6 = load ptr, ptr %4, align 8
  %7 = call noundef i64 @_ZNKSt7__cxx1112basic_stringIcSt11char_traitsIcESaIcEE6lengthEv(ptr noundef nonnull align 8 dereferenceable(32) %6) #19
  %8 = trunc i64 %7 to i32
  store i32 %8, ptr %5, align 4
  %9 = load ptr, ptr %3, align 8
  %10 = load ptr, ptr %4, align 8
  %11 = call noundef ptr @_ZNKSt7__cxx1112basic_stringIcSt11char_traitsIcESaIcEE5c_strEv(ptr noundef nonnull align 8 dereferenceable(32) %10) #19
  %12 = load i32, ptr %5, align 4
  %13 = sext i32 %12 to i64
  %14 = call noundef i64 @_ZNKSt7__cxx1112basic_stringIcSt11char_traitsIcESaIcEE4findEPKcmm(ptr noundef nonnull align 8 dereferenceable(32) %9, ptr noundef %11, i64 noundef 0, i64 noundef %13) #19
  %15 = icmp eq i64 %14, 0
  ret i1 %15
}

; Function Attrs: mustprogress noinline optnone sspstrong uwtable
define linkonce_odr dso_local void @_ZNSt7__cxx1112basic_stringIcSt11char_traitsIcESaIcEEC2IS3_EEPKcRKS3_(ptr noundef nonnull align 8 dereferenceable(32) %0, ptr noundef %1, ptr noundef nonnull align 1 dereferenceable(1) %2) unnamed_addr #0 comdat align 2 personality ptr @__gxx_personality_v0 {
  %4 = alloca ptr, align 8
  %5 = alloca ptr, align 8
  %6 = alloca ptr, align 8
  %7 = alloca ptr, align 8
  %8 = alloca i32, align 4
  %9 = alloca ptr, align 8
  %10 = alloca %"struct.std::forward_iterator_tag", align 1
  store ptr %0, ptr %4, align 8
  store ptr %1, ptr %5, align 8
  store ptr %2, ptr %6, align 8
  %11 = load ptr, ptr %4, align 8
  %12 = getelementptr inbounds nuw %"class.std::__cxx11::basic_string", ptr %11, i32 0, i32 0
  %13 = call noundef ptr @_ZNSt7__cxx1112basic_stringIcSt11char_traitsIcESaIcEE13_M_local_dataEv(ptr noundef nonnull align 8 dereferenceable(32) %11)
  %14 = load ptr, ptr %6, align 8
  call void @_ZNSt7__cxx1112basic_stringIcSt11char_traitsIcESaIcEE12_Alloc_hiderC2EPcRKS3_(ptr noundef nonnull align 8 dereferenceable(8) %12, ptr noundef %13, ptr noundef nonnull align 1 dereferenceable(1) %14)
  %15 = load ptr, ptr %5, align 8
  %16 = icmp eq ptr %15, null
  br i1 %16, label %17, label %23

17:                                               ; preds = %3
  invoke void @_ZSt19__throw_logic_errorPKc(ptr noundef @.str.98) #20
          to label %18 unwind label %19

18:                                               ; preds = %17
  unreachable

19:                                               ; preds = %23, %17
  %20 = landingpad { ptr, i32 }
          cleanup
  %21 = extractvalue { ptr, i32 } %20, 0
  store ptr %21, ptr %7, align 8
  %22 = extractvalue { ptr, i32 } %20, 1
  store i32 %22, ptr %8, align 4
  call void @_ZNSt7__cxx1112basic_stringIcSt11char_traitsIcESaIcEE12_Alloc_hiderD2Ev(ptr noundef nonnull align 8 dereferenceable(8) %12) #19
  br label %31

23:                                               ; preds = %3
  %24 = load ptr, ptr %5, align 8
  %25 = load ptr, ptr %5, align 8
  %26 = call noundef i64 @_ZNSt11char_traitsIcE6lengthEPKc(ptr noundef %25)
  %27 = getelementptr inbounds nuw i8, ptr %24, i64 %26
  store ptr %27, ptr %9, align 8
  %28 = load ptr, ptr %5, align 8
  %29 = load ptr, ptr %9, align 8
  invoke void @_ZNSt7__cxx1112basic_stringIcSt11char_traitsIcESaIcEE12_M_constructIPKcEEvT_S8_St20forward_iterator_tag(ptr noundef nonnull align 8 dereferenceable(32) %11, ptr noundef %28, ptr noundef %29)
          to label %30 unwind label %19

30:                                               ; preds = %23
  ret void

31:                                               ; preds = %19
  %32 = load ptr, ptr %7, align 8
  %33 = load i32, ptr %8, align 4
  %34 = insertvalue { ptr, i32 } poison, ptr %32, 0
  %35 = insertvalue { ptr, i32 } %34, i32 %33, 1
  resume { ptr, i32 } %35
}

declare i32 @__gxx_personality_v0(...)

; Function Attrs: mustprogress noinline nounwind optnone sspstrong uwtable
define linkonce_odr dso_local void @_ZNSt7__cxx1112basic_stringIcSt11char_traitsIcESaIcEED2Ev(ptr noundef nonnull align 8 dereferenceable(32) %0) unnamed_addr #2 comdat align 2 personality ptr @__gxx_personality_v0 {
  %2 = alloca ptr, align 8
  store ptr %0, ptr %2, align 8
  %3 = load ptr, ptr %2, align 8
  invoke void @_ZNSt7__cxx1112basic_stringIcSt11char_traitsIcESaIcEE10_M_disposeEv(ptr noundef nonnull align 8 dereferenceable(32) %3)
          to label %4 unwind label %6

4:                                                ; preds = %1
  %5 = getelementptr inbounds nuw %"class.std::__cxx11::basic_string", ptr %3, i32 0, i32 0
  call void @_ZNSt7__cxx1112basic_stringIcSt11char_traitsIcESaIcEE12_Alloc_hiderD2Ev(ptr noundef nonnull align 8 dereferenceable(8) %5) #19
  ret void

6:                                                ; preds = %1
  %7 = landingpad { ptr, i32 }
          catch ptr null
  %8 = extractvalue { ptr, i32 } %7, 0
  call void @__clang_call_terminate(ptr %8) #21
  unreachable
}

; Function Attrs: mustprogress noinline optnone sspstrong uwtable
define linkonce_odr dso_local noundef zeroext i1 @_Z11stringToIntRKNSt7__cxx1112basic_stringIcSt11char_traitsIcESaIcEEEPi(ptr noundef nonnull align 8 dereferenceable(32) %0, ptr noundef %1) #0 comdat personality ptr @__gxx_personality_v0 {
  %3 = alloca i1, align 1
  %4 = alloca ptr, align 8
  %5 = alloca ptr, align 8
  %6 = alloca %"class.std::__cxx11::basic_stringstream", align 8
  %7 = alloca ptr, align 8
  %8 = alloca i32, align 4
  %9 = alloca i32, align 4
  store ptr %0, ptr %4, align 8
  store ptr %1, ptr %5, align 8
  %10 = load ptr, ptr %4, align 8
  %11 = call noundef i32 @_ZStorSt13_Ios_OpenmodeS_(i32 noundef 16, i32 noundef 8) #19
  call void @_ZNSt7__cxx1118basic_stringstreamIcSt11char_traitsIcESaIcEEC1ERKNS_12basic_stringIcS2_S3_EESt13_Ios_Openmode(ptr noundef nonnull align 8 dereferenceable(128) %6, ptr noundef nonnull align 8 dereferenceable(32) %10, i32 noundef %11)
  %12 = load ptr, ptr %5, align 8
  %13 = invoke noundef nonnull align 8 dereferenceable(16) ptr @_ZNSirsERi(ptr noundef nonnull align 8 dereferenceable(16) %6, ptr noundef nonnull align 4 dereferenceable(4) %12)
          to label %14 unwind label %22

14:                                               ; preds = %2
  %15 = load ptr, ptr %6, align 8
  %16 = getelementptr i8, ptr %15, i64 -24
  %17 = load i64, ptr %16, align 8
  %18 = getelementptr inbounds i8, ptr %6, i64 %17
  %19 = invoke noundef zeroext i1 @_ZNKSt9basic_iosIcSt11char_traitsIcEE4failEv(ptr noundef nonnull align 8 dereferenceable(264) %18)
          to label %20 unwind label %22

20:                                               ; preds = %14
  br i1 %19, label %26, label %21

21:                                               ; preds = %20
  store i1 true, ptr %3, align 1
  store i32 1, ptr %9, align 4
  br label %37

22:                                               ; preds = %28, %26, %14, %2
  %23 = landingpad { ptr, i32 }
          cleanup
  %24 = extractvalue { ptr, i32 } %23, 0
  store ptr %24, ptr %7, align 8
  %25 = extractvalue { ptr, i32 } %23, 1
  store i32 %25, ptr %8, align 4
  call void @_ZNSt7__cxx1118basic_stringstreamIcSt11char_traitsIcESaIcEED1Ev(ptr noundef nonnull align 8 dereferenceable(128) %6) #19
  br label %39

26:                                               ; preds = %20
  %27 = invoke noundef nonnull align 8 dereferenceable(16) ptr @_ZNSirsEPFRSiS_E(ptr noundef nonnull align 8 dereferenceable(16) %6, ptr noundef @_ZSt2wsIcSt11char_traitsIcEERSt13basic_istreamIT_T0_ES6_)
          to label %28 unwind label %22

28:                                               ; preds = %26
  %29 = load ptr, ptr %6, align 8
  %30 = getelementptr i8, ptr %29, i64 -24
  %31 = load i64, ptr %30, align 8
  %32 = getelementptr inbounds i8, ptr %6, i64 %31
  %33 = invoke noundef zeroext i1 @_ZNKSt9basic_iosIcSt11char_traitsIcEE3eofEv(ptr noundef nonnull align 8 dereferenceable(264) %32)
          to label %34 unwind label %22

34:                                               ; preds = %28
  br i1 %33, label %35, label %36

35:                                               ; preds = %34
  store i1 true, ptr %3, align 1
  store i32 1, ptr %9, align 4
  br label %37

36:                                               ; preds = %34
  store i1 false, ptr %3, align 1
  store i32 1, ptr %9, align 4
  br label %37

37:                                               ; preds = %36, %35, %21
  call void @_ZNSt7__cxx1118basic_stringstreamIcSt11char_traitsIcESaIcEED1Ev(ptr noundef nonnull align 8 dereferenceable(128) %6) #19
  %38 = load i1, ptr %3, align 1
  ret i1 %38

39:                                               ; preds = %22
  %40 = load ptr, ptr %7, align 8
  %41 = load i32, ptr %8, align 4
  %42 = insertvalue { ptr, i32 } poison, ptr %40, 0
  %43 = insertvalue { ptr, i32 } %42, i32 %41, 1
  resume { ptr, i32 } %43
}

; Function Attrs: mustprogress noinline nounwind optnone sspstrong uwtable
define linkonce_odr dso_local noundef nonnull align 8 dereferenceable(32) ptr @_ZNSt6vectorINSt7__cxx1112basic_stringIcSt11char_traitsIcESaIcEEESaIS5_EEixEm(ptr noundef nonnull align 8 dereferenceable(24) %0, i64 noundef %1) #2 comdat align 2 {
  %3 = alloca ptr, align 8
  %4 = alloca i64, align 8
  store ptr %0, ptr %3, align 8
  store i64 %1, ptr %4, align 8
  %5 = load ptr, ptr %3, align 8
  br label %6

6:                                                ; preds = %2
  %7 = load i64, ptr %4, align 8
  %8 = call noundef i64 @_ZNKSt6vectorINSt7__cxx1112basic_stringIcSt11char_traitsIcESaIcEEESaIS5_EE4sizeEv(ptr noundef nonnull align 8 dereferenceable(24) %5) #19
  %9 = icmp ult i64 %7, %8
  %10 = xor i1 %9, true
  br i1 %10, label %11, label %12

11:                                               ; preds = %6
  call void @_ZSt21__glibcxx_assert_failPKciS0_S0_(ptr noundef @.str.34, i32 noundef 1263, ptr noundef @__PRETTY_FUNCTION__._ZNSt6vectorINSt7__cxx1112basic_stringIcSt11char_traitsIcESaIcEEESaIS5_EEixEm, ptr noundef @.str.35) #22
  unreachable

12:                                               ; preds = %6
  br label %13

13:                                               ; preds = %12
  br label %14

14:                                               ; preds = %13
  %15 = getelementptr inbounds nuw %"struct.std::_Vector_base", ptr %5, i32 0, i32 0
  %16 = getelementptr inbounds nuw %"struct.std::_Vector_base<std::__cxx11::basic_string<char>, std::allocator<std::__cxx11::basic_string<char>>>::_Vector_impl_data", ptr %15, i32 0, i32 0
  %17 = load ptr, ptr %16, align 8
  %18 = load i64, ptr %4, align 8
  %19 = getelementptr inbounds nuw %"class.std::__cxx11::basic_string", ptr %17, i64 %18
  ret ptr %19
}

; Function Attrs: mustprogress noinline nounwind optnone sspstrong uwtable
define linkonce_odr dso_local noundef i64 @_ZNKSt7__cxx1112basic_stringIcSt11char_traitsIcESaIcEE4findERKS4_m(ptr noundef nonnull align 8 dereferenceable(32) %0, ptr noundef nonnull align 8 dereferenceable(32) %1, i64 noundef %2) #2 comdat align 2 {
  %4 = alloca ptr, align 8
  %5 = alloca ptr, align 8
  %6 = alloca i64, align 8
  store ptr %0, ptr %4, align 8
  store ptr %1, ptr %5, align 8
  store i64 %2, ptr %6, align 8
  %7 = load ptr, ptr %4, align 8
  %8 = load ptr, ptr %5, align 8
  %9 = call noundef ptr @_ZNKSt7__cxx1112basic_stringIcSt11char_traitsIcESaIcEE4dataEv(ptr noundef nonnull align 8 dereferenceable(32) %8) #19
  %10 = load i64, ptr %6, align 8
  %11 = load ptr, ptr %5, align 8
  %12 = call noundef i64 @_ZNKSt7__cxx1112basic_stringIcSt11char_traitsIcESaIcEE4sizeEv(ptr noundef nonnull align 8 dereferenceable(32) %11) #19
  %13 = call noundef i64 @_ZNKSt7__cxx1112basic_stringIcSt11char_traitsIcESaIcEE4findEPKcmm(ptr noundef nonnull align 8 dereferenceable(32) %7, ptr noundef %9, i64 noundef %10, i64 noundef %12) #19
  ret i64 %13
}

; Function Attrs: mustprogress noinline nounwind optnone sspstrong uwtable
define linkonce_odr dso_local void @_ZNSt6vectorINSt7__cxx1112basic_stringIcSt11char_traitsIcESaIcEEESaIS5_EED2Ev(ptr noundef nonnull align 8 dereferenceable(24) %0) unnamed_addr #2 comdat align 2 personality ptr @__gxx_personality_v0 {
  %2 = alloca ptr, align 8
  %3 = alloca ptr, align 8
  %4 = alloca ptr, align 8
  %5 = alloca ptr, align 8
  store ptr %0, ptr %5, align 8
  %6 = load ptr, ptr %5, align 8
  %7 = getelementptr inbounds nuw %"struct.std::_Vector_base", ptr %6, i32 0, i32 0
  %8 = getelementptr inbounds nuw %"struct.std::_Vector_base<std::__cxx11::basic_string<char>, std::allocator<std::__cxx11::basic_string<char>>>::_Vector_impl_data", ptr %7, i32 0, i32 0
  %9 = load ptr, ptr %8, align 8
  %10 = getelementptr inbounds nuw %"struct.std::_Vector_base", ptr %6, i32 0, i32 0
  %11 = getelementptr inbounds nuw %"struct.std::_Vector_base<std::__cxx11::basic_string<char>, std::allocator<std::__cxx11::basic_string<char>>>::_Vector_impl_data", ptr %10, i32 0, i32 1
  %12 = load ptr, ptr %11, align 8
  %13 = call noundef nonnull align 1 dereferenceable(1) ptr @_ZNSt12_Vector_baseINSt7__cxx1112basic_stringIcSt11char_traitsIcESaIcEEESaIS5_EE19_M_get_Tp_allocatorEv(ptr noundef nonnull align 8 dereferenceable(24) %6) #19
  store ptr %9, ptr %2, align 8
  store ptr %12, ptr %3, align 8
  store ptr %13, ptr %4, align 8
  %14 = load ptr, ptr %2, align 8
  %15 = load ptr, ptr %3, align 8
  invoke void @_ZSt8_DestroyIPNSt7__cxx1112basic_stringIcSt11char_traitsIcESaIcEEEEvT_S7_(ptr noundef %14, ptr noundef %15)
          to label %16 unwind label %18

16:                                               ; preds = %1
  br label %17

17:                                               ; preds = %16
  call void @_ZNSt12_Vector_baseINSt7__cxx1112basic_stringIcSt11char_traitsIcESaIcEEESaIS5_EED2Ev(ptr noundef nonnull align 8 dereferenceable(24) %6) #19
  ret void

18:                                               ; preds = %1
  %19 = landingpad { ptr, i32 }
          catch ptr null
  %20 = extractvalue { ptr, i32 } %19, 0
  call void @__clang_call_terminate(ptr %20) #21
  unreachable
}

declare noundef nonnull align 8 dereferenceable(8) ptr @_ZStlsISt11char_traitsIcEERSt13basic_ostreamIcT_ES5_PKc(ptr noundef nonnull align 8 dereferenceable(8), ptr noundef) #3

declare noundef nonnull align 8 dereferenceable(8) ptr @_ZNSolsEi(ptr noundef nonnull align 8 dereferenceable(8), i32 noundef) #3

; Function Attrs: mustprogress noinline optnone sspstrong uwtable
define dso_local void @_Z16DoCodeCompletionRKNSt7__cxx1112basic_stringIcSt11char_traitsIcESaIcEEES6_ii(ptr noundef nonnull align 8 dereferenceable(32) %0, ptr noundef nonnull align 8 dereferenceable(32) %1, i32 noundef %2, i32 noundef %3) #0 personality ptr @__gxx_personality_v0 {
  %5 = alloca ptr, align 8
  %6 = alloca ptr, align 8
  %7 = alloca i32, align 4
  %8 = alloca i32, align 4
  %9 = alloca %"class.clang::CompilerInstance", align 8
  %10 = alloca %"class.std::shared_ptr.50", align 8
  %11 = alloca ptr, align 8
  %12 = alloca i32, align 4
  %13 = alloca %"class.std::shared_ptr.83", align 8
  %14 = alloca ptr, align 8
  %15 = alloca %"class.llvm::IntrusiveRefCntPtr.127", align 8
  %16 = alloca %"class.clang::CodeCompleteOptions", align 4
  %17 = alloca ptr, align 8
  %18 = alloca ptr, align 8
  %19 = alloca %"class.clang::FrontendInputFile", align 8
  %20 = alloca %"class.llvm::StringRef", align 8
  %21 = alloca %"class.clang::InputKind", align 4
  %22 = alloca %"class.clang::InputKind", align 4
  %23 = alloca %"class.std::unique_ptr.237", align 8
  %24 = alloca %"class.llvm::StringRef", align 8
  %25 = alloca %"class.llvm::StringRef", align 8
  %26 = alloca ptr, align 8
  %27 = alloca %"class.llvm::StringRef", align 8
  %28 = alloca %"class.clang::SyntaxOnlyAction", align 8
  %29 = alloca %"class.llvm::Error", align 8
  %30 = alloca %"class.std::__cxx11::basic_string", align 8
  store ptr %0, ptr %5, align 8
  store ptr %1, ptr %6, align 8
  store i32 %2, ptr %7, align 4
  store i32 %3, ptr %8, align 4
  call void @_ZSt11make_sharedIN5clang22PCHContainerOperationsEJEESt10shared_ptrINSt9enable_ifIXntsr8is_arrayIT_EE5valueES4_E4typeEEDpOT0_(ptr dead_on_unwind writable sret(%"class.std::shared_ptr.50") align 8 %10)
  invoke void @_ZN5clang16CompilerInstanceC1ESt10shared_ptrINS_22PCHContainerOperationsEEPNS_19InMemoryModuleCacheE(ptr noundef nonnull align 8 dereferenceable(352) %9, ptr noundef %10, ptr noundef null)
          to label %31 unwind label %154

31:                                               ; preds = %4
  call void @_ZNSt10shared_ptrIN5clang22PCHContainerOperationsEED2Ev(ptr noundef nonnull align 8 dereferenceable(16) %10) #19
  invoke void @_ZSt11make_sharedIN5clang13TargetOptionsEJEESt10shared_ptrINSt9enable_ifIXntsr8is_arrayIT_EE5valueES4_E4typeEEDpOT0_(ptr dead_on_unwind writable sret(%"class.std::shared_ptr.83") align 8 %13)
          to label %32 unwind label %158

32:                                               ; preds = %31
  %33 = call noundef ptr @_ZNKSt19__shared_ptr_accessIN5clang13TargetOptionsELN9__gnu_cxx12_Lock_policyE2ELb0ELb0EEptEv(ptr noundef nonnull align 1 dereferenceable(1) %13) #19
  %34 = getelementptr inbounds nuw %"class.clang::TargetOptions", ptr %33, i32 0, i32 0
  %35 = invoke noundef nonnull align 8 dereferenceable(32) ptr @_ZNSt7__cxx1112basic_stringIcSt11char_traitsIcESaIcEEaSEPKc(ptr noundef nonnull align 8 dereferenceable(32) %34, ptr noundef @.str.17)
          to label %36 unwind label %162

36:                                               ; preds = %32
  %37 = invoke noundef nonnull align 8 dereferenceable(15248) ptr @_ZNK5clang16CompilerInstance14getDiagnosticsEv(ptr noundef nonnull align 8 dereferenceable(352) %9)
          to label %38 unwind label %162

38:                                               ; preds = %36
  %39 = invoke noundef ptr @_ZN5clang10TargetInfo16CreateTargetInfoERNS_17DiagnosticsEngineERKSt10shared_ptrINS_13TargetOptionsEE(ptr noundef nonnull align 8 dereferenceable(15248) %37, ptr noundef nonnull align 8 dereferenceable(16) %13)
          to label %40 unwind label %162

40:                                               ; preds = %38
  invoke void @_ZN5clang16CompilerInstance9setTargetEPNS_10TargetInfoE(ptr noundef nonnull align 8 dereferenceable(352) %9, ptr noundef %39)
          to label %41 unwind label %162

41:                                               ; preds = %40
  %42 = invoke noundef nonnull align 8 dereferenceable(849) ptr @_ZN5clang16CompilerInstance11getLangOptsEv(ptr noundef nonnull align 8 dereferenceable(352) %9)
          to label %43 unwind label %162

43:                                               ; preds = %41
  store ptr %42, ptr %14, align 8
  %44 = load ptr, ptr %14, align 8
  %45 = load i64, ptr %44, align 8
  %46 = and i64 %45, -2049
  %47 = or i64 %46, 2048
  store i64 %47, ptr %44, align 8
  %48 = load ptr, ptr %14, align 8
  %49 = load i64, ptr %48, align 8
  %50 = and i64 %49, -4097
  %51 = or i64 %50, 4096
  store i64 %51, ptr %48, align 8
  %52 = load ptr, ptr %14, align 8
  %53 = load i64, ptr %52, align 8
  %54 = and i64 %53, -67108865
  %55 = or i64 %54, 67108864
  store i64 %55, ptr %52, align 8
  %56 = load ptr, ptr %14, align 8
  %57 = load i64, ptr %56, align 8
  %58 = and i64 %57, -17179869185
  %59 = or i64 %58, 17179869184
  store i64 %59, ptr %56, align 8
  invoke void @_ZN4llvm18IntrusiveRefCntPtrINS_3vfs10FileSystemEEC2EPS2_(ptr noundef nonnull align 8 dereferenceable(8) %15, ptr noundef null)
          to label %60 unwind label %162

60:                                               ; preds = %43
  %61 = invoke noundef ptr @_ZN5clang16CompilerInstance17createFileManagerEN4llvm18IntrusiveRefCntPtrINS1_3vfs10FileSystemEEE(ptr noundef nonnull align 8 dereferenceable(352) %9, ptr noundef %15)
          to label %62 unwind label %166

62:                                               ; preds = %60
  call void @_ZN4llvm18IntrusiveRefCntPtrINS_3vfs10FileSystemEED2Ev(ptr noundef nonnull align 8 dereferenceable(8) %15) #19
  %63 = invoke noundef nonnull align 8 dereferenceable(808) ptr @_ZNK5clang16CompilerInstance14getFileManagerEv(ptr noundef nonnull align 8 dereferenceable(352) %9)
          to label %64 unwind label %162

64:                                               ; preds = %62
  invoke void @_ZN5clang16CompilerInstance19createSourceManagerERNS_11FileManagerE(ptr noundef nonnull align 8 dereferenceable(352) %9, ptr noundef nonnull align 8 dereferenceable(808) %63)
          to label %65 unwind label %162

65:                                               ; preds = %64
  invoke void @_ZN5clang19CodeCompleteOptionsC2Ev(ptr noundef nonnull align 4 dereferenceable(1) %16)
          to label %66 unwind label %162

66:                                               ; preds = %65
  %67 = load i8, ptr %16, align 4
  %68 = and i8 %67, -2
  %69 = or i8 %68, 1
  store i8 %69, ptr %16, align 4
  %70 = load i8, ptr %16, align 4
  %71 = and i8 %70, -3
  %72 = or i8 %71, 2
  store i8 %72, ptr %16, align 4
  %73 = load i8, ptr %16, align 4
  %74 = and i8 %73, -5
  %75 = or i8 %74, 4
  store i8 %75, ptr %16, align 4
  %76 = load i8, ptr %16, align 4
  %77 = and i8 %76, -17
  %78 = or i8 %77, 16
  store i8 %78, ptr %16, align 4
  %79 = invoke noalias noundef nonnull ptr @_Znwm(i64 noundef 80) #23
          to label %80 unwind label %162

80:                                               ; preds = %66
  %81 = invoke noundef nonnull align 8 dereferenceable(696) ptr @_ZNK5clang16CompilerInstance16getSourceManagerEv(ptr noundef nonnull align 8 dereferenceable(352) %9)
          to label %82 unwind label %170

82:                                               ; preds = %80
  invoke void @_ZN26CustomCodeCompleteConsumerC2ERKN5clang19CodeCompleteOptionsERNS0_13SourceManagerE(ptr noundef nonnull align 8 dereferenceable(80) %79, ptr noundef nonnull align 4 dereferenceable(1) %16, ptr noundef nonnull align 8 dereferenceable(696) %81)
          to label %83 unwind label %170

83:                                               ; preds = %82
  store ptr %79, ptr %17, align 8
  %84 = load ptr, ptr %17, align 8
  invoke void @_ZN5clang16CompilerInstance25setCodeCompletionConsumerEPNS_20CodeCompleteConsumerE(ptr noundef nonnull align 8 dereferenceable(352) %9, ptr noundef %84)
          to label %85 unwind label %162

85:                                               ; preds = %83
  %86 = invoke noundef nonnull align 8 dereferenceable(920) ptr @_ZN5clang16CompilerInstance15getFrontendOptsEv(ptr noundef nonnull align 8 dereferenceable(352) %9)
          to label %87 unwind label %162

87:                                               ; preds = %85
  store ptr %86, ptr %18, align 8
  %88 = load ptr, ptr %18, align 8
  %89 = getelementptr inbounds nuw %"class.clang::FrontendOptions", ptr %88, i32 0, i32 9
  %90 = load ptr, ptr %5, align 8
  invoke void @_ZN4llvm9StringRefC2ERKNSt7__cxx1112basic_stringIcSt11char_traitsIcESaIcEEE(ptr noundef nonnull align 8 dereferenceable(16) %20, ptr noundef nonnull align 8 dereferenceable(32) %90)
          to label %91 unwind label %162

91:                                               ; preds = %87
  invoke void @_ZN5clang9InputKindC2ENS_8LanguageENS0_6FormatEbNS0_14HeaderUnitKindEb(ptr noundef nonnull align 4 dereferenceable(2) %22, i8 noundef zeroext 0, i32 noundef 0, i1 noundef zeroext false, i32 noundef 0, i1 noundef zeroext false)
          to label %92 unwind label %162

92:                                               ; preds = %91
  %93 = invoke noundef zeroext i8 @_ZNK5clang9InputKind11getLanguageEv(ptr noundef nonnull align 4 dereferenceable(2) %22)
          to label %94 unwind label %162

94:                                               ; preds = %92
  invoke void @_ZN5clang9InputKindC2ENS_8LanguageENS0_6FormatEbNS0_14HeaderUnitKindEb(ptr noundef nonnull align 4 dereferenceable(2) %21, i8 noundef zeroext %93, i32 noundef 0, i1 noundef zeroext false, i32 noundef 0, i1 noundef zeroext false)
          to label %95 unwind label %162

95:                                               ; preds = %94
  %96 = getelementptr inbounds nuw { ptr, i64 }, ptr %20, i32 0, i32 0
  %97 = load ptr, ptr %96, align 8
  %98 = getelementptr inbounds nuw { ptr, i64 }, ptr %20, i32 0, i32 1
  %99 = load i64, ptr %98, align 8
  %100 = load i32, ptr %21, align 4
  invoke void @_ZN5clang17FrontendInputFileC2EN4llvm9StringRefENS_9InputKindEb(ptr noundef nonnull align 8 dereferenceable(77) %19, ptr %97, i64 %99, i32 %100, i1 noundef zeroext false)
          to label %101 unwind label %162

101:                                              ; preds = %95
  invoke void @_ZN4llvm23SmallVectorTemplateBaseIN5clang17FrontendInputFileELb0EE9push_backEOS2_(ptr noundef nonnull align 8 dereferenceable(16) %89, ptr noundef nonnull align 8 dereferenceable(77) %19)
          to label %102 unwind label %174

102:                                              ; preds = %101
  call void @_ZN5clang17FrontendInputFileD2Ev(ptr noundef nonnull align 8 dereferenceable(77) %19) #19
  %103 = load ptr, ptr %5, align 8
  %104 = load ptr, ptr %18, align 8
  %105 = getelementptr inbounds nuw %"class.clang::FrontendOptions", ptr %104, i32 0, i32 14
  %106 = getelementptr inbounds nuw %"struct.clang::ParsedSourceLocation", ptr %105, i32 0, i32 0
  %107 = invoke noundef nonnull align 8 dereferenceable(32) ptr @_ZNSt7__cxx1112basic_stringIcSt11char_traitsIcESaIcEEaSERKS4_(ptr noundef nonnull align 8 dereferenceable(32) %106, ptr noundef nonnull align 8 dereferenceable(32) %103)
          to label %108 unwind label %162

108:                                              ; preds = %102
  %109 = load i32, ptr %7, align 4
  %110 = load ptr, ptr %18, align 8
  %111 = getelementptr inbounds nuw %"class.clang::FrontendOptions", ptr %110, i32 0, i32 14
  %112 = getelementptr inbounds nuw %"struct.clang::ParsedSourceLocation", ptr %111, i32 0, i32 1
  store i32 %109, ptr %112, align 8
  %113 = load i32, ptr %8, align 4
  %114 = load ptr, ptr %18, align 8
  %115 = getelementptr inbounds nuw %"class.clang::FrontendOptions", ptr %114, i32 0, i32 14
  %116 = getelementptr inbounds nuw %"struct.clang::ParsedSourceLocation", ptr %115, i32 0, i32 2
  store i32 %113, ptr %116, align 4
  %117 = load ptr, ptr %6, align 8
  invoke void @_ZN4llvm9StringRefC2ERKNSt7__cxx1112basic_stringIcSt11char_traitsIcESaIcEEE(ptr noundef nonnull align 8 dereferenceable(16) %24, ptr noundef nonnull align 8 dereferenceable(32) %117)
          to label %118 unwind label %162

118:                                              ; preds = %108
  %119 = load ptr, ptr %5, align 8
  invoke void @_ZN4llvm9StringRefC2ERKNSt7__cxx1112basic_stringIcSt11char_traitsIcESaIcEEE(ptr noundef nonnull align 8 dereferenceable(16) %25, ptr noundef nonnull align 8 dereferenceable(32) %119)
          to label %120 unwind label %162

120:                                              ; preds = %118
  %121 = getelementptr inbounds nuw { ptr, i64 }, ptr %24, i32 0, i32 0
  %122 = load ptr, ptr %121, align 8
  %123 = getelementptr inbounds nuw { ptr, i64 }, ptr %24, i32 0, i32 1
  %124 = load i64, ptr %123, align 8
  %125 = getelementptr inbounds nuw { ptr, i64 }, ptr %25, i32 0, i32 0
  %126 = load ptr, ptr %125, align 8
  %127 = getelementptr inbounds nuw { ptr, i64 }, ptr %25, i32 0, i32 1
  %128 = load i64, ptr %127, align 8
  invoke void @_ZN4llvm12MemoryBuffer12getMemBufferENS_9StringRefES1_b(ptr dead_on_unwind writable sret(%"class.std::unique_ptr.237") align 8 %23, ptr %122, i64 %124, ptr %126, i64 %128, i1 noundef zeroext true)
          to label %129 unwind label %162

129:                                              ; preds = %120
  %130 = invoke noundef nonnull align 8 dereferenceable(376) ptr @_ZN5clang16CompilerInstance19getPreprocessorOptsEv(ptr noundef nonnull align 8 dereferenceable(352) %9)
          to label %131 unwind label %178

131:                                              ; preds = %129
  store ptr %130, ptr %26, align 8
  %132 = load ptr, ptr %26, align 8
  invoke void @_ZN5clang19PreprocessorOptions18clearRemappedFilesEv(ptr noundef nonnull align 8 dereferenceable(376) %132)
          to label %133 unwind label %178

133:                                              ; preds = %131
  %134 = load ptr, ptr %26, align 8
  %135 = load ptr, ptr %5, align 8
  invoke void @_ZN4llvm9StringRefC2ERKNSt7__cxx1112basic_stringIcSt11char_traitsIcESaIcEEE(ptr noundef nonnull align 8 dereferenceable(16) %27, ptr noundef nonnull align 8 dereferenceable(32) %135)
          to label %136 unwind label %178

136:                                              ; preds = %133
  %137 = call noundef ptr @_ZNSt10unique_ptrIN4llvm12MemoryBufferESt14default_deleteIS1_EE7releaseEv(ptr noundef nonnull align 8 dereferenceable(8) %23) #19
  %138 = getelementptr inbounds nuw { ptr, i64 }, ptr %27, i32 0, i32 0
  %139 = load ptr, ptr %138, align 8
  %140 = getelementptr inbounds nuw { ptr, i64 }, ptr %27, i32 0, i32 1
  %141 = load i64, ptr %140, align 8
  invoke void @_ZN5clang19PreprocessorOptions15addRemappedFileEN4llvm9StringRefEPNS1_12MemoryBufferE(ptr noundef nonnull align 8 dereferenceable(376) %134, ptr %139, i64 %141, ptr noundef %137)
          to label %142 unwind label %178

142:                                              ; preds = %136
  invoke void @_ZN5clang16SyntaxOnlyActionC2Ev(ptr noundef nonnull align 8 dereferenceable(104) %28)
          to label %143 unwind label %178

143:                                              ; preds = %142
  %144 = invoke noundef nonnull align 8 dereferenceable(920) ptr @_ZN5clang16CompilerInstance15getFrontendOptsEv(ptr noundef nonnull align 8 dereferenceable(352) %9)
          to label %145 unwind label %182

145:                                              ; preds = %143
  %146 = getelementptr inbounds nuw %"class.clang::FrontendOptions", ptr %144, i32 0, i32 9
  %147 = invoke noundef nonnull align 8 dereferenceable(77) ptr @_ZN4llvm25SmallVectorTemplateCommonIN5clang17FrontendInputFileEvEixEm(ptr noundef nonnull align 8 dereferenceable(16) %146, i64 noundef 0)
          to label %148 unwind label %182

148:                                              ; preds = %145
  %149 = invoke noundef zeroext i1 @_ZN5clang14FrontendAction15BeginSourceFileERNS_16CompilerInstanceERKNS_17FrontendInputFileE(ptr noundef nonnull align 8 dereferenceable(104) %28, ptr noundef nonnull align 8 dereferenceable(352) %9, ptr noundef nonnull align 8 dereferenceable(77) %147)
          to label %150 unwind label %182

150:                                              ; preds = %148
  br i1 %149, label %151, label %186

151:                                              ; preds = %150
  invoke void @_ZN5clang14FrontendAction7ExecuteEv(ptr dead_on_unwind writable sret(%"class.llvm::Error") align 8 %29, ptr noundef nonnull align 8 dereferenceable(104) %28)
          to label %152 unwind label %182

152:                                              ; preds = %151
  call void @_ZN4llvm5ErrorD2Ev(ptr noundef nonnull align 8 dereferenceable(8) %29) #19
  invoke void @_ZN5clang14FrontendAction13EndSourceFileEv(ptr noundef nonnull align 8 dereferenceable(104) %28)
          to label %153 unwind label %182

153:                                              ; preds = %152
  br label %186

154:                                              ; preds = %4
  %155 = landingpad { ptr, i32 }
          cleanup
  %156 = extractvalue { ptr, i32 } %155, 0
  store ptr %156, ptr %11, align 8
  %157 = extractvalue { ptr, i32 } %155, 1
  store i32 %157, ptr %12, align 4
  call void @_ZNSt10shared_ptrIN5clang22PCHContainerOperationsEED2Ev(ptr noundef nonnull align 8 dereferenceable(16) %10) #19
  br label %203

158:                                              ; preds = %31
  %159 = landingpad { ptr, i32 }
          cleanup
  %160 = extractvalue { ptr, i32 } %159, 0
  store ptr %160, ptr %11, align 8
  %161 = extractvalue { ptr, i32 } %159, 1
  store i32 %161, ptr %12, align 4
  br label %202

162:                                              ; preds = %120, %118, %108, %102, %95, %94, %92, %91, %87, %85, %83, %66, %65, %64, %62, %43, %41, %40, %38, %36, %32
  %163 = landingpad { ptr, i32 }
          cleanup
  %164 = extractvalue { ptr, i32 } %163, 0
  store ptr %164, ptr %11, align 8
  %165 = extractvalue { ptr, i32 } %163, 1
  store i32 %165, ptr %12, align 4
  br label %201

166:                                              ; preds = %60
  %167 = landingpad { ptr, i32 }
          cleanup
  %168 = extractvalue { ptr, i32 } %167, 0
  store ptr %168, ptr %11, align 8
  %169 = extractvalue { ptr, i32 } %167, 1
  store i32 %169, ptr %12, align 4
  call void @_ZN4llvm18IntrusiveRefCntPtrINS_3vfs10FileSystemEED2Ev(ptr noundef nonnull align 8 dereferenceable(8) %15) #19
  br label %201

170:                                              ; preds = %82, %80
  %171 = landingpad { ptr, i32 }
          cleanup
  %172 = extractvalue { ptr, i32 } %171, 0
  store ptr %172, ptr %11, align 8
  %173 = extractvalue { ptr, i32 } %171, 1
  store i32 %173, ptr %12, align 4
  call void @_ZdlPvm(ptr noundef %79, i64 noundef 80) #24
  br label %201

174:                                              ; preds = %101
  %175 = landingpad { ptr, i32 }
          cleanup
  %176 = extractvalue { ptr, i32 } %175, 0
  store ptr %176, ptr %11, align 8
  %177 = extractvalue { ptr, i32 } %175, 1
  store i32 %177, ptr %12, align 4
  call void @_ZN5clang17FrontendInputFileD2Ev(ptr noundef nonnull align 8 dereferenceable(77) %19) #19
  br label %201

178:                                              ; preds = %142, %136, %133, %131, %129
  %179 = landingpad { ptr, i32 }
          cleanup
  %180 = extractvalue { ptr, i32 } %179, 0
  store ptr %180, ptr %11, align 8
  %181 = extractvalue { ptr, i32 } %179, 1
  store i32 %181, ptr %12, align 4
  br label %200

182:                                              ; preds = %191, %188, %186, %152, %151, %148, %145, %143
  %183 = landingpad { ptr, i32 }
          cleanup
  %184 = extractvalue { ptr, i32 } %183, 0
  store ptr %184, ptr %11, align 8
  %185 = extractvalue { ptr, i32 } %183, 1
  store i32 %185, ptr %12, align 4
  br label %199

186:                                              ; preds = %153, %150
  %187 = invoke noundef nonnull align 8 dereferenceable(96) ptr @_ZN4llvm4outsEv()
          to label %188 unwind label %182

188:                                              ; preds = %186
  %189 = load ptr, ptr %17, align 8
  %190 = invoke noundef ptr @_ZN26CustomCodeCompleteConsumer7GetJSONB5cxx11Ev(ptr noundef nonnull align 8 dereferenceable(80) %189)
          to label %191 unwind label %182

191:                                              ; preds = %188
  invoke void @_ZNK8nlohmann10basic_jsonISt3mapSt6vectorNSt7__cxx1112basic_stringIcSt11char_traitsIcESaIcEEEblmdSaNS_14adl_serializerEE4dumpEi(ptr dead_on_unwind writable sret(%"class.std::__cxx11::basic_string") align 8 %30, ptr noundef nonnull align 8 dereferenceable(16) %190, i32 noundef -1)
          to label %192 unwind label %182

192:                                              ; preds = %191
  %193 = invoke noundef nonnull align 8 dereferenceable(48) ptr @_ZN4llvm11raw_ostreamlsERKNSt7__cxx1112basic_stringIcSt11char_traitsIcESaIcEEE(ptr noundef nonnull align 8 dereferenceable(48) %187, ptr noundef nonnull align 8 dereferenceable(32) %30)
          to label %194 unwind label %195

194:                                              ; preds = %192
  call void @_ZNSt7__cxx1112basic_stringIcSt11char_traitsIcESaIcEED2Ev(ptr noundef nonnull align 8 dereferenceable(32) %30) #19
  call void @_ZN5clang16SyntaxOnlyActionD1Ev(ptr noundef nonnull align 8 dereferenceable(104) %28) #19
  call void @_ZNSt10unique_ptrIN4llvm12MemoryBufferESt14default_deleteIS1_EED2Ev(ptr noundef nonnull align 8 dereferenceable(8) %23) #19
  call void @_ZNSt10shared_ptrIN5clang13TargetOptionsEED2Ev(ptr noundef nonnull align 8 dereferenceable(16) %13) #19
  call void @_ZN5clang16CompilerInstanceD1Ev(ptr noundef nonnull align 8 dereferenceable(352) %9) #19
  ret void

195:                                              ; preds = %192
  %196 = landingpad { ptr, i32 }
          cleanup
  %197 = extractvalue { ptr, i32 } %196, 0
  store ptr %197, ptr %11, align 8
  %198 = extractvalue { ptr, i32 } %196, 1
  store i32 %198, ptr %12, align 4
  call void @_ZNSt7__cxx1112basic_stringIcSt11char_traitsIcESaIcEED2Ev(ptr noundef nonnull align 8 dereferenceable(32) %30) #19
  br label %199

199:                                              ; preds = %195, %182
  call void @_ZN5clang16SyntaxOnlyActionD1Ev(ptr noundef nonnull align 8 dereferenceable(104) %28) #19
  br label %200

200:                                              ; preds = %199, %178
  call void @_ZNSt10unique_ptrIN4llvm12MemoryBufferESt14default_deleteIS1_EED2Ev(ptr noundef nonnull align 8 dereferenceable(8) %23) #19
  br label %201

201:                                              ; preds = %200, %174, %170, %166, %162
  call void @_ZNSt10shared_ptrIN5clang13TargetOptionsEED2Ev(ptr noundef nonnull align 8 dereferenceable(16) %13) #19
  br label %202

202:                                              ; preds = %201, %158
  call void @_ZN5clang16CompilerInstanceD1Ev(ptr noundef nonnull align 8 dereferenceable(352) %9) #19
  br label %203

203:                                              ; preds = %202, %154
  %204 = load ptr, ptr %11, align 8
  %205 = load i32, ptr %12, align 4
  %206 = insertvalue { ptr, i32 } poison, ptr %204, 0
  %207 = insertvalue { ptr, i32 } %206, i32 %205, 1
  resume { ptr, i32 } %207
}

; Function Attrs: mustprogress noinline optnone sspstrong uwtable
define linkonce_odr dso_local void @_ZSt11make_sharedIN5clang22PCHContainerOperationsEJEESt10shared_ptrINSt9enable_ifIXntsr8is_arrayIT_EE5valueES4_E4typeEEDpOT0_(ptr dead_on_unwind noalias writable sret(%"class.std::shared_ptr.50") align 8 %0) #0 comdat {
  %2 = alloca ptr, align 8
  %3 = alloca %"class.std::allocator.401", align 1
  %4 = alloca %"struct.std::_Sp_alloc_shared_tag", align 8
  store ptr %0, ptr %2, align 8
  %5 = getelementptr inbounds nuw %"struct.std::_Sp_alloc_shared_tag", ptr %4, i32 0, i32 0
  store ptr %3, ptr %5, align 8
  %6 = getelementptr inbounds nuw %"struct.std::_Sp_alloc_shared_tag", ptr %4, i32 0, i32 0
  %7 = load ptr, ptr %6, align 8
  call void @_ZNSt10shared_ptrIN5clang22PCHContainerOperationsEEC2ISaIvEJEEESt20_Sp_alloc_shared_tagIT_EDpOT0_(ptr noundef nonnull align 8 dereferenceable(16) %0, ptr %7)
  ret void
}

declare void @_ZN5clang16CompilerInstanceC1ESt10shared_ptrINS_22PCHContainerOperationsEEPNS_19InMemoryModuleCacheE(ptr noundef nonnull align 8 dereferenceable(352), ptr noundef, ptr noundef) unnamed_addr #3

; Function Attrs: mustprogress noinline nounwind optnone sspstrong uwtable
define linkonce_odr dso_local void @_ZNSt10shared_ptrIN5clang22PCHContainerOperationsEED2Ev(ptr noundef nonnull align 8 dereferenceable(16) %0) unnamed_addr #2 comdat align 2 {
  %2 = alloca ptr, align 8
  store ptr %0, ptr %2, align 8
  %3 = load ptr, ptr %2, align 8
  call void @_ZNSt12__shared_ptrIN5clang22PCHContainerOperationsELN9__gnu_cxx12_Lock_policyE2EED2Ev(ptr noundef nonnull align 8 dereferenceable(16) %3) #19
  ret void
}

; Function Attrs: mustprogress noinline optnone sspstrong uwtable
define linkonce_odr dso_local void @_ZSt11make_sharedIN5clang13TargetOptionsEJEESt10shared_ptrINSt9enable_ifIXntsr8is_arrayIT_EE5valueES4_E4typeEEDpOT0_(ptr dead_on_unwind noalias writable sret(%"class.std::shared_ptr.83") align 8 %0) #0 comdat {
  %2 = alloca ptr, align 8
  %3 = alloca %"class.std::allocator.401", align 1
  %4 = alloca %"struct.std::_Sp_alloc_shared_tag", align 8
  store ptr %0, ptr %2, align 8
  %5 = getelementptr inbounds nuw %"struct.std::_Sp_alloc_shared_tag", ptr %4, i32 0, i32 0
  store ptr %3, ptr %5, align 8
  %6 = getelementptr inbounds nuw %"struct.std::_Sp_alloc_shared_tag", ptr %4, i32 0, i32 0
  %7 = load ptr, ptr %6, align 8
  call void @_ZNSt10shared_ptrIN5clang13TargetOptionsEEC2ISaIvEJEEESt20_Sp_alloc_shared_tagIT_EDpOT0_(ptr noundef nonnull align 8 dereferenceable(16) %0, ptr %7)
  ret void
}

; Function Attrs: mustprogress noinline nounwind optnone sspstrong uwtable
define linkonce_odr dso_local noundef ptr @_ZNKSt19__shared_ptr_accessIN5clang13TargetOptionsELN9__gnu_cxx12_Lock_policyE2ELb0ELb0EEptEv(ptr noundef nonnull align 1 dereferenceable(1) %0) #2 comdat align 2 {
  %2 = alloca ptr, align 8
  store ptr %0, ptr %2, align 8
  %3 = load ptr, ptr %2, align 8
  %4 = call noundef ptr @_ZNKSt19__shared_ptr_accessIN5clang13TargetOptionsELN9__gnu_cxx12_Lock_policyE2ELb0ELb0EE6_M_getEv(ptr noundef nonnull align 1 dereferenceable(1) %3) #19
  ret ptr %4
}

; Function Attrs: mustprogress noinline optnone sspstrong uwtable
define linkonce_odr dso_local noundef nonnull align 8 dereferenceable(32) ptr @_ZNSt7__cxx1112basic_stringIcSt11char_traitsIcESaIcEEaSEPKc(ptr noundef nonnull align 8 dereferenceable(32) %0, ptr noundef %1) #0 comdat align 2 {
  %3 = alloca ptr, align 8
  %4 = alloca ptr, align 8
  store ptr %0, ptr %3, align 8
  store ptr %1, ptr %4, align 8
  %5 = load ptr, ptr %3, align 8
  %6 = load ptr, ptr %4, align 8
  %7 = call noundef nonnull align 8 dereferenceable(32) ptr @_ZNSt7__cxx1112basic_stringIcSt11char_traitsIcESaIcEE6assignEPKc(ptr noundef nonnull align 8 dereferenceable(32) %5, ptr noundef %6)
  ret ptr %7
}

declare void @_ZN5clang16CompilerInstance9setTargetEPNS_10TargetInfoE(ptr noundef nonnull align 8 dereferenceable(352), ptr noundef) #3

declare noundef ptr @_ZN5clang10TargetInfo16CreateTargetInfoERNS_17DiagnosticsEngineERKSt10shared_ptrINS_13TargetOptionsEE(ptr noundef nonnull align 8 dereferenceable(15248), ptr noundef nonnull align 8 dereferenceable(16)) #3

; Function Attrs: mustprogress noinline optnone sspstrong uwtable
define linkonce_odr dso_local noundef nonnull align 8 dereferenceable(15248) ptr @_ZNK5clang16CompilerInstance14getDiagnosticsEv(ptr noundef nonnull align 8 dereferenceable(352) %0) #0 comdat align 2 {
  %2 = alloca ptr, align 8
  store ptr %0, ptr %2, align 8
  %3 = load ptr, ptr %2, align 8
  %4 = getelementptr inbounds nuw %"class.clang::CompilerInstance", ptr %3, i32 0, i32 2
  %5 = call noundef zeroext i1 @_ZNK4llvm18IntrusiveRefCntPtrIN5clang17DiagnosticsEngineEEcvbEv(ptr noundef nonnull align 8 dereferenceable(8) %4)
  br i1 %5, label %6, label %7

6:                                                ; preds = %1
  br label %7

7:                                                ; preds = %6, %1
  %8 = phi i1 [ false, %1 ], [ true, %6 ]
  br i1 %8, label %9, label %10

9:                                                ; preds = %7
  br label %12

10:                                               ; preds = %7
  call void @__assert_fail(ptr noundef @.str.21, ptr noundef @.str.22, i32 noundef 369, ptr noundef @__PRETTY_FUNCTION__._ZNK5clang16CompilerInstance14getDiagnosticsEv) #22
  unreachable

11:                                               ; No predecessors!
  br label %12

12:                                               ; preds = %11, %9
  %13 = getelementptr inbounds nuw %"class.clang::CompilerInstance", ptr %3, i32 0, i32 2
  %14 = call noundef nonnull align 8 dereferenceable(15248) ptr @_ZNK4llvm18IntrusiveRefCntPtrIN5clang17DiagnosticsEngineEEdeEv(ptr noundef nonnull align 8 dereferenceable(8) %13)
  ret ptr %14
}

; Function Attrs: mustprogress noinline optnone sspstrong uwtable
define linkonce_odr dso_local noundef nonnull align 8 dereferenceable(849) ptr @_ZN5clang16CompilerInstance11getLangOptsEv(ptr noundef nonnull align 8 dereferenceable(352) %0) #0 comdat align 2 {
  %2 = alloca ptr, align 8
  store ptr %0, ptr %2, align 8
  %3 = load ptr, ptr %2, align 8
  %4 = getelementptr inbounds nuw %"class.clang::CompilerInstance", ptr %3, i32 0, i32 1
  %5 = call noundef ptr @_ZNKSt19__shared_ptr_accessIN5clang18CompilerInvocationELN9__gnu_cxx12_Lock_policyE2ELb0ELb0EEptEv(ptr noundef nonnull align 1 dereferenceable(1) %4) #19
  %6 = call noundef nonnull align 8 dereferenceable(849) ptr @_ZN5clang18CompilerInvocation11getLangOptsEv(ptr noundef nonnull align 8 dereferenceable(192) %5)
  ret ptr %6
}

declare noundef ptr @_ZN5clang16CompilerInstance17createFileManagerEN4llvm18IntrusiveRefCntPtrINS1_3vfs10FileSystemEEE(ptr noundef nonnull align 8 dereferenceable(352), ptr noundef) #3

; Function Attrs: mustprogress noinline optnone sspstrong uwtable
define linkonce_odr dso_local void @_ZN4llvm18IntrusiveRefCntPtrINS_3vfs10FileSystemEEC2EPS2_(ptr noundef nonnull align 8 dereferenceable(8) %0, ptr noundef %1) unnamed_addr #0 comdat align 2 {
  %3 = alloca ptr, align 8
  %4 = alloca ptr, align 8
  store ptr %0, ptr %3, align 8
  store ptr %1, ptr %4, align 8
  %5 = load ptr, ptr %3, align 8
  %6 = getelementptr inbounds nuw %"class.llvm::IntrusiveRefCntPtr.127", ptr %5, i32 0, i32 0
  %7 = load ptr, ptr %4, align 8
  store ptr %7, ptr %6, align 8
  call void @_ZN4llvm18IntrusiveRefCntPtrINS_3vfs10FileSystemEE6retainEv(ptr noundef nonnull align 8 dereferenceable(8) %5)
  ret void
}

; Function Attrs: mustprogress noinline nounwind optnone sspstrong uwtable
define linkonce_odr dso_local void @_ZN4llvm18IntrusiveRefCntPtrINS_3vfs10FileSystemEED2Ev(ptr noundef nonnull align 8 dereferenceable(8) %0) unnamed_addr #2 comdat align 2 personality ptr @__gxx_personality_v0 {
  %2 = alloca ptr, align 8
  store ptr %0, ptr %2, align 8
  %3 = load ptr, ptr %2, align 8
  invoke void @_ZN4llvm18IntrusiveRefCntPtrINS_3vfs10FileSystemEE7releaseEv(ptr noundef nonnull align 8 dereferenceable(8) %3)
          to label %4 unwind label %5

4:                                                ; preds = %1
  ret void

5:                                                ; preds = %1
  %6 = landingpad { ptr, i32 }
          catch ptr null
  %7 = extractvalue { ptr, i32 } %6, 0
  call void @__clang_call_terminate(ptr %7) #21
  unreachable
}

declare void @_ZN5clang16CompilerInstance19createSourceManagerERNS_11FileManagerE(ptr noundef nonnull align 8 dereferenceable(352), ptr noundef nonnull align 8 dereferenceable(808)) #3

; Function Attrs: mustprogress noinline optnone sspstrong uwtable
define linkonce_odr dso_local noundef nonnull align 8 dereferenceable(808) ptr @_ZNK5clang16CompilerInstance14getFileManagerEv(ptr noundef nonnull align 8 dereferenceable(352) %0) #0 comdat align 2 {
  %2 = alloca ptr, align 8
  store ptr %0, ptr %2, align 8
  %3 = load ptr, ptr %2, align 8
  %4 = getelementptr inbounds nuw %"class.clang::CompilerInstance", ptr %3, i32 0, i32 5
  %5 = call noundef zeroext i1 @_ZNK4llvm18IntrusiveRefCntPtrIN5clang11FileManagerEEcvbEv(ptr noundef nonnull align 8 dereferenceable(8) %4)
  br i1 %5, label %6, label %7

6:                                                ; preds = %1
  br label %7

7:                                                ; preds = %6, %1
  %8 = phi i1 [ false, %1 ], [ true, %6 ]
  br i1 %8, label %9, label %10

9:                                                ; preds = %7
  br label %12

10:                                               ; preds = %7
  call void @__assert_fail(ptr noundef @.str.26, ptr noundef @.str.22, i32 noundef 447, ptr noundef @__PRETTY_FUNCTION__._ZNK5clang16CompilerInstance14getFileManagerEv) #22
  unreachable

11:                                               ; No predecessors!
  br label %12

12:                                               ; preds = %11, %9
  %13 = getelementptr inbounds nuw %"class.clang::CompilerInstance", ptr %3, i32 0, i32 5
  %14 = call noundef nonnull align 8 dereferenceable(808) ptr @_ZNK4llvm18IntrusiveRefCntPtrIN5clang11FileManagerEEdeEv(ptr noundef nonnull align 8 dereferenceable(8) %13)
  ret ptr %14
}

; Function Attrs: mustprogress noinline nounwind optnone sspstrong uwtable
define linkonce_odr dso_local void @_ZN5clang19CodeCompleteOptionsC2Ev(ptr noundef nonnull align 4 dereferenceable(1) %0) unnamed_addr #2 comdat align 2 {
  %2 = alloca ptr, align 8
  store ptr %0, ptr %2, align 8
  %3 = load ptr, ptr %2, align 8
  %4 = load i8, ptr %3, align 4
  %5 = and i8 %4, -2
  %6 = or i8 %5, 0
  store i8 %6, ptr %3, align 4
  %7 = load i8, ptr %3, align 4
  %8 = and i8 %7, -3
  %9 = or i8 %8, 0
  store i8 %9, ptr %3, align 4
  %10 = load i8, ptr %3, align 4
  %11 = and i8 %10, -5
  %12 = or i8 %11, 4
  store i8 %12, ptr %3, align 4
  %13 = load i8, ptr %3, align 4
  %14 = and i8 %13, -9
  %15 = or i8 %14, 8
  store i8 %15, ptr %3, align 4
  %16 = load i8, ptr %3, align 4
  %17 = and i8 %16, -17
  %18 = or i8 %17, 0
  store i8 %18, ptr %3, align 4
  %19 = load i8, ptr %3, align 4
  %20 = and i8 %19, -33
  %21 = or i8 %20, 32
  store i8 %21, ptr %3, align 4
  %22 = load i8, ptr %3, align 4
  %23 = and i8 %22, -65
  %24 = or i8 %23, 0
  store i8 %24, ptr %3, align 4
  ret void
}

; Function Attrs: nobuiltin allocsize(0)
declare noalias noundef nonnull ptr @_Znwm(i64 noundef) #4

; Function Attrs: mustprogress noinline optnone sspstrong uwtable
define linkonce_odr dso_local noundef nonnull align 8 dereferenceable(696) ptr @_ZNK5clang16CompilerInstance16getSourceManagerEv(ptr noundef nonnull align 8 dereferenceable(352) %0) #0 comdat align 2 {
  %2 = alloca ptr, align 8
  store ptr %0, ptr %2, align 8
  %3 = load ptr, ptr %2, align 8
  %4 = getelementptr inbounds nuw %"class.clang::CompilerInstance", ptr %3, i32 0, i32 6
  %5 = call noundef zeroext i1 @_ZNK4llvm18IntrusiveRefCntPtrIN5clang13SourceManagerEEcvbEv(ptr noundef nonnull align 8 dereferenceable(8) %4)
  br i1 %5, label %6, label %7

6:                                                ; preds = %1
  br label %7

7:                                                ; preds = %6, %1
  %8 = phi i1 [ false, %1 ], [ true, %6 ]
  br i1 %8, label %9, label %10

9:                                                ; preds = %7
  br label %12

10:                                               ; preds = %7
  call void @__assert_fail(ptr noundef @.str.28, ptr noundef @.str.22, i32 noundef 472, ptr noundef @__PRETTY_FUNCTION__._ZNK5clang16CompilerInstance16getSourceManagerEv) #22
  unreachable

11:                                               ; No predecessors!
  br label %12

12:                                               ; preds = %11, %9
  %13 = getelementptr inbounds nuw %"class.clang::CompilerInstance", ptr %3, i32 0, i32 6
  %14 = call noundef nonnull align 8 dereferenceable(696) ptr @_ZNK4llvm18IntrusiveRefCntPtrIN5clang13SourceManagerEEdeEv(ptr noundef nonnull align 8 dereferenceable(8) %13)
  ret ptr %14
}

; Function Attrs: mustprogress noinline optnone sspstrong uwtable
define linkonce_odr dso_local void @_ZN26CustomCodeCompleteConsumerC2ERKN5clang19CodeCompleteOptionsERNS0_13SourceManagerE(ptr noundef nonnull align 8 dereferenceable(80) %0, ptr noundef nonnull align 4 dereferenceable(1) %1, ptr noundef nonnull align 8 dereferenceable(696) %2) unnamed_addr #0 comdat align 2 personality ptr @__gxx_personality_v0 {
  %4 = alloca ptr, align 8
  %5 = alloca ptr, align 8
  %6 = alloca ptr, align 8
  %7 = alloca %"class.std::shared_ptr.181", align 8
  %8 = alloca ptr, align 8
  %9 = alloca i32, align 4
  %10 = alloca %"class.std::initializer_list", align 8
  store ptr %0, ptr %4, align 8
  store ptr %1, ptr %5, align 8
  store ptr %2, ptr %6, align 8
  %11 = load ptr, ptr %4, align 8
  %12 = load ptr, ptr %5, align 8
  call void @_ZN5clang20CodeCompleteConsumerC2ERKNS_19CodeCompleteOptionsE(ptr noundef nonnull align 8 dereferenceable(12) %11, ptr noundef nonnull align 4 dereferenceable(1) %12)
  store ptr getelementptr inbounds inrange(-16, 56) ({ [9 x ptr] }, ptr @_ZTV26CustomCodeCompleteConsumer, i32 0, i32 0, i32 2), ptr %11, align 8
  %13 = getelementptr inbounds nuw %class.CustomCodeCompleteConsumer, ptr %11, i32 0, i32 1
  invoke void @_ZSt11make_sharedIN5clang29GlobalCodeCompletionAllocatorEJEESt10shared_ptrINSt9enable_ifIXntsr8is_arrayIT_EE5valueES4_E4typeEEDpOT0_(ptr dead_on_unwind writable sret(%"class.std::shared_ptr.181") align 8 %7)
          to label %14 unwind label %24

14:                                               ; preds = %3
  invoke void @_ZN5clang20CodeCompletionTUInfoC2ESt10shared_ptrINS_29GlobalCodeCompletionAllocatorEE(ptr noundef nonnull align 8 dereferenceable(40) %13, ptr noundef %7)
          to label %15 unwind label %28

15:                                               ; preds = %14
  call void @_ZNSt10shared_ptrIN5clang29GlobalCodeCompletionAllocatorEED2Ev(ptr noundef nonnull align 8 dereferenceable(16) %7) #19
  %16 = getelementptr inbounds nuw %class.CustomCodeCompleteConsumer, ptr %11, i32 0, i32 2
  call void @_ZNSt16initializer_listIN8nlohmann10basic_jsonISt3mapSt6vectorNSt7__cxx1112basic_stringIcSt11char_traitsIcESaIcEEEblmdSaNS0_14adl_serializerEEEEC2Ev(ptr noundef nonnull align 8 dereferenceable(16) %10) #19
  %17 = getelementptr inbounds nuw { ptr, i64 }, ptr %10, i32 0, i32 0
  %18 = load ptr, ptr %17, align 8
  %19 = getelementptr inbounds nuw { ptr, i64 }, ptr %10, i32 0, i32 1
  %20 = load i64, ptr %19, align 8
  invoke void @_ZN8nlohmann10basic_jsonISt3mapSt6vectorNSt7__cxx1112basic_stringIcSt11char_traitsIcESaIcEEEblmdSaNS_14adl_serializerEE5arrayESt16initializer_listISA_E(ptr dead_on_unwind writable sret(%"class.nlohmann::basic_json") align 8 %16, ptr %18, i64 %20)
          to label %21 unwind label %32

21:                                               ; preds = %15
  %22 = getelementptr inbounds nuw %class.CustomCodeCompleteConsumer, ptr %11, i32 0, i32 3
  %23 = load ptr, ptr %6, align 8
  store ptr %23, ptr %22, align 8
  ret void

24:                                               ; preds = %3
  %25 = landingpad { ptr, i32 }
          cleanup
  %26 = extractvalue { ptr, i32 } %25, 0
  store ptr %26, ptr %8, align 8
  %27 = extractvalue { ptr, i32 } %25, 1
  store i32 %27, ptr %9, align 4
  br label %36

28:                                               ; preds = %14
  %29 = landingpad { ptr, i32 }
          cleanup
  %30 = extractvalue { ptr, i32 } %29, 0
  store ptr %30, ptr %8, align 8
  %31 = extractvalue { ptr, i32 } %29, 1
  store i32 %31, ptr %9, align 4
  call void @_ZNSt10shared_ptrIN5clang29GlobalCodeCompletionAllocatorEED2Ev(ptr noundef nonnull align 8 dereferenceable(16) %7) #19
  br label %36

32:                                               ; preds = %15
  %33 = landingpad { ptr, i32 }
          cleanup
  %34 = extractvalue { ptr, i32 } %33, 0
  store ptr %34, ptr %8, align 8
  %35 = extractvalue { ptr, i32 } %33, 1
  store i32 %35, ptr %9, align 4
  call void @_ZN5clang20CodeCompletionTUInfoD2Ev(ptr noundef nonnull align 8 dereferenceable(40) %13) #19
  br label %36

36:                                               ; preds = %32, %28, %24
  call void @_ZN5clang20CodeCompleteConsumerD2Ev(ptr noundef nonnull align 8 dereferenceable(12) %11) #19
  br label %37

37:                                               ; preds = %36
  %38 = load ptr, ptr %8, align 8
  %39 = load i32, ptr %9, align 4
  %40 = insertvalue { ptr, i32 } poison, ptr %38, 0
  %41 = insertvalue { ptr, i32 } %40, i32 %39, 1
  resume { ptr, i32 } %41
}

; Function Attrs: nobuiltin nounwind
declare void @_ZdlPvm(ptr noundef, i64 noundef) #5

declare void @_ZN5clang16CompilerInstance25setCodeCompletionConsumerEPNS_20CodeCompleteConsumerE(ptr noundef nonnull align 8 dereferenceable(352), ptr noundef) #3

; Function Attrs: mustprogress noinline optnone sspstrong uwtable
define linkonce_odr dso_local noundef nonnull align 8 dereferenceable(920) ptr @_ZN5clang16CompilerInstance15getFrontendOptsEv(ptr noundef nonnull align 8 dereferenceable(352) %0) #0 comdat align 2 {
  %2 = alloca ptr, align 8
  store ptr %0, ptr %2, align 8
  %3 = load ptr, ptr %2, align 8
  %4 = getelementptr inbounds nuw %"class.clang::CompilerInstance", ptr %3, i32 0, i32 1
  %5 = call noundef ptr @_ZNKSt19__shared_ptr_accessIN5clang18CompilerInvocationELN9__gnu_cxx12_Lock_policyE2ELb0ELb0EEptEv(ptr noundef nonnull align 1 dereferenceable(1) %4) #19
  %6 = call noundef nonnull align 8 dereferenceable(920) ptr @_ZN5clang18CompilerInvocation15getFrontendOptsEv(ptr noundef nonnull align 8 dereferenceable(192) %5)
  ret ptr %6
}

; Function Attrs: mustprogress noinline optnone sspstrong uwtable
define linkonce_odr dso_local void @_ZN4llvm23SmallVectorTemplateBaseIN5clang17FrontendInputFileELb0EE9push_backEOS2_(ptr noundef nonnull align 8 dereferenceable(16) %0, ptr noundef nonnull align 8 dereferenceable(77) %1) #0 comdat align 2 {
  %3 = alloca ptr, align 8
  %4 = alloca ptr, align 8
  %5 = alloca ptr, align 8
  store ptr %0, ptr %3, align 8
  store ptr %1, ptr %4, align 8
  %6 = load ptr, ptr %3, align 8
  %7 = load ptr, ptr %4, align 8
  %8 = call noundef ptr @_ZN4llvm23SmallVectorTemplateBaseIN5clang17FrontendInputFileELb0EE28reserveForParamAndGetAddressERS2_m(ptr noundef nonnull align 8 dereferenceable(16) %6, ptr noundef nonnull align 8 dereferenceable(77) %7, i64 noundef 1)
  store ptr %8, ptr %5, align 8
  %9 = call noundef ptr @_ZN4llvm25SmallVectorTemplateCommonIN5clang17FrontendInputFileEvE3endEv(ptr noundef nonnull align 8 dereferenceable(16) %6)
  %10 = load ptr, ptr %5, align 8
  call void @_ZN5clang17FrontendInputFileC2EOS0_(ptr noundef nonnull align 8 dereferenceable(77) %9, ptr noundef nonnull align 8 dereferenceable(77) %10) #19
  %11 = call noundef i64 @_ZNK4llvm15SmallVectorBaseIjE4sizeEv(ptr noundef nonnull align 8 dereferenceable(16) %6)
  %12 = add i64 %11, 1
  call void @_ZN4llvm15SmallVectorBaseIjE8set_sizeEm(ptr noundef nonnull align 8 dereferenceable(16) %6, i64 noundef %12)
  ret void
}

; Function Attrs: mustprogress noinline nounwind optnone sspstrong uwtable
define linkonce_odr dso_local void @_ZN4llvm9StringRefC2ERKNSt7__cxx1112basic_stringIcSt11char_traitsIcESaIcEEE(ptr noundef nonnull align 8 dereferenceable(16) %0, ptr noundef nonnull align 8 dereferenceable(32) %1) unnamed_addr #2 comdat align 2 {
  %3 = alloca ptr, align 8
  %4 = alloca ptr, align 8
  store ptr %0, ptr %3, align 8
  store ptr %1, ptr %4, align 8
  %5 = load ptr, ptr %3, align 8
  %6 = getelementptr inbounds nuw %"class.llvm::StringRef", ptr %5, i32 0, i32 0
  %7 = load ptr, ptr %4, align 8
  %8 = call noundef ptr @_ZNKSt7__cxx1112basic_stringIcSt11char_traitsIcESaIcEE4dataEv(ptr noundef nonnull align 8 dereferenceable(32) %7) #19
  store ptr %8, ptr %6, align 8
  %9 = getelementptr inbounds nuw %"class.llvm::StringRef", ptr %5, i32 0, i32 1
  %10 = load ptr, ptr %4, align 8
  %11 = call noundef i64 @_ZNKSt7__cxx1112basic_stringIcSt11char_traitsIcESaIcEE6lengthEv(ptr noundef nonnull align 8 dereferenceable(32) %10) #19
  store i64 %11, ptr %9, align 8
  ret void
}

; Function Attrs: mustprogress noinline nounwind optnone sspstrong uwtable
define linkonce_odr dso_local void @_ZN5clang9InputKindC2ENS_8LanguageENS0_6FormatEbNS0_14HeaderUnitKindEb(ptr noundef nonnull align 4 dereferenceable(2) %0, i8 noundef zeroext %1, i32 noundef %2, i1 noundef zeroext %3, i32 noundef %4, i1 noundef zeroext %5) unnamed_addr #2 comdat align 2 {
  %7 = alloca ptr, align 8
  %8 = alloca i8, align 1
  %9 = alloca i32, align 4
  %10 = alloca i8, align 1
  %11 = alloca i32, align 4
  %12 = alloca i8, align 1
  store ptr %0, ptr %7, align 8
  store i8 %1, ptr %8, align 1
  store i32 %2, ptr %9, align 4
  %13 = zext i1 %3 to i8
  store i8 %13, ptr %10, align 1
  store i32 %4, ptr %11, align 4
  %14 = zext i1 %5 to i8
  store i8 %14, ptr %12, align 1
  %15 = load ptr, ptr %7, align 8
  %16 = getelementptr inbounds nuw %"class.clang::InputKind", ptr %15, i32 0, i32 0
  %17 = load i8, ptr %8, align 1
  store i8 %17, ptr %16, align 4
  %18 = getelementptr inbounds nuw %"class.clang::InputKind", ptr %15, i32 0, i32 1
  %19 = load i32, ptr %9, align 4
  %20 = trunc i32 %19 to i8
  %21 = load i8, ptr %18, align 1
  %22 = and i8 %20, 7
  %23 = and i8 %21, -8
  %24 = or i8 %23, %22
  store i8 %24, ptr %18, align 1
  %25 = getelementptr inbounds nuw %"class.clang::InputKind", ptr %15, i32 0, i32 1
  %26 = load i8, ptr %10, align 1
  %27 = trunc i8 %26 to i1
  %28 = zext i1 %27 to i32
  %29 = trunc i32 %28 to i8
  %30 = load i8, ptr %25, align 1
  %31 = and i8 %29, 1
  %32 = shl i8 %31, 3
  %33 = and i8 %30, -9
  %34 = or i8 %33, %32
  store i8 %34, ptr %25, align 1
  %35 = getelementptr inbounds nuw %"class.clang::InputKind", ptr %15, i32 0, i32 1
  %36 = load i32, ptr %11, align 4
  %37 = trunc i32 %36 to i8
  %38 = load i8, ptr %35, align 1
  %39 = and i8 %37, 7
  %40 = shl i8 %39, 4
  %41 = and i8 %38, -113
  %42 = or i8 %41, %40
  store i8 %42, ptr %35, align 1
  %43 = getelementptr inbounds nuw %"class.clang::InputKind", ptr %15, i32 0, i32 1
  %44 = load i8, ptr %12, align 1
  %45 = trunc i8 %44 to i1
  %46 = zext i1 %45 to i32
  %47 = trunc i32 %46 to i8
  %48 = load i8, ptr %43, align 1
  %49 = and i8 %47, 1
  %50 = shl i8 %49, 7
  %51 = and i8 %48, 127
  %52 = or i8 %51, %50
  store i8 %52, ptr %43, align 1
  ret void
}

; Function Attrs: mustprogress noinline nounwind optnone sspstrong uwtable
define linkonce_odr dso_local noundef zeroext i8 @_ZNK5clang9InputKind11getLanguageEv(ptr noundef nonnull align 4 dereferenceable(2) %0) #2 comdat align 2 {
  %2 = alloca ptr, align 8
  store ptr %0, ptr %2, align 8
  %3 = load ptr, ptr %2, align 8
  %4 = getelementptr inbounds nuw %"class.clang::InputKind", ptr %3, i32 0, i32 0
  %5 = load i8, ptr %4, align 4
  ret i8 %5
}

; Function Attrs: mustprogress noinline optnone sspstrong uwtable
define linkonce_odr dso_local void @_ZN5clang17FrontendInputFileC2EN4llvm9StringRefENS_9InputKindEb(ptr noundef nonnull align 8 dereferenceable(77) %0, ptr %1, i64 %2, i32 %3, i1 noundef zeroext %4) unnamed_addr #0 comdat align 2 {
  %6 = alloca %"class.llvm::StringRef", align 8
  %7 = alloca %"class.clang::InputKind", align 4
  %8 = alloca ptr, align 8
  %9 = alloca i8, align 1
  %10 = getelementptr inbounds nuw { ptr, i64 }, ptr %6, i32 0, i32 0
  store ptr %1, ptr %10, align 8
  %11 = getelementptr inbounds nuw { ptr, i64 }, ptr %6, i32 0, i32 1
  store i64 %2, ptr %11, align 8
  store i32 %3, ptr %7, align 4
  store ptr %0, ptr %8, align 8
  %12 = zext i1 %4 to i8
  store i8 %12, ptr %9, align 1
  %13 = load ptr, ptr %8, align 8
  %14 = getelementptr inbounds nuw %"class.clang::FrontendInputFile", ptr %13, i32 0, i32 0
  call void @_ZNK4llvm9StringRef3strB5cxx11Ev(ptr dead_on_unwind writable sret(%"class.std::__cxx11::basic_string") align 8 %14, ptr noundef nonnull align 8 dereferenceable(16) %6)
  %15 = getelementptr inbounds nuw %"class.clang::FrontendInputFile", ptr %13, i32 0, i32 1
  call void @_ZNSt8optionalIN4llvm15MemoryBufferRefEEC2Ev(ptr noundef nonnull align 8 dereferenceable(40) %15) #19
  %16 = getelementptr inbounds nuw %"class.clang::FrontendInputFile", ptr %13, i32 0, i32 2
  call void @llvm.memcpy.p0.p0.i64(ptr align 8 %16, ptr align 4 %7, i64 4, i1 false)
  %17 = getelementptr inbounds nuw %"class.clang::FrontendInputFile", ptr %13, i32 0, i32 3
  %18 = load i8, ptr %9, align 1
  %19 = trunc i8 %18 to i1
  %20 = zext i1 %19 to i8
  store i8 %20, ptr %17, align 4
  ret void
}

; Function Attrs: mustprogress noinline nounwind optnone sspstrong uwtable
define linkonce_odr dso_local void @_ZN5clang17FrontendInputFileD2Ev(ptr noundef nonnull align 8 dereferenceable(77) %0) unnamed_addr #2 comdat align 2 {
  %2 = alloca ptr, align 8
  store ptr %0, ptr %2, align 8
  %3 = load ptr, ptr %2, align 8
  %4 = getelementptr inbounds nuw %"class.clang::FrontendInputFile", ptr %3, i32 0, i32 0
  call void @_ZNSt7__cxx1112basic_stringIcSt11char_traitsIcESaIcEED2Ev(ptr noundef nonnull align 8 dereferenceable(32) %4) #19
  ret void
}

; Function Attrs: mustprogress noinline optnone sspstrong uwtable
define linkonce_odr dso_local noundef nonnull align 8 dereferenceable(32) ptr @_ZNSt7__cxx1112basic_stringIcSt11char_traitsIcESaIcEEaSERKS4_(ptr noundef nonnull align 8 dereferenceable(32) %0, ptr noundef nonnull align 8 dereferenceable(32) %1) #0 comdat align 2 {
  %3 = alloca ptr, align 8
  %4 = alloca ptr, align 8
  store ptr %0, ptr %3, align 8
  store ptr %1, ptr %4, align 8
  %5 = load ptr, ptr %3, align 8
  %6 = load ptr, ptr %4, align 8
  %7 = call noundef nonnull align 8 dereferenceable(32) ptr @_ZNSt7__cxx1112basic_stringIcSt11char_traitsIcESaIcEE6assignERKS4_(ptr noundef nonnull align 8 dereferenceable(32) %5, ptr noundef nonnull align 8 dereferenceable(32) %6)
  ret ptr %7
}

declare void @_ZN4llvm12MemoryBuffer12getMemBufferENS_9StringRefES1_b(ptr dead_on_unwind writable sret(%"class.std::unique_ptr.237") align 8, ptr, i64, ptr, i64, i1 noundef zeroext) #3

; Function Attrs: mustprogress noinline optnone sspstrong uwtable
define linkonce_odr dso_local noundef nonnull align 8 dereferenceable(376) ptr @_ZN5clang16CompilerInstance19getPreprocessorOptsEv(ptr noundef nonnull align 8 dereferenceable(352) %0) #0 comdat align 2 {
  %2 = alloca ptr, align 8
  store ptr %0, ptr %2, align 8
  %3 = load ptr, ptr %2, align 8
  %4 = getelementptr inbounds nuw %"class.clang::CompilerInstance", ptr %3, i32 0, i32 1
  %5 = call noundef ptr @_ZNKSt19__shared_ptr_accessIN5clang18CompilerInvocationELN9__gnu_cxx12_Lock_policyE2ELb0ELb0EEptEv(ptr noundef nonnull align 1 dereferenceable(1) %4) #19
  %6 = call noundef nonnull align 8 dereferenceable(376) ptr @_ZN5clang18CompilerInvocation19getPreprocessorOptsEv(ptr noundef nonnull align 8 dereferenceable(192) %5)
  ret ptr %6
}

; Function Attrs: mustprogress noinline nounwind optnone sspstrong uwtable
define linkonce_odr dso_local void @_ZN5clang19PreprocessorOptions18clearRemappedFilesEv(ptr noundef nonnull align 8 dereferenceable(376) %0) #2 comdat align 2 {
  %2 = alloca ptr, align 8
  store ptr %0, ptr %2, align 8
  %3 = load ptr, ptr %2, align 8
  %4 = getelementptr inbounds nuw %"class.clang::PreprocessorOptions", ptr %3, i32 0, i32 23
  call void @_ZNSt6vectorISt4pairINSt7__cxx1112basic_stringIcSt11char_traitsIcESaIcEEES6_ESaIS7_EE5clearEv(ptr noundef nonnull align 8 dereferenceable(24) %4) #19
  %5 = getelementptr inbounds nuw %"class.clang::PreprocessorOptions", ptr %3, i32 0, i32 24
  call void @_ZNSt6vectorISt4pairINSt7__cxx1112basic_stringIcSt11char_traitsIcESaIcEEEPN4llvm12MemoryBufferEESaISA_EE5clearEv(ptr noundef nonnull align 8 dereferenceable(24) %5) #19
  ret void
}

; Function Attrs: mustprogress noinline optnone sspstrong uwtable
define linkonce_odr dso_local void @_ZN5clang19PreprocessorOptions15addRemappedFileEN4llvm9StringRefEPNS1_12MemoryBufferE(ptr noundef nonnull align 8 dereferenceable(376) %0, ptr %1, i64 %2, ptr noundef %3) #0 comdat align 2 personality ptr @__gxx_personality_v0 {
  %5 = alloca ptr, align 8
  %6 = alloca ptr, align 8
  %7 = alloca ptr, align 8
  %8 = alloca ptr, align 8
  %9 = alloca %"class.llvm::StringRef", align 8
  %10 = alloca ptr, align 8
  %11 = alloca ptr, align 8
  %12 = alloca %"class.std::__cxx11::basic_string", align 8
  %13 = alloca %"class.std::allocator.0", align 1
  %14 = alloca ptr, align 8
  %15 = alloca i32, align 4
  %16 = getelementptr inbounds nuw { ptr, i64 }, ptr %9, i32 0, i32 0
  store ptr %1, ptr %16, align 8
  %17 = getelementptr inbounds nuw { ptr, i64 }, ptr %9, i32 0, i32 1
  store i64 %2, ptr %17, align 8
  store ptr %0, ptr %10, align 8
  store ptr %3, ptr %11, align 8
  %18 = load ptr, ptr %10, align 8
  %19 = getelementptr inbounds nuw %"class.clang::PreprocessorOptions", ptr %18, i32 0, i32 24
  store ptr %13, ptr %8, align 8
  %20 = load ptr, ptr %8, align 8
  store ptr %20, ptr %5, align 8
  %21 = load ptr, ptr %5, align 8
  invoke void @_ZNSt7__cxx1112basic_stringIcSt11char_traitsIcESaIcEEC2IN4llvm9StringRefEvEERKT_RKS3_(ptr noundef nonnull align 8 dereferenceable(32) %12, ptr noundef nonnull align 8 dereferenceable(16) %9, ptr noundef nonnull align 1 dereferenceable(1) %13)
          to label %22 unwind label %26

22:                                               ; preds = %4
  %23 = invoke noundef nonnull align 8 dereferenceable(40) ptr @_ZNSt6vectorISt4pairINSt7__cxx1112basic_stringIcSt11char_traitsIcESaIcEEEPN4llvm12MemoryBufferEESaISA_EE12emplace_backIJS6_RS9_EEERSA_DpOT_(ptr noundef nonnull align 8 dereferenceable(24) %19, ptr noundef nonnull align 8 dereferenceable(32) %12, ptr noundef nonnull align 8 dereferenceable(8) %11)
          to label %24 unwind label %30

24:                                               ; preds = %22
  call void @_ZNSt7__cxx1112basic_stringIcSt11char_traitsIcESaIcEED2Ev(ptr noundef nonnull align 8 dereferenceable(32) %12) #19
  store ptr %13, ptr %7, align 8
  %25 = load ptr, ptr %7, align 8
  call void @_ZNSt15__new_allocatorIcED2Ev(ptr noundef nonnull align 1 dereferenceable(1) %25) #19
  ret void

26:                                               ; preds = %4
  %27 = landingpad { ptr, i32 }
          cleanup
  %28 = extractvalue { ptr, i32 } %27, 0
  store ptr %28, ptr %14, align 8
  %29 = extractvalue { ptr, i32 } %27, 1
  store i32 %29, ptr %15, align 4
  br label %34

30:                                               ; preds = %22
  %31 = landingpad { ptr, i32 }
          cleanup
  %32 = extractvalue { ptr, i32 } %31, 0
  store ptr %32, ptr %14, align 8
  %33 = extractvalue { ptr, i32 } %31, 1
  store i32 %33, ptr %15, align 4
  call void @_ZNSt7__cxx1112basic_stringIcSt11char_traitsIcESaIcEED2Ev(ptr noundef nonnull align 8 dereferenceable(32) %12) #19
  br label %34

34:                                               ; preds = %30, %26
  store ptr %13, ptr %6, align 8
  %35 = load ptr, ptr %6, align 8
  call void @_ZNSt15__new_allocatorIcED2Ev(ptr noundef nonnull align 1 dereferenceable(1) %35) #19
  br label %36

36:                                               ; preds = %34
  %37 = load ptr, ptr %14, align 8
  %38 = load i32, ptr %15, align 4
  %39 = insertvalue { ptr, i32 } poison, ptr %37, 0
  %40 = insertvalue { ptr, i32 } %39, i32 %38, 1
  resume { ptr, i32 } %40
}

; Function Attrs: mustprogress noinline nounwind optnone sspstrong uwtable
define linkonce_odr dso_local noundef ptr @_ZNSt10unique_ptrIN4llvm12MemoryBufferESt14default_deleteIS1_EE7releaseEv(ptr noundef nonnull align 8 dereferenceable(8) %0) #2 comdat align 2 {
  %2 = alloca ptr, align 8
  store ptr %0, ptr %2, align 8
  %3 = load ptr, ptr %2, align 8
  %4 = getelementptr inbounds nuw %"class.std::unique_ptr.237", ptr %3, i32 0, i32 0
  %5 = call noundef ptr @_ZNSt15__uniq_ptr_implIN4llvm12MemoryBufferESt14default_deleteIS1_EE7releaseEv(ptr noundef nonnull align 8 dereferenceable(8) %4) #19
  ret ptr %5
}

; Function Attrs: mustprogress noinline optnone sspstrong uwtable
define linkonce_odr dso_local void @_ZN5clang16SyntaxOnlyActionC2Ev(ptr noundef nonnull align 8 dereferenceable(104) %0) unnamed_addr #0 comdat align 2 {
  %2 = alloca ptr, align 8
  store ptr %0, ptr %2, align 8
  %3 = load ptr, ptr %2, align 8
  call void @_ZN5clang17ASTFrontendActionC2Ev(ptr noundef nonnull align 8 dereferenceable(104) %3)
  store ptr getelementptr inbounds inrange(-16, 136) ({ [19 x ptr] }, ptr @_ZTVN5clang16SyntaxOnlyActionE, i32 0, i32 0, i32 2), ptr %3, align 8
  ret void
}

declare noundef zeroext i1 @_ZN5clang14FrontendAction15BeginSourceFileERNS_16CompilerInstanceERKNS_17FrontendInputFileE(ptr noundef nonnull align 8 dereferenceable(104), ptr noundef nonnull align 8 dereferenceable(352), ptr noundef nonnull align 8 dereferenceable(77)) #3

; Function Attrs: mustprogress noinline optnone sspstrong uwtable
define linkonce_odr dso_local noundef nonnull align 8 dereferenceable(77) ptr @_ZN4llvm25SmallVectorTemplateCommonIN5clang17FrontendInputFileEvEixEm(ptr noundef nonnull align 8 dereferenceable(16) %0, i64 noundef %1) #0 comdat align 2 {
  %3 = alloca ptr, align 8
  %4 = alloca i64, align 8
  store ptr %0, ptr %3, align 8
  store i64 %1, ptr %4, align 8
  %5 = load ptr, ptr %3, align 8
  %6 = load i64, ptr %4, align 8
  %7 = call noundef i64 @_ZNK4llvm15SmallVectorBaseIjE4sizeEv(ptr noundef nonnull align 8 dereferenceable(16) %5)
  %8 = icmp ult i64 %6, %7
  br i1 %8, label %9, label %10

9:                                                ; preds = %2
  br label %12

10:                                               ; preds = %2
  call void @__assert_fail(ptr noundef @.str.124, ptr noundef @.str.125, i32 noundef 291, ptr noundef @__PRETTY_FUNCTION__._ZN4llvm25SmallVectorTemplateCommonIN5clang17FrontendInputFileEvEixEm) #22
  unreachable

11:                                               ; No predecessors!
  br label %12

12:                                               ; preds = %11, %9
  %13 = call noundef ptr @_ZN4llvm25SmallVectorTemplateCommonIN5clang17FrontendInputFileEvE5beginEv(ptr noundef nonnull align 8 dereferenceable(16) %5)
  %14 = load i64, ptr %4, align 8
  %15 = getelementptr inbounds nuw %"class.clang::FrontendInputFile", ptr %13, i64 %14
  ret ptr %15
}

declare void @_ZN5clang14FrontendAction7ExecuteEv(ptr dead_on_unwind writable sret(%"class.llvm::Error") align 8, ptr noundef nonnull align 8 dereferenceable(104)) #3

; Function Attrs: mustprogress noinline nounwind optnone sspstrong uwtable
define linkonce_odr dso_local void @_ZN4llvm5ErrorD2Ev(ptr noundef nonnull align 8 dereferenceable(8) %0) unnamed_addr #2 comdat align 2 personality ptr @__gxx_personality_v0 {
  %2 = alloca ptr, align 8
  store ptr %0, ptr %2, align 8
  %3 = load ptr, ptr %2, align 8
  invoke void @_ZN4llvm5Error15assertIsCheckedEv(ptr noundef nonnull align 8 dereferenceable(8) %3)
          to label %4 unwind label %13

4:                                                ; preds = %1
  %5 = invoke noundef ptr @_ZNK4llvm5Error6getPtrEv(ptr noundef nonnull align 8 dereferenceable(8) %3)
          to label %6 unwind label %13

6:                                                ; preds = %4
  %7 = icmp eq ptr %5, null
  br i1 %7, label %12, label %8

8:                                                ; preds = %6
  %9 = load ptr, ptr %5, align 8
  %10 = getelementptr inbounds ptr, ptr %9, i64 1
  %11 = load ptr, ptr %10, align 8
  call void %11(ptr noundef nonnull align 8 dereferenceable(8) %5) #19
  br label %12

12:                                               ; preds = %8, %6
  ret void

13:                                               ; preds = %4, %1
  %14 = landingpad { ptr, i32 }
          catch ptr null
  %15 = extractvalue { ptr, i32 } %14, 0
  call void @__clang_call_terminate(ptr %15) #21
  unreachable
}

declare void @_ZN5clang14FrontendAction13EndSourceFileEv(ptr noundef nonnull align 8 dereferenceable(104)) unnamed_addr #3

declare noundef nonnull align 8 dereferenceable(96) ptr @_ZN4llvm4outsEv() #3

; Function Attrs: mustprogress noinline optnone sspstrong uwtable
define linkonce_odr dso_local noundef nonnull align 8 dereferenceable(48) ptr @_ZN4llvm11raw_ostreamlsERKNSt7__cxx1112basic_stringIcSt11char_traitsIcESaIcEEE(ptr noundef nonnull align 8 dereferenceable(48) %0, ptr noundef nonnull align 8 dereferenceable(32) %1) #0 comdat align 2 {
  %3 = alloca ptr, align 8
  %4 = alloca ptr, align 8
  store ptr %0, ptr %3, align 8
  store ptr %1, ptr %4, align 8
  %5 = load ptr, ptr %3, align 8
  %6 = load ptr, ptr %4, align 8
  %7 = call noundef ptr @_ZNKSt7__cxx1112basic_stringIcSt11char_traitsIcESaIcEE4dataEv(ptr noundef nonnull align 8 dereferenceable(32) %6) #19
  %8 = load ptr, ptr %4, align 8
  %9 = call noundef i64 @_ZNKSt7__cxx1112basic_stringIcSt11char_traitsIcESaIcEE6lengthEv(ptr noundef nonnull align 8 dereferenceable(32) %8) #19
  %10 = call noundef nonnull align 8 dereferenceable(48) ptr @_ZN4llvm11raw_ostream5writeEPKcm(ptr noundef nonnull align 8 dereferenceable(48) %5, ptr noundef %7, i64 noundef %9)
  ret ptr %10
}

; Function Attrs: mustprogress noinline nounwind optnone sspstrong uwtable
define linkonce_odr dso_local noundef ptr @_ZN26CustomCodeCompleteConsumer7GetJSONB5cxx11Ev(ptr noundef nonnull align 8 dereferenceable(80) %0) #2 comdat align 2 {
  %2 = alloca ptr, align 8
  store ptr %0, ptr %2, align 8
  %3 = load ptr, ptr %2, align 8
  %4 = getelementptr inbounds nuw %class.CustomCodeCompleteConsumer, ptr %3, i32 0, i32 2
  ret ptr %4
}

; Function Attrs: mustprogress noinline optnone sspstrong uwtable
define linkonce_odr dso_local void @_ZNK8nlohmann10basic_jsonISt3mapSt6vectorNSt7__cxx1112basic_stringIcSt11char_traitsIcESaIcEEEblmdSaNS_14adl_serializerEE4dumpEi(ptr dead_on_unwind noalias writable sret(%"class.std::__cxx11::basic_string") align 8 %0, ptr noundef nonnull align 8 dereferenceable(16) %1, i32 noundef %2) #0 comdat align 2 personality ptr @__gxx_personality_v0 {
  %4 = alloca ptr, align 8
  %5 = alloca ptr, align 8
  %6 = alloca i32, align 4
  %7 = alloca %"class.std::__cxx11::basic_stringstream", align 8
  %8 = alloca ptr, align 8
  %9 = alloca i32, align 4
  store ptr %0, ptr %4, align 8
  store ptr %1, ptr %5, align 8
  store i32 %2, ptr %6, align 4
  %10 = load ptr, ptr %5, align 8
  call void @_ZNSt7__cxx1118basic_stringstreamIcSt11char_traitsIcESaIcEEC1Ev(ptr noundef nonnull align 8 dereferenceable(128) %7)
  %11 = load i32, ptr %6, align 4
  %12 = icmp sge i32 %11, 0
  br i1 %12, label %13, label %21

13:                                               ; preds = %3
  %14 = getelementptr inbounds i8, ptr %7, i64 16
  %15 = load i32, ptr %6, align 4
  invoke void @_ZNK8nlohmann10basic_jsonISt3mapSt6vectorNSt7__cxx1112basic_stringIcSt11char_traitsIcESaIcEEEblmdSaNS_14adl_serializerEE4dumpERSobjj(ptr noundef nonnull align 8 dereferenceable(16) %10, ptr noundef nonnull align 8 dereferenceable(8) %14, i1 noundef zeroext true, i32 noundef %15, i32 noundef 0)
          to label %16 unwind label %17

16:                                               ; preds = %13
  br label %24

17:                                               ; preds = %24, %21, %13
  %18 = landingpad { ptr, i32 }
          cleanup
  %19 = extractvalue { ptr, i32 } %18, 0
  store ptr %19, ptr %8, align 8
  %20 = extractvalue { ptr, i32 } %18, 1
  store i32 %20, ptr %9, align 4
  call void @_ZNSt7__cxx1118basic_stringstreamIcSt11char_traitsIcESaIcEED1Ev(ptr noundef nonnull align 8 dereferenceable(128) %7) #19
  br label %26

21:                                               ; preds = %3
  %22 = getelementptr inbounds i8, ptr %7, i64 16
  invoke void @_ZNK8nlohmann10basic_jsonISt3mapSt6vectorNSt7__cxx1112basic_stringIcSt11char_traitsIcESaIcEEEblmdSaNS_14adl_serializerEE4dumpERSobjj(ptr noundef nonnull align 8 dereferenceable(16) %10, ptr noundef nonnull align 8 dereferenceable(8) %22, i1 noundef zeroext false, i32 noundef 0, i32 noundef 0)
          to label %23 unwind label %17

23:                                               ; preds = %21
  br label %24

24:                                               ; preds = %23, %16
  invoke void @_ZNKSt7__cxx1118basic_stringstreamIcSt11char_traitsIcESaIcEE3strEv(ptr dead_on_unwind writable sret(%"class.std::__cxx11::basic_string") align 8 %0, ptr noundef nonnull align 8 dereferenceable(128) %7)
          to label %25 unwind label %17

25:                                               ; preds = %24
  call void @_ZNSt7__cxx1118basic_stringstreamIcSt11char_traitsIcESaIcEED1Ev(ptr noundef nonnull align 8 dereferenceable(128) %7) #19
  ret void

26:                                               ; preds = %17
  %27 = load ptr, ptr %8, align 8
  %28 = load i32, ptr %9, align 4
  %29 = insertvalue { ptr, i32 } poison, ptr %27, 0
  %30 = insertvalue { ptr, i32 } %29, i32 %28, 1
  resume { ptr, i32 } %30
}

; Function Attrs: nounwind
declare void @_ZN5clang16SyntaxOnlyActionD1Ev(ptr noundef nonnull align 8 dereferenceable(104)) unnamed_addr #6

; Function Attrs: mustprogress noinline nounwind optnone sspstrong uwtable
define linkonce_odr dso_local void @_ZNSt10unique_ptrIN4llvm12MemoryBufferESt14default_deleteIS1_EED2Ev(ptr noundef nonnull align 8 dereferenceable(8) %0) unnamed_addr #2 comdat align 2 personality ptr @__gxx_personality_v0 {
  %2 = alloca ptr, align 8
  %3 = alloca ptr, align 8
  store ptr %0, ptr %2, align 8
  %4 = load ptr, ptr %2, align 8
  %5 = getelementptr inbounds nuw %"class.std::unique_ptr.237", ptr %4, i32 0, i32 0
  %6 = call noundef nonnull align 8 dereferenceable(8) ptr @_ZNSt15__uniq_ptr_implIN4llvm12MemoryBufferESt14default_deleteIS1_EE6_M_ptrEv(ptr noundef nonnull align 8 dereferenceable(8) %5) #19
  store ptr %6, ptr %3, align 8
  %7 = load ptr, ptr %3, align 8
  %8 = load ptr, ptr %7, align 8
  %9 = icmp ne ptr %8, null
  br i1 %9, label %10, label %15

10:                                               ; preds = %1
  %11 = call noundef nonnull align 1 dereferenceable(1) ptr @_ZNSt10unique_ptrIN4llvm12MemoryBufferESt14default_deleteIS1_EE11get_deleterEv(ptr noundef nonnull align 8 dereferenceable(8) %4) #19
  %12 = load ptr, ptr %3, align 8
  %13 = load ptr, ptr %12, align 8
  invoke void @_ZNKSt14default_deleteIN4llvm12MemoryBufferEEclEPS1_(ptr noundef nonnull align 1 dereferenceable(1) %11, ptr noundef %13)
          to label %14 unwind label %17

14:                                               ; preds = %10
  br label %15

15:                                               ; preds = %14, %1
  %16 = load ptr, ptr %3, align 8
  store ptr null, ptr %16, align 8
  ret void

17:                                               ; preds = %10
  %18 = landingpad { ptr, i32 }
          catch ptr null
  %19 = extractvalue { ptr, i32 } %18, 0
  call void @__clang_call_terminate(ptr %19) #21
  unreachable
}

; Function Attrs: mustprogress noinline nounwind optnone sspstrong uwtable
define linkonce_odr dso_local void @_ZNSt10shared_ptrIN5clang13TargetOptionsEED2Ev(ptr noundef nonnull align 8 dereferenceable(16) %0) unnamed_addr #2 comdat align 2 {
  %2 = alloca ptr, align 8
  store ptr %0, ptr %2, align 8
  %3 = load ptr, ptr %2, align 8
  call void @_ZNSt12__shared_ptrIN5clang13TargetOptionsELN9__gnu_cxx12_Lock_policyE2EED2Ev(ptr noundef nonnull align 8 dereferenceable(16) %3) #19
  ret void
}

; Function Attrs: nounwind
declare void @_ZN5clang16CompilerInstanceD1Ev(ptr noundef nonnull align 8 dereferenceable(352)) unnamed_addr #6

; Function Attrs: mustprogress noinline nounwind optnone sspstrong uwtable
define linkonce_odr dso_local noundef i64 @_ZNSt11char_traitsIcE6lengthEPKc(ptr noundef %0) #2 comdat align 2 {
  %2 = alloca ptr, align 8
  store ptr %0, ptr %2, align 8
  %3 = load ptr, ptr %2, align 8
  %4 = call i64 @strlen(ptr noundef %3) #19
  ret i64 %4
}

; Function Attrs: nounwind
declare i64 @strlen(ptr noundef) #6

; Function Attrs: mustprogress noinline nounwind optnone sspstrong uwtable
define linkonce_odr dso_local void @_ZNSt6vectorINSt7__cxx1112basic_stringIcSt11char_traitsIcESaIcEEESaIS5_EEC2Ev(ptr noundef nonnull align 8 dereferenceable(24) %0) unnamed_addr #2 comdat align 2 {
  %2 = alloca ptr, align 8
  store ptr %0, ptr %2, align 8
  %3 = load ptr, ptr %2, align 8
  call void @_ZNSt12_Vector_baseINSt7__cxx1112basic_stringIcSt11char_traitsIcESaIcEEESaIS5_EEC2Ev(ptr noundef nonnull align 8 dereferenceable(24) %3) #19
  ret void
}

declare void @_ZNSt7__cxx1119basic_istringstreamIcSt11char_traitsIcESaIcEEC1ERKNS_12basic_stringIcS2_S3_EESt13_Ios_Openmode(ptr noundef nonnull align 8 dereferenceable(120), ptr noundef nonnull align 8 dereferenceable(32), i32 noundef) unnamed_addr #3

; Function Attrs: mustprogress noinline nounwind optnone sspstrong uwtable
define linkonce_odr dso_local void @_ZNSt7__cxx1112basic_stringIcSt11char_traitsIcESaIcEEC2Ev(ptr noundef nonnull align 8 dereferenceable(32) %0) unnamed_addr #2 comdat align 2 personality ptr @__gxx_personality_v0 {
  %2 = alloca ptr, align 8
  %3 = alloca ptr, align 8
  %4 = alloca ptr, align 8
  %5 = alloca ptr, align 8
  %6 = alloca ptr, align 8
  %7 = alloca %"class.std::allocator.0", align 1
  store ptr %0, ptr %6, align 8
  %8 = load ptr, ptr %6, align 8
  %9 = getelementptr inbounds nuw %"class.std::__cxx11::basic_string", ptr %8, i32 0, i32 0
  %10 = invoke noundef ptr @_ZNSt7__cxx1112basic_stringIcSt11char_traitsIcESaIcEE13_M_local_dataEv(ptr noundef nonnull align 8 dereferenceable(32) %8)
          to label %11 unwind label %18

11:                                               ; preds = %1
  store ptr %7, ptr %5, align 8
  %12 = load ptr, ptr %5, align 8
  store ptr %12, ptr %2, align 8
  %13 = load ptr, ptr %2, align 8
  invoke void @_ZNSt7__cxx1112basic_stringIcSt11char_traitsIcESaIcEE12_Alloc_hiderC2EPcOS3_(ptr noundef nonnull align 8 dereferenceable(8) %9, ptr noundef %10, ptr noundef nonnull align 1 dereferenceable(1) %7)
          to label %14 unwind label %18

14:                                               ; preds = %11
  store ptr %7, ptr %4, align 8
  %15 = load ptr, ptr %4, align 8
  call void @_ZNSt15__new_allocatorIcED2Ev(ptr noundef nonnull align 1 dereferenceable(1) %15) #19
  store ptr %8, ptr %3, align 8
  %16 = load ptr, ptr %3, align 8
  invoke void @_ZNSt7__cxx1112basic_stringIcSt11char_traitsIcESaIcEE13_M_set_lengthEm(ptr noundef nonnull align 8 dereferenceable(32) %8, i64 noundef 0)
          to label %17 unwind label %18

17:                                               ; preds = %14
  ret void

18:                                               ; preds = %14, %11, %1
  %19 = landingpad { ptr, i32 }
          catch ptr null
  %20 = extractvalue { ptr, i32 } %19, 0
  call void @__clang_call_terminate(ptr %20) #21
  unreachable
}

declare noundef nonnull align 8 dereferenceable(16) ptr @_ZSt7getlineIcSt11char_traitsIcESaIcEERSt13basic_istreamIT_T0_ES7_RNSt7__cxx1112basic_stringIS4_S5_T1_EES4_(ptr noundef nonnull align 8 dereferenceable(16), ptr noundef nonnull align 8 dereferenceable(32), i8 noundef signext) #3

declare noundef zeroext i1 @_ZNKSt9basic_iosIcSt11char_traitsIcEEcvbEv(ptr noundef nonnull align 8 dereferenceable(264)) #3

; Function Attrs: mustprogress noinline optnone sspstrong uwtable
define linkonce_odr dso_local void @_ZNSt6vectorINSt7__cxx1112basic_stringIcSt11char_traitsIcESaIcEEESaIS5_EE9push_backERKS5_(ptr noundef nonnull align 8 dereferenceable(24) %0, ptr noundef nonnull align 8 dereferenceable(32) %1) #0 comdat align 2 {
  %3 = alloca ptr, align 8
  %4 = alloca ptr, align 8
  %5 = alloca ptr, align 8
  %6 = alloca ptr, align 8
  %7 = alloca ptr, align 8
  %8 = alloca ptr, align 8
  %9 = alloca ptr, align 8
  %10 = alloca ptr, align 8
  store ptr %0, ptr %9, align 8
  store ptr %1, ptr %10, align 8
  %11 = load ptr, ptr %9, align 8
  %12 = getelementptr inbounds nuw %"struct.std::_Vector_base", ptr %11, i32 0, i32 0
  %13 = getelementptr inbounds nuw %"struct.std::_Vector_base<std::__cxx11::basic_string<char>, std::allocator<std::__cxx11::basic_string<char>>>::_Vector_impl_data", ptr %12, i32 0, i32 1
  %14 = load ptr, ptr %13, align 8
  %15 = getelementptr inbounds nuw %"struct.std::_Vector_base", ptr %11, i32 0, i32 0
  %16 = getelementptr inbounds nuw %"struct.std::_Vector_base<std::__cxx11::basic_string<char>, std::allocator<std::__cxx11::basic_string<char>>>::_Vector_impl_data", ptr %15, i32 0, i32 2
  %17 = load ptr, ptr %16, align 8
  %18 = icmp ne ptr %14, %17
  br i1 %18, label %19, label %35

19:                                               ; preds = %2
  %20 = getelementptr inbounds nuw %"struct.std::_Vector_base", ptr %11, i32 0, i32 0
  %21 = getelementptr inbounds nuw %"struct.std::_Vector_base", ptr %11, i32 0, i32 0
  %22 = getelementptr inbounds nuw %"struct.std::_Vector_base<std::__cxx11::basic_string<char>, std::allocator<std::__cxx11::basic_string<char>>>::_Vector_impl_data", ptr %21, i32 0, i32 1
  %23 = load ptr, ptr %22, align 8
  %24 = load ptr, ptr %10, align 8
  store ptr %20, ptr %6, align 8
  store ptr %23, ptr %7, align 8
  store ptr %24, ptr %8, align 8
  %25 = load ptr, ptr %6, align 8
  %26 = load ptr, ptr %7, align 8
  %27 = load ptr, ptr %8, align 8
  store ptr %25, ptr %3, align 8
  store ptr %26, ptr %4, align 8
  store ptr %27, ptr %5, align 8
  %28 = load ptr, ptr %3, align 8
  %29 = load ptr, ptr %4, align 8
  %30 = load ptr, ptr %5, align 8
  call void @_ZNSt7__cxx1112basic_stringIcSt11char_traitsIcESaIcEEC2ERKS4_(ptr noundef nonnull align 8 dereferenceable(32) %29, ptr noundef nonnull align 8 dereferenceable(32) %30)
  %31 = getelementptr inbounds nuw %"struct.std::_Vector_base", ptr %11, i32 0, i32 0
  %32 = getelementptr inbounds nuw %"struct.std::_Vector_base<std::__cxx11::basic_string<char>, std::allocator<std::__cxx11::basic_string<char>>>::_Vector_impl_data", ptr %31, i32 0, i32 1
  %33 = load ptr, ptr %32, align 8
  %34 = getelementptr inbounds nuw %"class.std::__cxx11::basic_string", ptr %33, i32 1
  store ptr %34, ptr %32, align 8
  br label %37

35:                                               ; preds = %2
  %36 = load ptr, ptr %10, align 8
  call void @_ZNSt6vectorINSt7__cxx1112basic_stringIcSt11char_traitsIcESaIcEEESaIS5_EE17_M_realloc_appendIJRKS5_EEEvDpOT_(ptr noundef nonnull align 8 dereferenceable(24) %11, ptr noundef nonnull align 8 dereferenceable(32) %36)
  br label %37

37:                                               ; preds = %35, %19
  ret void
}

; Function Attrs: nounwind
declare void @_ZNSt7__cxx1119basic_istringstreamIcSt11char_traitsIcESaIcEED1Ev(ptr noundef nonnull align 8 dereferenceable(120)) unnamed_addr #6

; Function Attrs: mustprogress noinline nounwind optnone sspstrong uwtable
define linkonce_odr dso_local void @_ZNSt12_Vector_baseINSt7__cxx1112basic_stringIcSt11char_traitsIcESaIcEEESaIS5_EEC2Ev(ptr noundef nonnull align 8 dereferenceable(24) %0) unnamed_addr #2 comdat align 2 {
  %2 = alloca ptr, align 8
  store ptr %0, ptr %2, align 8
  %3 = load ptr, ptr %2, align 8
  %4 = getelementptr inbounds nuw %"struct.std::_Vector_base", ptr %3, i32 0, i32 0
  call void @_ZNSt12_Vector_baseINSt7__cxx1112basic_stringIcSt11char_traitsIcESaIcEEESaIS5_EE12_Vector_implC2Ev(ptr noundef nonnull align 8 dereferenceable(24) %4) #19
  ret void
}

; Function Attrs: mustprogress noinline nounwind optnone sspstrong uwtable
define linkonce_odr dso_local void @_ZNSt12_Vector_baseINSt7__cxx1112basic_stringIcSt11char_traitsIcESaIcEEESaIS5_EE12_Vector_implC2Ev(ptr noundef nonnull align 8 dereferenceable(24) %0) unnamed_addr #2 comdat align 2 {
  %2 = alloca ptr, align 8
  %3 = alloca ptr, align 8
  %4 = alloca ptr, align 8
  store ptr %0, ptr %4, align 8
  %5 = load ptr, ptr %4, align 8
  store ptr %5, ptr %3, align 8
  %6 = load ptr, ptr %3, align 8
  store ptr %6, ptr %2, align 8
  %7 = load ptr, ptr %2, align 8
  call void @_ZNSt12_Vector_baseINSt7__cxx1112basic_stringIcSt11char_traitsIcESaIcEEESaIS5_EE17_Vector_impl_dataC2Ev(ptr noundef nonnull align 8 dereferenceable(24) %5) #19
  ret void
}

; Function Attrs: mustprogress noinline nounwind optnone sspstrong uwtable
define linkonce_odr dso_local void @_ZNSt12_Vector_baseINSt7__cxx1112basic_stringIcSt11char_traitsIcESaIcEEESaIS5_EE17_Vector_impl_dataC2Ev(ptr noundef nonnull align 8 dereferenceable(24) %0) unnamed_addr #2 comdat align 2 {
  %2 = alloca ptr, align 8
  store ptr %0, ptr %2, align 8
  %3 = load ptr, ptr %2, align 8
  %4 = getelementptr inbounds nuw %"struct.std::_Vector_base<std::__cxx11::basic_string<char>, std::allocator<std::__cxx11::basic_string<char>>>::_Vector_impl_data", ptr %3, i32 0, i32 0
  store ptr null, ptr %4, align 8
  %5 = getelementptr inbounds nuw %"struct.std::_Vector_base<std::__cxx11::basic_string<char>, std::allocator<std::__cxx11::basic_string<char>>>::_Vector_impl_data", ptr %3, i32 0, i32 1
  store ptr null, ptr %5, align 8
  %6 = getelementptr inbounds nuw %"struct.std::_Vector_base<std::__cxx11::basic_string<char>, std::allocator<std::__cxx11::basic_string<char>>>::_Vector_impl_data", ptr %3, i32 0, i32 2
  store ptr null, ptr %6, align 8
  ret void
}

; Function Attrs: mustprogress noinline nounwind optnone sspstrong uwtable
define linkonce_odr dso_local noundef ptr @_ZNSt7__cxx1112basic_stringIcSt11char_traitsIcESaIcEE13_M_local_dataEv(ptr noundef nonnull align 8 dereferenceable(32) %0) #2 comdat align 2 {
  %2 = alloca ptr, align 8
  store ptr %0, ptr %2, align 8
  %3 = load ptr, ptr %2, align 8
  %4 = getelementptr inbounds nuw %"class.std::__cxx11::basic_string", ptr %3, i32 0, i32 2
  %5 = getelementptr inbounds [16 x i8], ptr %4, i64 0, i64 0
  %6 = call noundef ptr @_ZNSt19__ptr_traits_ptr_toIPccLb0EE10pointer_toERc(ptr noundef nonnull align 1 dereferenceable(1) %5) #19
  ret ptr %6
}

; Function Attrs: noinline noreturn nounwind sspstrong uwtable
define linkonce_odr hidden void @__clang_call_terminate(ptr noundef %0) #7 comdat {
  %2 = call ptr @__cxa_begin_catch(ptr %0) #19
  call void @_ZSt9terminatev() #21
  unreachable
}

declare ptr @__cxa_begin_catch(ptr)

declare void @_ZSt9terminatev()

; Function Attrs: mustprogress noinline nounwind optnone sspstrong uwtable
define linkonce_odr dso_local void @_ZNSt7__cxx1112basic_stringIcSt11char_traitsIcESaIcEE12_Alloc_hiderC2EPcOS3_(ptr noundef nonnull align 8 dereferenceable(8) %0, ptr noundef %1, ptr noundef nonnull align 1 dereferenceable(1) %2) unnamed_addr #2 comdat align 2 {
  %4 = alloca ptr, align 8
  %5 = alloca ptr, align 8
  %6 = alloca ptr, align 8
  %7 = alloca ptr, align 8
  %8 = alloca ptr, align 8
  %9 = alloca ptr, align 8
  %10 = alloca ptr, align 8
  store ptr %0, ptr %8, align 8
  store ptr %1, ptr %9, align 8
  store ptr %2, ptr %10, align 8
  %11 = load ptr, ptr %8, align 8
  %12 = load ptr, ptr %10, align 8
  store ptr %11, ptr %6, align 8
  store ptr %12, ptr %7, align 8
  %13 = load ptr, ptr %6, align 8
  %14 = load ptr, ptr %7, align 8
  store ptr %13, ptr %4, align 8
  store ptr %14, ptr %5, align 8
  %15 = load ptr, ptr %4, align 8
  %16 = getelementptr inbounds nuw %"struct.std::__cxx11::basic_string<char>::_Alloc_hider", ptr %11, i32 0, i32 0
  %17 = load ptr, ptr %9, align 8
  store ptr %17, ptr %16, align 8
  ret void
}

; Function Attrs: mustprogress noinline optnone sspstrong uwtable
define linkonce_odr dso_local void @_ZNSt7__cxx1112basic_stringIcSt11char_traitsIcESaIcEE13_M_set_lengthEm(ptr noundef nonnull align 8 dereferenceable(32) %0, i64 noundef %1) #0 comdat align 2 {
  %3 = alloca ptr, align 8
  %4 = alloca i64, align 8
  %5 = alloca i8, align 1
  store ptr %0, ptr %3, align 8
  store i64 %1, ptr %4, align 8
  %6 = load ptr, ptr %3, align 8
  %7 = load i64, ptr %4, align 8
  call void @_ZNSt7__cxx1112basic_stringIcSt11char_traitsIcESaIcEE9_M_lengthEm(ptr noundef nonnull align 8 dereferenceable(32) %6, i64 noundef %7)
  %8 = call noundef ptr @_ZNKSt7__cxx1112basic_stringIcSt11char_traitsIcESaIcEE7_M_dataEv(ptr noundef nonnull align 8 dereferenceable(32) %6)
  %9 = load i64, ptr %4, align 8
  %10 = getelementptr inbounds nuw i8, ptr %8, i64 %9
  store i8 0, ptr %5, align 1
  call void @_ZNSt11char_traitsIcE6assignERcRKc(ptr noundef nonnull align 1 dereferenceable(1) %10, ptr noundef nonnull align 1 dereferenceable(1) %5) #19
  ret void
}

; Function Attrs: mustprogress noinline nounwind optnone sspstrong uwtable
define linkonce_odr dso_local noundef ptr @_ZNSt19__ptr_traits_ptr_toIPccLb0EE10pointer_toERc(ptr noundef nonnull align 1 dereferenceable(1) %0) #2 comdat align 2 {
  %2 = alloca ptr, align 8
  store ptr %0, ptr %2, align 8
  %3 = load ptr, ptr %2, align 8
  ret ptr %3
}

; Function Attrs: mustprogress noinline nounwind optnone sspstrong uwtable
define linkonce_odr dso_local void @_ZNSt7__cxx1112basic_stringIcSt11char_traitsIcESaIcEE9_M_lengthEm(ptr noundef nonnull align 8 dereferenceable(32) %0, i64 noundef %1) #2 comdat align 2 {
  %3 = alloca ptr, align 8
  %4 = alloca i64, align 8
  store ptr %0, ptr %3, align 8
  store i64 %1, ptr %4, align 8
  %5 = load ptr, ptr %3, align 8
  %6 = load i64, ptr %4, align 8
  %7 = getelementptr inbounds nuw %"class.std::__cxx11::basic_string", ptr %5, i32 0, i32 1
  store i64 %6, ptr %7, align 8
  ret void
}

; Function Attrs: mustprogress noinline nounwind optnone sspstrong uwtable
define linkonce_odr dso_local void @_ZNSt11char_traitsIcE6assignERcRKc(ptr noundef nonnull align 1 dereferenceable(1) %0, ptr noundef nonnull align 1 dereferenceable(1) %1) #2 comdat align 2 {
  %3 = alloca ptr, align 8
  %4 = alloca ptr, align 8
  store ptr %0, ptr %3, align 8
  store ptr %1, ptr %4, align 8
  %5 = load ptr, ptr %4, align 8
  %6 = load i8, ptr %5, align 1
  %7 = load ptr, ptr %3, align 8
  store i8 %6, ptr %7, align 1
  ret void
}

; Function Attrs: mustprogress noinline nounwind optnone sspstrong uwtable
define linkonce_odr dso_local noundef ptr @_ZNKSt7__cxx1112basic_stringIcSt11char_traitsIcESaIcEE7_M_dataEv(ptr noundef nonnull align 8 dereferenceable(32) %0) #2 comdat align 2 {
  %2 = alloca ptr, align 8
  store ptr %0, ptr %2, align 8
  %3 = load ptr, ptr %2, align 8
  %4 = getelementptr inbounds nuw %"class.std::__cxx11::basic_string", ptr %3, i32 0, i32 0
  %5 = getelementptr inbounds nuw %"struct.std::__cxx11::basic_string<char>::_Alloc_hider", ptr %4, i32 0, i32 0
  %6 = load ptr, ptr %5, align 8
  ret ptr %6
}

; Function Attrs: mustprogress noinline optnone sspstrong uwtable
define linkonce_odr dso_local void @_ZNSt6vectorINSt7__cxx1112basic_stringIcSt11char_traitsIcESaIcEEESaIS5_EE17_M_realloc_appendIJRKS5_EEEvDpOT_(ptr noundef nonnull align 8 dereferenceable(24) %0, ptr noundef nonnull align 8 dereferenceable(32) %1) #0 comdat align 2 personality ptr @__gxx_personality_v0 {
  %3 = alloca ptr, align 8
  %4 = alloca ptr, align 8
  %5 = alloca ptr, align 8
  %6 = alloca ptr, align 8
  %7 = alloca ptr, align 8
  %8 = alloca ptr, align 8
  %9 = alloca ptr, align 8
  %10 = alloca ptr, align 8
  %11 = alloca ptr, align 8
  %12 = alloca ptr, align 8
  %13 = alloca ptr, align 8
  %14 = alloca ptr, align 8
  %15 = alloca ptr, align 8
  %16 = alloca i64, align 8
  %17 = alloca ptr, align 8
  %18 = alloca ptr, align 8
  %19 = alloca i64, align 8
  %20 = alloca %"class.__gnu_cxx::__normal_iterator", align 8
  %21 = alloca %"class.__gnu_cxx::__normal_iterator", align 8
  %22 = alloca ptr, align 8
  %23 = alloca ptr, align 8
  %24 = alloca %"struct.std::vector<std::__cxx11::basic_string<char>>::_Guard_alloc", align 8
  %25 = alloca ptr, align 8
  %26 = alloca i32, align 4
  store ptr %0, ptr %14, align 8
  store ptr %1, ptr %15, align 8
  %27 = load ptr, ptr %14, align 8
  %28 = call noundef i64 @_ZNKSt6vectorINSt7__cxx1112basic_stringIcSt11char_traitsIcESaIcEEESaIS5_EE12_M_check_lenEmPKc(ptr noundef nonnull align 8 dereferenceable(24) %27, i64 noundef 1, ptr noundef @.str.19)
  store i64 %28, ptr %16, align 8
  %29 = load i64, ptr %16, align 8
  %30 = icmp ule i64 %29, 0
  br i1 %30, label %31, label %32

31:                                               ; preds = %2
  unreachable

32:                                               ; preds = %2
  %33 = getelementptr inbounds nuw %"struct.std::_Vector_base", ptr %27, i32 0, i32 0
  %34 = getelementptr inbounds nuw %"struct.std::_Vector_base<std::__cxx11::basic_string<char>, std::allocator<std::__cxx11::basic_string<char>>>::_Vector_impl_data", ptr %33, i32 0, i32 0
  %35 = load ptr, ptr %34, align 8
  store ptr %35, ptr %17, align 8
  %36 = getelementptr inbounds nuw %"struct.std::_Vector_base", ptr %27, i32 0, i32 0
  %37 = getelementptr inbounds nuw %"struct.std::_Vector_base<std::__cxx11::basic_string<char>, std::allocator<std::__cxx11::basic_string<char>>>::_Vector_impl_data", ptr %36, i32 0, i32 1
  %38 = load ptr, ptr %37, align 8
  store ptr %38, ptr %18, align 8
  %39 = call ptr @_ZNSt6vectorINSt7__cxx1112basic_stringIcSt11char_traitsIcESaIcEEESaIS5_EE3endEv(ptr noundef nonnull align 8 dereferenceable(24) %27) #19
  %40 = getelementptr inbounds nuw %"class.__gnu_cxx::__normal_iterator", ptr %20, i32 0, i32 0
  store ptr %39, ptr %40, align 8
  %41 = call ptr @_ZNSt6vectorINSt7__cxx1112basic_stringIcSt11char_traitsIcESaIcEEESaIS5_EE5beginEv(ptr noundef nonnull align 8 dereferenceable(24) %27) #19
  %42 = getelementptr inbounds nuw %"class.__gnu_cxx::__normal_iterator", ptr %21, i32 0, i32 0
  store ptr %41, ptr %42, align 8
  store ptr %20, ptr %6, align 8
  store ptr %21, ptr %7, align 8
  %43 = load ptr, ptr %6, align 8
  store ptr %43, ptr %3, align 8
  %44 = load ptr, ptr %3, align 8
  %45 = load ptr, ptr %44, align 8
  %46 = load ptr, ptr %7, align 8
  store ptr %46, ptr %4, align 8
  %47 = load ptr, ptr %4, align 8
  %48 = load ptr, ptr %47, align 8
  %49 = ptrtoint ptr %45 to i64
  %50 = ptrtoint ptr %48 to i64
  %51 = sub i64 %49, %50
  %52 = sdiv exact i64 %51, 32
  store i64 %52, ptr %19, align 8
  %53 = load i64, ptr %16, align 8
  %54 = call noundef ptr @_ZNSt12_Vector_baseINSt7__cxx1112basic_stringIcSt11char_traitsIcESaIcEEESaIS5_EE11_M_allocateEm(ptr noundef nonnull align 8 dereferenceable(24) %27, i64 noundef %53)
  store ptr %54, ptr %22, align 8
  %55 = load ptr, ptr %22, align 8
  store ptr %55, ptr %23, align 8
  %56 = load ptr, ptr %22, align 8
  %57 = load i64, ptr %16, align 8
  call void @_ZNSt6vectorINSt7__cxx1112basic_stringIcSt11char_traitsIcESaIcEEESaIS5_EE12_Guard_allocC2EPS5_mRSt12_Vector_baseIS5_S6_E(ptr noundef nonnull align 8 dereferenceable(24) %24, ptr noundef %56, i64 noundef %57, ptr noundef nonnull align 8 dereferenceable(24) %27)
  %58 = getelementptr inbounds nuw %"struct.std::_Vector_base", ptr %27, i32 0, i32 0
  %59 = load ptr, ptr %22, align 8
  %60 = load i64, ptr %19, align 8
  %61 = getelementptr inbounds nuw %"class.std::__cxx11::basic_string", ptr %59, i64 %60
  store ptr %61, ptr %5, align 8
  %62 = load ptr, ptr %5, align 8
  %63 = load ptr, ptr %15, align 8
  store ptr %58, ptr %11, align 8
  store ptr %62, ptr %12, align 8
  store ptr %63, ptr %13, align 8
  %64 = load ptr, ptr %11, align 8
  %65 = load ptr, ptr %12, align 8
  %66 = load ptr, ptr %13, align 8
  store ptr %64, ptr %8, align 8
  store ptr %65, ptr %9, align 8
  store ptr %66, ptr %10, align 8
  %67 = load ptr, ptr %8, align 8
  %68 = load ptr, ptr %9, align 8
  %69 = load ptr, ptr %10, align 8
  invoke void @_ZNSt7__cxx1112basic_stringIcSt11char_traitsIcESaIcEEC2ERKS4_(ptr noundef nonnull align 8 dereferenceable(32) %68, ptr noundef nonnull align 8 dereferenceable(32) %69)
          to label %70 unwind label %102

70:                                               ; preds = %32
  br label %71

71:                                               ; preds = %70
  br label %72

72:                                               ; preds = %71
  %73 = load ptr, ptr %17, align 8
  %74 = load ptr, ptr %18, align 8
  %75 = load ptr, ptr %22, align 8
  %76 = call noundef nonnull align 1 dereferenceable(1) ptr @_ZNSt12_Vector_baseINSt7__cxx1112basic_stringIcSt11char_traitsIcESaIcEEESaIS5_EE19_M_get_Tp_allocatorEv(ptr noundef nonnull align 8 dereferenceable(24) %27) #19
  %77 = call noundef ptr @_ZNSt6vectorINSt7__cxx1112basic_stringIcSt11char_traitsIcESaIcEEESaIS5_EE11_S_relocateEPS5_S8_S8_RS6_(ptr noundef %73, ptr noundef %74, ptr noundef %75, ptr noundef nonnull align 1 dereferenceable(1) %76) #19
  store ptr %77, ptr %23, align 8
  %78 = load ptr, ptr %23, align 8
  %79 = getelementptr inbounds nuw %"class.std::__cxx11::basic_string", ptr %78, i32 1
  store ptr %79, ptr %23, align 8
  %80 = load ptr, ptr %17, align 8
  %81 = getelementptr inbounds nuw %"struct.std::vector<std::__cxx11::basic_string<char>>::_Guard_alloc", ptr %24, i32 0, i32 0
  store ptr %80, ptr %81, align 8
  %82 = getelementptr inbounds nuw %"struct.std::_Vector_base", ptr %27, i32 0, i32 0
  %83 = getelementptr inbounds nuw %"struct.std::_Vector_base<std::__cxx11::basic_string<char>, std::allocator<std::__cxx11::basic_string<char>>>::_Vector_impl_data", ptr %82, i32 0, i32 2
  %84 = load ptr, ptr %83, align 8
  %85 = load ptr, ptr %17, align 8
  %86 = ptrtoint ptr %84 to i64
  %87 = ptrtoint ptr %85 to i64
  %88 = sub i64 %86, %87
  %89 = sdiv exact i64 %88, 32
  %90 = getelementptr inbounds nuw %"struct.std::vector<std::__cxx11::basic_string<char>>::_Guard_alloc", ptr %24, i32 0, i32 1
  store i64 %89, ptr %90, align 8
  call void @_ZNSt6vectorINSt7__cxx1112basic_stringIcSt11char_traitsIcESaIcEEESaIS5_EE12_Guard_allocD2Ev(ptr noundef nonnull align 8 dereferenceable(24) %24) #19
  %91 = load ptr, ptr %22, align 8
  %92 = getelementptr inbounds nuw %"struct.std::_Vector_base", ptr %27, i32 0, i32 0
  %93 = getelementptr inbounds nuw %"struct.std::_Vector_base<std::__cxx11::basic_string<char>, std::allocator<std::__cxx11::basic_string<char>>>::_Vector_impl_data", ptr %92, i32 0, i32 0
  store ptr %91, ptr %93, align 8
  %94 = load ptr, ptr %23, align 8
  %95 = getelementptr inbounds nuw %"struct.std::_Vector_base", ptr %27, i32 0, i32 0
  %96 = getelementptr inbounds nuw %"struct.std::_Vector_base<std::__cxx11::basic_string<char>, std::allocator<std::__cxx11::basic_string<char>>>::_Vector_impl_data", ptr %95, i32 0, i32 1
  store ptr %94, ptr %96, align 8
  %97 = load ptr, ptr %22, align 8
  %98 = load i64, ptr %16, align 8
  %99 = getelementptr inbounds nuw %"class.std::__cxx11::basic_string", ptr %97, i64 %98
  %100 = getelementptr inbounds nuw %"struct.std::_Vector_base", ptr %27, i32 0, i32 0
  %101 = getelementptr inbounds nuw %"struct.std::_Vector_base<std::__cxx11::basic_string<char>, std::allocator<std::__cxx11::basic_string<char>>>::_Vector_impl_data", ptr %100, i32 0, i32 2
  store ptr %99, ptr %101, align 8
  ret void

102:                                              ; preds = %32
  %103 = landingpad { ptr, i32 }
          cleanup
  %104 = extractvalue { ptr, i32 } %103, 0
  store ptr %104, ptr %25, align 8
  %105 = extractvalue { ptr, i32 } %103, 1
  store i32 %105, ptr %26, align 4
  call void @_ZNSt6vectorINSt7__cxx1112basic_stringIcSt11char_traitsIcESaIcEEESaIS5_EE12_Guard_allocD2Ev(ptr noundef nonnull align 8 dereferenceable(24) %24) #19
  br label %106

106:                                              ; preds = %102
  %107 = load ptr, ptr %25, align 8
  %108 = load i32, ptr %26, align 4
  %109 = insertvalue { ptr, i32 } poison, ptr %107, 0
  %110 = insertvalue { ptr, i32 } %109, i32 %108, 1
  resume { ptr, i32 } %110
}

; Function Attrs: mustprogress noinline optnone sspstrong uwtable
define linkonce_odr dso_local void @_ZNSt7__cxx1112basic_stringIcSt11char_traitsIcESaIcEEC2ERKS4_(ptr noundef nonnull align 8 dereferenceable(32) %0, ptr noundef nonnull align 8 dereferenceable(32) %1) unnamed_addr #0 comdat align 2 personality ptr @__gxx_personality_v0 {
  %3 = alloca ptr, align 8
  %4 = alloca ptr, align 8
  %5 = alloca ptr, align 8
  %6 = alloca ptr, align 8
  %7 = alloca ptr, align 8
  %8 = alloca ptr, align 8
  %9 = alloca ptr, align 8
  %10 = alloca ptr, align 8
  %11 = alloca ptr, align 8
  %12 = alloca ptr, align 8
  %13 = alloca ptr, align 8
  %14 = alloca ptr, align 8
  %15 = alloca %"class.std::allocator.0", align 1
  %16 = alloca ptr, align 8
  %17 = alloca i32, align 4
  store ptr %0, ptr %13, align 8
  store ptr %1, ptr %14, align 8
  %18 = load ptr, ptr %13, align 8
  %19 = getelementptr inbounds nuw %"class.std::__cxx11::basic_string", ptr %18, i32 0, i32 0
  %20 = call noundef ptr @_ZNSt7__cxx1112basic_stringIcSt11char_traitsIcESaIcEE13_M_local_dataEv(ptr noundef nonnull align 8 dereferenceable(32) %18)
  %21 = load ptr, ptr %14, align 8
  %22 = call noundef nonnull align 1 dereferenceable(1) ptr @_ZNKSt7__cxx1112basic_stringIcSt11char_traitsIcESaIcEE16_M_get_allocatorEv(ptr noundef nonnull align 8 dereferenceable(32) %21)
  call void @llvm.experimental.noalias.scope.decl(metadata !8)
  store ptr %15, ptr %9, align 8, !noalias !8
  store ptr %22, ptr %10, align 8, !noalias !8
  %23 = load ptr, ptr %10, align 8, !noalias !8
  call void @llvm.experimental.noalias.scope.decl(metadata !11)
  store ptr %15, ptr %7, align 8, !noalias !11
  store ptr %23, ptr %8, align 8, !noalias !11
  %24 = load ptr, ptr %8, align 8, !noalias !11
  store ptr %15, ptr %5, align 8
  store ptr %24, ptr %6, align 8
  %25 = load ptr, ptr %5, align 8
  %26 = load ptr, ptr %6, align 8
  store ptr %25, ptr %3, align 8
  store ptr %26, ptr %4, align 8
  %27 = load ptr, ptr %3, align 8
  invoke void @_ZNSt7__cxx1112basic_stringIcSt11char_traitsIcESaIcEE12_Alloc_hiderC2EPcOS3_(ptr noundef nonnull align 8 dereferenceable(8) %19, ptr noundef %20, ptr noundef nonnull align 1 dereferenceable(1) %15)
          to label %28 unwind label %35

28:                                               ; preds = %2
  store ptr %15, ptr %12, align 8
  %29 = load ptr, ptr %12, align 8
  call void @_ZNSt15__new_allocatorIcED2Ev(ptr noundef nonnull align 1 dereferenceable(1) %29) #19
  %30 = load ptr, ptr %14, align 8
  %31 = call noundef ptr @_ZNKSt7__cxx1112basic_stringIcSt11char_traitsIcESaIcEE7_M_dataEv(ptr noundef nonnull align 8 dereferenceable(32) %30)
  %32 = load ptr, ptr %14, align 8
  %33 = call noundef i64 @_ZNKSt7__cxx1112basic_stringIcSt11char_traitsIcESaIcEE6lengthEv(ptr noundef nonnull align 8 dereferenceable(32) %32) #19
  invoke void @_ZNSt7__cxx1112basic_stringIcSt11char_traitsIcESaIcEE12_M_constructILb1EEEvPKcm(ptr noundef nonnull align 8 dereferenceable(32) %18, ptr noundef %31, i64 noundef %33)
          to label %34 unwind label %40

34:                                               ; preds = %28
  ret void

35:                                               ; preds = %2
  %36 = landingpad { ptr, i32 }
          cleanup
  %37 = extractvalue { ptr, i32 } %36, 0
  store ptr %37, ptr %16, align 8
  %38 = extractvalue { ptr, i32 } %36, 1
  store i32 %38, ptr %17, align 4
  store ptr %15, ptr %11, align 8
  %39 = load ptr, ptr %11, align 8
  call void @_ZNSt15__new_allocatorIcED2Ev(ptr noundef nonnull align 1 dereferenceable(1) %39) #19
  br label %44

40:                                               ; preds = %28
  %41 = landingpad { ptr, i32 }
          cleanup
  %42 = extractvalue { ptr, i32 } %41, 0
  store ptr %42, ptr %16, align 8
  %43 = extractvalue { ptr, i32 } %41, 1
  store i32 %43, ptr %17, align 4
  call void @_ZNSt7__cxx1112basic_stringIcSt11char_traitsIcESaIcEE12_Alloc_hiderD2Ev(ptr noundef nonnull align 8 dereferenceable(8) %19) #19
  br label %44

44:                                               ; preds = %40, %35
  %45 = load ptr, ptr %16, align 8
  %46 = load i32, ptr %17, align 4
  %47 = insertvalue { ptr, i32 } poison, ptr %45, 0
  %48 = insertvalue { ptr, i32 } %47, i32 %46, 1
  resume { ptr, i32 } %48
}

; Function Attrs: mustprogress noinline nounwind optnone sspstrong uwtable
define linkonce_odr dso_local noundef nonnull align 1 dereferenceable(1) ptr @_ZNKSt7__cxx1112basic_stringIcSt11char_traitsIcESaIcEE16_M_get_allocatorEv(ptr noundef nonnull align 8 dereferenceable(32) %0) #2 comdat align 2 {
  %2 = alloca ptr, align 8
  store ptr %0, ptr %2, align 8
  %3 = load ptr, ptr %2, align 8
  %4 = getelementptr inbounds nuw %"class.std::__cxx11::basic_string", ptr %3, i32 0, i32 0
  ret ptr %4
}

; Function Attrs: mustprogress noinline optnone sspstrong uwtable
define linkonce_odr dso_local void @_ZNSt7__cxx1112basic_stringIcSt11char_traitsIcESaIcEE12_M_constructILb1EEEvPKcm(ptr noundef nonnull align 8 dereferenceable(32) %0, ptr noundef %1, i64 noundef %2) #0 comdat align 2 {
  %4 = alloca ptr, align 8
  %5 = alloca ptr, align 8
  %6 = alloca ptr, align 8
  %7 = alloca i64, align 8
  store ptr %0, ptr %5, align 8
  store ptr %1, ptr %6, align 8
  store i64 %2, ptr %7, align 8
  %8 = load ptr, ptr %5, align 8
  %9 = load i64, ptr %7, align 8
  %10 = icmp ugt i64 %9, 15
  br i1 %10, label %11, label %14

11:                                               ; preds = %3
  %12 = call noundef ptr @_ZNSt7__cxx1112basic_stringIcSt11char_traitsIcESaIcEE9_M_createERmm(ptr noundef nonnull align 8 dereferenceable(32) %8, ptr noundef nonnull align 8 dereferenceable(8) %7, i64 noundef 0)
  call void @_ZNSt7__cxx1112basic_stringIcSt11char_traitsIcESaIcEE7_M_dataEPc(ptr noundef nonnull align 8 dereferenceable(32) %8, ptr noundef %12)
  %13 = load i64, ptr %7, align 8
  call void @_ZNSt7__cxx1112basic_stringIcSt11char_traitsIcESaIcEE11_M_capacityEm(ptr noundef nonnull align 8 dereferenceable(32) %8, i64 noundef %13)
  br label %16

14:                                               ; preds = %3
  store ptr %8, ptr %4, align 8
  %15 = load ptr, ptr %4, align 8
  br label %16

16:                                               ; preds = %14, %11
  %17 = load i64, ptr %7, align 8
  %18 = icmp ne i64 %17, 0
  br i1 %18, label %20, label %19

19:                                               ; preds = %16
  br i1 true, label %20, label %25

20:                                               ; preds = %19, %16
  %21 = call noundef ptr @_ZNKSt7__cxx1112basic_stringIcSt11char_traitsIcESaIcEE7_M_dataEv(ptr noundef nonnull align 8 dereferenceable(32) %8)
  %22 = load ptr, ptr %6, align 8
  %23 = load i64, ptr %7, align 8
  %24 = add i64 %23, 1
  call void @_ZNSt7__cxx1112basic_stringIcSt11char_traitsIcESaIcEE7_S_copyEPcPKcm(ptr noundef %21, ptr noundef %22, i64 noundef %24)
  br label %25

25:                                               ; preds = %20, %19
  %26 = load i64, ptr %7, align 8
  call void @_ZNSt7__cxx1112basic_stringIcSt11char_traitsIcESaIcEE9_M_lengthEm(ptr noundef nonnull align 8 dereferenceable(32) %8, i64 noundef %26)
  ret void
}

; Function Attrs: mustprogress noinline nounwind optnone sspstrong uwtable
define linkonce_odr dso_local noundef i64 @_ZNKSt7__cxx1112basic_stringIcSt11char_traitsIcESaIcEE6lengthEv(ptr noundef nonnull align 8 dereferenceable(32) %0) #2 comdat align 2 {
  %2 = alloca ptr, align 8
  store ptr %0, ptr %2, align 8
  %3 = load ptr, ptr %2, align 8
  %4 = call noundef i64 @_ZNKSt7__cxx1112basic_stringIcSt11char_traitsIcESaIcEE4sizeEv(ptr noundef nonnull align 8 dereferenceable(32) %3) #19
  ret i64 %4
}

; Function Attrs: mustprogress noinline nounwind optnone sspstrong uwtable
define linkonce_odr dso_local void @_ZNSt7__cxx1112basic_stringIcSt11char_traitsIcESaIcEE12_Alloc_hiderD2Ev(ptr noundef nonnull align 8 dereferenceable(8) %0) unnamed_addr #2 comdat align 2 {
  %2 = alloca ptr, align 8
  %3 = alloca ptr, align 8
  store ptr %0, ptr %3, align 8
  %4 = load ptr, ptr %3, align 8
  store ptr %4, ptr %2, align 8
  %5 = load ptr, ptr %2, align 8
  call void @_ZNSt15__new_allocatorIcED2Ev(ptr noundef nonnull align 1 dereferenceable(1) %5) #19
  ret void
}

; Function Attrs: mustprogress noinline nounwind optnone sspstrong uwtable
define linkonce_odr dso_local void @_ZNSt7__cxx1112basic_stringIcSt11char_traitsIcESaIcEE7_M_dataEPc(ptr noundef nonnull align 8 dereferenceable(32) %0, ptr noundef %1) #2 comdat align 2 {
  %3 = alloca ptr, align 8
  %4 = alloca ptr, align 8
  store ptr %0, ptr %3, align 8
  store ptr %1, ptr %4, align 8
  %5 = load ptr, ptr %3, align 8
  %6 = load ptr, ptr %4, align 8
  %7 = getelementptr inbounds nuw %"class.std::__cxx11::basic_string", ptr %5, i32 0, i32 0
  %8 = getelementptr inbounds nuw %"struct.std::__cxx11::basic_string<char>::_Alloc_hider", ptr %7, i32 0, i32 0
  store ptr %6, ptr %8, align 8
  ret void
}

; Function Attrs: mustprogress noinline optnone sspstrong uwtable
define linkonce_odr dso_local noundef ptr @_ZNSt7__cxx1112basic_stringIcSt11char_traitsIcESaIcEE9_M_createERmm(ptr noundef nonnull align 8 dereferenceable(32) %0, ptr noundef nonnull align 8 dereferenceable(8) %1, i64 noundef %2) #0 comdat align 2 {
  %4 = alloca ptr, align 8
  %5 = alloca ptr, align 8
  %6 = alloca i64, align 8
  store ptr %0, ptr %4, align 8
  store ptr %1, ptr %5, align 8
  store i64 %2, ptr %6, align 8
  %7 = load ptr, ptr %4, align 8
  %8 = load ptr, ptr %5, align 8
  %9 = load i64, ptr %8, align 8
  %10 = call noundef i64 @_ZNKSt7__cxx1112basic_stringIcSt11char_traitsIcESaIcEE8max_sizeEv(ptr noundef nonnull align 8 dereferenceable(32) %7) #19
  %11 = icmp ugt i64 %9, %10
  br i1 %11, label %12, label %13

12:                                               ; preds = %3
  call void @_ZSt20__throw_length_errorPKc(ptr noundef @.str.18) #20
  unreachable

13:                                               ; preds = %3
  %14 = load ptr, ptr %5, align 8
  %15 = load i64, ptr %14, align 8
  %16 = load i64, ptr %6, align 8
  %17 = icmp ugt i64 %15, %16
  br i1 %17, label %18, label %36

18:                                               ; preds = %13
  %19 = load ptr, ptr %5, align 8
  %20 = load i64, ptr %19, align 8
  %21 = load i64, ptr %6, align 8
  %22 = mul i64 2, %21
  %23 = icmp ult i64 %20, %22
  br i1 %23, label %24, label %36

24:                                               ; preds = %18
  %25 = load i64, ptr %6, align 8
  %26 = mul i64 2, %25
  %27 = load ptr, ptr %5, align 8
  store i64 %26, ptr %27, align 8
  %28 = load ptr, ptr %5, align 8
  %29 = load i64, ptr %28, align 8
  %30 = call noundef i64 @_ZNKSt7__cxx1112basic_stringIcSt11char_traitsIcESaIcEE8max_sizeEv(ptr noundef nonnull align 8 dereferenceable(32) %7) #19
  %31 = icmp ugt i64 %29, %30
  br i1 %31, label %32, label %35

32:                                               ; preds = %24
  %33 = call noundef i64 @_ZNKSt7__cxx1112basic_stringIcSt11char_traitsIcESaIcEE8max_sizeEv(ptr noundef nonnull align 8 dereferenceable(32) %7) #19
  %34 = load ptr, ptr %5, align 8
  store i64 %33, ptr %34, align 8
  br label %35

35:                                               ; preds = %32, %24
  br label %36

36:                                               ; preds = %35, %18, %13
  %37 = call noundef nonnull align 1 dereferenceable(1) ptr @_ZNSt7__cxx1112basic_stringIcSt11char_traitsIcESaIcEE16_M_get_allocatorEv(ptr noundef nonnull align 8 dereferenceable(32) %7)
  %38 = load ptr, ptr %5, align 8
  %39 = load i64, ptr %38, align 8
  %40 = add i64 %39, 1
  %41 = call noundef ptr @_ZNSt7__cxx1112basic_stringIcSt11char_traitsIcESaIcEE11_S_allocateERS3_m(ptr noundef nonnull align 1 dereferenceable(1) %37, i64 noundef %40)
  ret ptr %41
}

; Function Attrs: mustprogress noinline nounwind optnone sspstrong uwtable
define linkonce_odr dso_local void @_ZNSt7__cxx1112basic_stringIcSt11char_traitsIcESaIcEE11_M_capacityEm(ptr noundef nonnull align 8 dereferenceable(32) %0, i64 noundef %1) #2 comdat align 2 {
  %3 = alloca ptr, align 8
  %4 = alloca i64, align 8
  store ptr %0, ptr %3, align 8
  store i64 %1, ptr %4, align 8
  %5 = load ptr, ptr %3, align 8
  %6 = load i64, ptr %4, align 8
  %7 = getelementptr inbounds nuw %"class.std::__cxx11::basic_string", ptr %5, i32 0, i32 2
  store i64 %6, ptr %7, align 8
  ret void
}

; Function Attrs: mustprogress noinline optnone sspstrong uwtable
define linkonce_odr dso_local void @_ZNSt7__cxx1112basic_stringIcSt11char_traitsIcESaIcEE7_S_copyEPcPKcm(ptr noundef %0, ptr noundef %1, i64 noundef %2) #0 comdat align 2 {
  %4 = alloca ptr, align 8
  %5 = alloca ptr, align 8
  %6 = alloca i64, align 8
  store ptr %0, ptr %4, align 8
  store ptr %1, ptr %5, align 8
  store i64 %2, ptr %6, align 8
  %7 = load i64, ptr %6, align 8
  %8 = icmp eq i64 %7, 1
  br i1 %8, label %9, label %12

9:                                                ; preds = %3
  %10 = load ptr, ptr %4, align 8
  %11 = load ptr, ptr %5, align 8
  call void @_ZNSt11char_traitsIcE6assignERcRKc(ptr noundef nonnull align 1 dereferenceable(1) %10, ptr noundef nonnull align 1 dereferenceable(1) %11) #19
  br label %17

12:                                               ; preds = %3
  %13 = load ptr, ptr %4, align 8
  %14 = load ptr, ptr %5, align 8
  %15 = load i64, ptr %6, align 8
  %16 = call noundef ptr @_ZNSt11char_traitsIcE4copyEPcPKcm(ptr noundef %13, ptr noundef %14, i64 noundef %15)
  br label %17

17:                                               ; preds = %12, %9
  ret void
}

; Function Attrs: mustprogress noinline nounwind optnone sspstrong uwtable
define linkonce_odr dso_local noundef i64 @_ZNKSt7__cxx1112basic_stringIcSt11char_traitsIcESaIcEE8max_sizeEv(ptr noundef nonnull align 8 dereferenceable(32) %0) #2 comdat align 2 personality ptr @__gxx_personality_v0 {
  %2 = alloca ptr, align 8
  %3 = alloca ptr, align 8
  %4 = alloca ptr, align 8
  %5 = alloca ptr, align 8
  %6 = alloca i64, align 8
  %7 = alloca i64, align 8
  store ptr %0, ptr %5, align 8
  %8 = load ptr, ptr %5, align 8
  store i64 9223372036854775807, ptr %6, align 8
  %9 = call noundef nonnull align 1 dereferenceable(1) ptr @_ZNKSt7__cxx1112basic_stringIcSt11char_traitsIcESaIcEE16_M_get_allocatorEv(ptr noundef nonnull align 8 dereferenceable(32) %8)
  store ptr %9, ptr %4, align 8
  %10 = load ptr, ptr %4, align 8
  store ptr %10, ptr %3, align 8
  %11 = load ptr, ptr %3, align 8
  store ptr %11, ptr %2, align 8
  %12 = load ptr, ptr %2, align 8
  store i64 9223372036854775807, ptr %7, align 8
  %13 = invoke noundef nonnull align 8 dereferenceable(8) ptr @_ZSt3minImERKT_S2_S2_(ptr noundef nonnull align 8 dereferenceable(8) %6, ptr noundef nonnull align 8 dereferenceable(8) %7)
          to label %14 unwind label %17

14:                                               ; preds = %1
  %15 = load i64, ptr %13, align 8
  %16 = sub i64 %15, 1
  ret i64 %16

17:                                               ; preds = %1
  %18 = landingpad { ptr, i32 }
          catch ptr null
  %19 = extractvalue { ptr, i32 } %18, 0
  call void @__clang_call_terminate(ptr %19) #21
  unreachable
}

; Function Attrs: cold noreturn
declare void @_ZSt20__throw_length_errorPKc(ptr noundef) #8

; Function Attrs: mustprogress noinline optnone sspstrong uwtable
define linkonce_odr dso_local noundef ptr @_ZNSt7__cxx1112basic_stringIcSt11char_traitsIcESaIcEE11_S_allocateERS3_m(ptr noundef nonnull align 1 dereferenceable(1) %0, i64 noundef %1) #0 comdat align 2 {
  %3 = alloca ptr, align 8
  %4 = alloca i64, align 8
  %5 = alloca ptr, align 8
  %6 = alloca i64, align 8
  %7 = alloca ptr, align 8
  store ptr %0, ptr %5, align 8
  store i64 %1, ptr %6, align 8
  %8 = load ptr, ptr %5, align 8
  %9 = load i64, ptr %6, align 8
  store ptr %8, ptr %3, align 8
  store i64 %9, ptr %4, align 8
  %10 = load ptr, ptr %3, align 8
  %11 = load i64, ptr %4, align 8
  %12 = call noundef ptr @_ZNSt15__new_allocatorIcE8allocateEmPKv(ptr noundef nonnull align 1 dereferenceable(1) %10, i64 noundef %11, ptr noundef null)
  store ptr %12, ptr %7, align 8
  %13 = load ptr, ptr %7, align 8
  ret ptr %13
}

; Function Attrs: mustprogress noinline nounwind optnone sspstrong uwtable
define linkonce_odr dso_local noundef nonnull align 1 dereferenceable(1) ptr @_ZNSt7__cxx1112basic_stringIcSt11char_traitsIcESaIcEE16_M_get_allocatorEv(ptr noundef nonnull align 8 dereferenceable(32) %0) #2 comdat align 2 {
  %2 = alloca ptr, align 8
  store ptr %0, ptr %2, align 8
  %3 = load ptr, ptr %2, align 8
  %4 = getelementptr inbounds nuw %"class.std::__cxx11::basic_string", ptr %3, i32 0, i32 0
  ret ptr %4
}

; Function Attrs: mustprogress noinline nounwind optnone sspstrong uwtable
define linkonce_odr dso_local noundef nonnull align 8 dereferenceable(8) ptr @_ZSt3minImERKT_S2_S2_(ptr noundef nonnull align 8 dereferenceable(8) %0, ptr noundef nonnull align 8 dereferenceable(8) %1) #2 comdat {
  %3 = alloca ptr, align 8
  %4 = alloca ptr, align 8
  %5 = alloca ptr, align 8
  store ptr %0, ptr %4, align 8
  store ptr %1, ptr %5, align 8
  %6 = load ptr, ptr %5, align 8
  %7 = load i64, ptr %6, align 8
  %8 = load ptr, ptr %4, align 8
  %9 = load i64, ptr %8, align 8
  %10 = icmp ult i64 %7, %9
  br i1 %10, label %11, label %13

11:                                               ; preds = %2
  %12 = load ptr, ptr %5, align 8
  store ptr %12, ptr %3, align 8
  br label %15

13:                                               ; preds = %2
  %14 = load ptr, ptr %4, align 8
  store ptr %14, ptr %3, align 8
  br label %15

15:                                               ; preds = %13, %11
  %16 = load ptr, ptr %3, align 8
  ret ptr %16
}

; Function Attrs: mustprogress noinline optnone sspstrong uwtable
define linkonce_odr dso_local noundef ptr @_ZNSt15__new_allocatorIcE8allocateEmPKv(ptr noundef nonnull align 1 dereferenceable(1) %0, i64 noundef %1, ptr noundef %2) #0 comdat align 2 {
  %4 = alloca ptr, align 8
  %5 = alloca ptr, align 8
  %6 = alloca i64, align 8
  %7 = alloca ptr, align 8
  store ptr %0, ptr %5, align 8
  store i64 %1, ptr %6, align 8
  store ptr %2, ptr %7, align 8
  %8 = load ptr, ptr %5, align 8
  %9 = load i64, ptr %6, align 8
  store ptr %8, ptr %4, align 8
  %10 = load ptr, ptr %4, align 8
  %11 = icmp ugt i64 %9, 9223372036854775807
  br i1 %11, label %12, label %17

12:                                               ; preds = %3
  %13 = load i64, ptr %6, align 8
  %14 = icmp ugt i64 %13, -1
  br i1 %14, label %15, label %16

15:                                               ; preds = %12
  call void @_ZSt28__throw_bad_array_new_lengthv() #18
  unreachable

16:                                               ; preds = %12
  call void @_ZSt17__throw_bad_allocv() #18
  unreachable

17:                                               ; preds = %3
  %18 = load i64, ptr %6, align 8
  %19 = mul i64 %18, 1
  %20 = call noalias noundef nonnull ptr @_Znwm(i64 noundef %19) #23
  ret ptr %20
}

; Function Attrs: noreturn
declare void @_ZSt28__throw_bad_array_new_lengthv() #1

; Function Attrs: noreturn
declare void @_ZSt17__throw_bad_allocv() #1

; Function Attrs: mustprogress noinline nounwind optnone sspstrong uwtable
define linkonce_odr dso_local noundef ptr @_ZNSt11char_traitsIcE4copyEPcPKcm(ptr noundef %0, ptr noundef %1, i64 noundef %2) #2 comdat align 2 {
  %4 = alloca ptr, align 8
  %5 = alloca ptr, align 8
  %6 = alloca ptr, align 8
  %7 = alloca i64, align 8
  store ptr %0, ptr %5, align 8
  store ptr %1, ptr %6, align 8
  store i64 %2, ptr %7, align 8
  %8 = load i64, ptr %7, align 8
  %9 = icmp eq i64 %8, 0
  br i1 %9, label %10, label %12

10:                                               ; preds = %3
  %11 = load ptr, ptr %5, align 8
  store ptr %11, ptr %4, align 8
  br label %16

12:                                               ; preds = %3
  %13 = load ptr, ptr %5, align 8
  %14 = load ptr, ptr %6, align 8
  %15 = load i64, ptr %7, align 8
  call void @llvm.memcpy.p0.p0.i64(ptr align 1 %13, ptr align 1 %14, i64 %15, i1 false)
  store ptr %13, ptr %4, align 8
  br label %16

16:                                               ; preds = %12, %10
  %17 = load ptr, ptr %4, align 8
  ret ptr %17
}

; Function Attrs: nocallback nofree nounwind willreturn memory(argmem: readwrite)
declare void @llvm.memcpy.p0.p0.i64(ptr noalias nocapture writeonly, ptr noalias nocapture readonly, i64, i1 immarg) #9

; Function Attrs: mustprogress noinline nounwind optnone sspstrong uwtable
define linkonce_odr dso_local noundef i64 @_ZNKSt7__cxx1112basic_stringIcSt11char_traitsIcESaIcEE4sizeEv(ptr noundef nonnull align 8 dereferenceable(32) %0) #2 comdat align 2 {
  %2 = alloca ptr, align 8
  %3 = alloca i64, align 8
  store ptr %0, ptr %2, align 8
  %4 = load ptr, ptr %2, align 8
  %5 = getelementptr inbounds nuw %"class.std::__cxx11::basic_string", ptr %4, i32 0, i32 1
  %6 = load i64, ptr %5, align 8
  store i64 %6, ptr %3, align 8
  %7 = load i64, ptr %3, align 8
  %8 = call noundef i64 @_ZNKSt7__cxx1112basic_stringIcSt11char_traitsIcESaIcEE8max_sizeEv(ptr noundef nonnull align 8 dereferenceable(32) %4) #19
  %9 = icmp ugt i64 %7, %8
  br i1 %9, label %10, label %11

10:                                               ; preds = %1
  unreachable

11:                                               ; preds = %1
  %12 = load i64, ptr %3, align 8
  ret i64 %12
}

; Function Attrs: mustprogress noinline nounwind optnone sspstrong uwtable
define linkonce_odr dso_local void @_ZNSt15__new_allocatorIcED2Ev(ptr noundef nonnull align 1 dereferenceable(1) %0) unnamed_addr #2 comdat align 2 {
  %2 = alloca ptr, align 8
  store ptr %0, ptr %2, align 8
  %3 = load ptr, ptr %2, align 8
  ret void
}

; Function Attrs: mustprogress noinline optnone sspstrong uwtable
define linkonce_odr dso_local noundef i64 @_ZNKSt6vectorINSt7__cxx1112basic_stringIcSt11char_traitsIcESaIcEEESaIS5_EE12_M_check_lenEmPKc(ptr noundef nonnull align 8 dereferenceable(24) %0, i64 noundef %1, ptr noundef %2) #0 comdat align 2 {
  %4 = alloca ptr, align 8
  %5 = alloca i64, align 8
  %6 = alloca ptr, align 8
  %7 = alloca i64, align 8
  %8 = alloca i64, align 8
  store ptr %0, ptr %4, align 8
  store i64 %1, ptr %5, align 8
  store ptr %2, ptr %6, align 8
  %9 = load ptr, ptr %4, align 8
  %10 = call noundef i64 @_ZNKSt6vectorINSt7__cxx1112basic_stringIcSt11char_traitsIcESaIcEEESaIS5_EE8max_sizeEv(ptr noundef nonnull align 8 dereferenceable(24) %9) #19
  %11 = call noundef i64 @_ZNKSt6vectorINSt7__cxx1112basic_stringIcSt11char_traitsIcESaIcEEESaIS5_EE4sizeEv(ptr noundef nonnull align 8 dereferenceable(24) %9) #19
  %12 = sub i64 %10, %11
  %13 = load i64, ptr %5, align 8
  %14 = icmp ult i64 %12, %13
  br i1 %14, label %15, label %17

15:                                               ; preds = %3
  %16 = load ptr, ptr %6, align 8
  call void @_ZSt20__throw_length_errorPKc(ptr noundef %16) #20
  unreachable

17:                                               ; preds = %3
  %18 = call noundef i64 @_ZNKSt6vectorINSt7__cxx1112basic_stringIcSt11char_traitsIcESaIcEEESaIS5_EE4sizeEv(ptr noundef nonnull align 8 dereferenceable(24) %9) #19
  %19 = call noundef i64 @_ZNKSt6vectorINSt7__cxx1112basic_stringIcSt11char_traitsIcESaIcEEESaIS5_EE4sizeEv(ptr noundef nonnull align 8 dereferenceable(24) %9) #19
  store i64 %19, ptr %8, align 8
  %20 = call noundef nonnull align 8 dereferenceable(8) ptr @_ZSt3maxImERKT_S2_S2_(ptr noundef nonnull align 8 dereferenceable(8) %8, ptr noundef nonnull align 8 dereferenceable(8) %5)
  %21 = load i64, ptr %20, align 8
  %22 = add i64 %18, %21
  store i64 %22, ptr %7, align 8
  %23 = load i64, ptr %7, align 8
  %24 = call noundef i64 @_ZNKSt6vectorINSt7__cxx1112basic_stringIcSt11char_traitsIcESaIcEEESaIS5_EE4sizeEv(ptr noundef nonnull align 8 dereferenceable(24) %9) #19
  %25 = icmp ult i64 %23, %24
  br i1 %25, label %30, label %26

26:                                               ; preds = %17
  %27 = load i64, ptr %7, align 8
  %28 = call noundef i64 @_ZNKSt6vectorINSt7__cxx1112basic_stringIcSt11char_traitsIcESaIcEEESaIS5_EE8max_sizeEv(ptr noundef nonnull align 8 dereferenceable(24) %9) #19
  %29 = icmp ugt i64 %27, %28
  br i1 %29, label %30, label %32

30:                                               ; preds = %26, %17
  %31 = call noundef i64 @_ZNKSt6vectorINSt7__cxx1112basic_stringIcSt11char_traitsIcESaIcEEESaIS5_EE8max_sizeEv(ptr noundef nonnull align 8 dereferenceable(24) %9) #19
  br label %34

32:                                               ; preds = %26
  %33 = load i64, ptr %7, align 8
  br label %34

34:                                               ; preds = %32, %30
  %35 = phi i64 [ %31, %30 ], [ %33, %32 ]
  ret i64 %35
}

; Function Attrs: mustprogress noinline optnone sspstrong uwtable
define linkonce_odr dso_local noundef ptr @_ZNSt12_Vector_baseINSt7__cxx1112basic_stringIcSt11char_traitsIcESaIcEEESaIS5_EE11_M_allocateEm(ptr noundef nonnull align 8 dereferenceable(24) %0, i64 noundef %1) #0 comdat align 2 {
  %3 = alloca ptr, align 8
  %4 = alloca i64, align 8
  %5 = alloca ptr, align 8
  %6 = alloca i64, align 8
  store ptr %0, ptr %5, align 8
  store i64 %1, ptr %6, align 8
  %7 = load ptr, ptr %5, align 8
  %8 = load i64, ptr %6, align 8
  %9 = icmp ne i64 %8, 0
  br i1 %9, label %10, label %16

10:                                               ; preds = %2
  %11 = getelementptr inbounds nuw %"struct.std::_Vector_base", ptr %7, i32 0, i32 0
  %12 = load i64, ptr %6, align 8
  store ptr %11, ptr %3, align 8
  store i64 %12, ptr %4, align 8
  %13 = load ptr, ptr %3, align 8
  %14 = load i64, ptr %4, align 8
  %15 = call noundef ptr @_ZNSt15__new_allocatorINSt7__cxx1112basic_stringIcSt11char_traitsIcESaIcEEEE8allocateEmPKv(ptr noundef nonnull align 1 dereferenceable(1) %13, i64 noundef %14, ptr noundef null)
  br label %17

16:                                               ; preds = %2
  br label %17

17:                                               ; preds = %16, %10
  %18 = phi ptr [ %15, %10 ], [ null, %16 ]
  ret ptr %18
}

; Function Attrs: mustprogress noinline nounwind optnone sspstrong uwtable
define linkonce_odr dso_local void @_ZNSt6vectorINSt7__cxx1112basic_stringIcSt11char_traitsIcESaIcEEESaIS5_EE12_Guard_allocC2EPS5_mRSt12_Vector_baseIS5_S6_E(ptr noundef nonnull align 8 dereferenceable(24) %0, ptr noundef %1, i64 noundef %2, ptr noundef nonnull align 8 dereferenceable(24) %3) unnamed_addr #2 comdat align 2 {
  %5 = alloca ptr, align 8
  %6 = alloca ptr, align 8
  %7 = alloca i64, align 8
  %8 = alloca ptr, align 8
  store ptr %0, ptr %5, align 8
  store ptr %1, ptr %6, align 8
  store i64 %2, ptr %7, align 8
  store ptr %3, ptr %8, align 8
  %9 = load ptr, ptr %5, align 8
  %10 = getelementptr inbounds nuw %"struct.std::vector<std::__cxx11::basic_string<char>>::_Guard_alloc", ptr %9, i32 0, i32 0
  %11 = load ptr, ptr %6, align 8
  store ptr %11, ptr %10, align 8
  %12 = getelementptr inbounds nuw %"struct.std::vector<std::__cxx11::basic_string<char>>::_Guard_alloc", ptr %9, i32 0, i32 1
  %13 = load i64, ptr %7, align 8
  store i64 %13, ptr %12, align 8
  %14 = getelementptr inbounds nuw %"struct.std::vector<std::__cxx11::basic_string<char>>::_Guard_alloc", ptr %9, i32 0, i32 2
  %15 = load ptr, ptr %8, align 8
  store ptr %15, ptr %14, align 8
  ret void
}

; Function Attrs: mustprogress noinline nounwind optnone sspstrong uwtable
define linkonce_odr dso_local noundef ptr @_ZNSt6vectorINSt7__cxx1112basic_stringIcSt11char_traitsIcESaIcEEESaIS5_EE11_S_relocateEPS5_S8_S8_RS6_(ptr noundef %0, ptr noundef %1, ptr noundef %2, ptr noundef nonnull align 1 dereferenceable(1) %3) #2 comdat align 2 {
  %5 = alloca ptr, align 8
  %6 = alloca ptr, align 8
  %7 = alloca ptr, align 8
  %8 = alloca ptr, align 8
  store ptr %0, ptr %5, align 8
  store ptr %1, ptr %6, align 8
  store ptr %2, ptr %7, align 8
  store ptr %3, ptr %8, align 8
  %9 = load ptr, ptr %5, align 8
  %10 = load ptr, ptr %6, align 8
  %11 = load ptr, ptr %7, align 8
  %12 = load ptr, ptr %8, align 8
  %13 = call noundef ptr @_ZSt12__relocate_aIPNSt7__cxx1112basic_stringIcSt11char_traitsIcESaIcEEES6_SaIS5_EET0_T_S9_S8_RT1_(ptr noundef %9, ptr noundef %10, ptr noundef %11, ptr noundef nonnull align 1 dereferenceable(1) %12) #19
  ret ptr %13
}

; Function Attrs: mustprogress noinline nounwind optnone sspstrong uwtable
define linkonce_odr dso_local noundef nonnull align 1 dereferenceable(1) ptr @_ZNSt12_Vector_baseINSt7__cxx1112basic_stringIcSt11char_traitsIcESaIcEEESaIS5_EE19_M_get_Tp_allocatorEv(ptr noundef nonnull align 8 dereferenceable(24) %0) #2 comdat align 2 {
  %2 = alloca ptr, align 8
  store ptr %0, ptr %2, align 8
  %3 = load ptr, ptr %2, align 8
  %4 = getelementptr inbounds nuw %"struct.std::_Vector_base", ptr %3, i32 0, i32 0
  ret ptr %4
}

; Function Attrs: mustprogress noinline nounwind optnone sspstrong uwtable
define linkonce_odr dso_local void @_ZNSt6vectorINSt7__cxx1112basic_stringIcSt11char_traitsIcESaIcEEESaIS5_EE12_Guard_allocD2Ev(ptr noundef nonnull align 8 dereferenceable(24) %0) unnamed_addr #2 comdat align 2 personality ptr @__gxx_personality_v0 {
  %2 = alloca ptr, align 8
  store ptr %0, ptr %2, align 8
  %3 = load ptr, ptr %2, align 8
  %4 = getelementptr inbounds nuw %"struct.std::vector<std::__cxx11::basic_string<char>>::_Guard_alloc", ptr %3, i32 0, i32 0
  %5 = load ptr, ptr %4, align 8
  %6 = icmp ne ptr %5, null
  br i1 %6, label %7, label %15

7:                                                ; preds = %1
  %8 = getelementptr inbounds nuw %"struct.std::vector<std::__cxx11::basic_string<char>>::_Guard_alloc", ptr %3, i32 0, i32 2
  %9 = load ptr, ptr %8, align 8
  %10 = getelementptr inbounds nuw %"struct.std::vector<std::__cxx11::basic_string<char>>::_Guard_alloc", ptr %3, i32 0, i32 0
  %11 = load ptr, ptr %10, align 8
  %12 = getelementptr inbounds nuw %"struct.std::vector<std::__cxx11::basic_string<char>>::_Guard_alloc", ptr %3, i32 0, i32 1
  %13 = load i64, ptr %12, align 8
  invoke void @_ZNSt12_Vector_baseINSt7__cxx1112basic_stringIcSt11char_traitsIcESaIcEEESaIS5_EE13_M_deallocateEPS5_m(ptr noundef nonnull align 8 dereferenceable(24) %9, ptr noundef %11, i64 noundef %13)
          to label %14 unwind label %16

14:                                               ; preds = %7
  br label %15

15:                                               ; preds = %14, %1
  ret void

16:                                               ; preds = %7
  %17 = landingpad { ptr, i32 }
          catch ptr null
  %18 = extractvalue { ptr, i32 } %17, 0
  call void @__clang_call_terminate(ptr %18) #21
  unreachable
}

; Function Attrs: mustprogress noinline nounwind optnone sspstrong uwtable
define linkonce_odr dso_local noundef i64 @_ZNKSt6vectorINSt7__cxx1112basic_stringIcSt11char_traitsIcESaIcEEESaIS5_EE8max_sizeEv(ptr noundef nonnull align 8 dereferenceable(24) %0) #2 comdat align 2 {
  %2 = alloca ptr, align 8
  store ptr %0, ptr %2, align 8
  %3 = load ptr, ptr %2, align 8
  %4 = call noundef nonnull align 1 dereferenceable(1) ptr @_ZNKSt12_Vector_baseINSt7__cxx1112basic_stringIcSt11char_traitsIcESaIcEEESaIS5_EE19_M_get_Tp_allocatorEv(ptr noundef nonnull align 8 dereferenceable(24) %3) #19
  %5 = call noundef i64 @_ZNSt6vectorINSt7__cxx1112basic_stringIcSt11char_traitsIcESaIcEEESaIS5_EE11_S_max_sizeERKS6_(ptr noundef nonnull align 1 dereferenceable(1) %4) #19
  ret i64 %5
}

; Function Attrs: mustprogress noinline nounwind optnone sspstrong uwtable
define linkonce_odr dso_local noundef i64 @_ZNKSt6vectorINSt7__cxx1112basic_stringIcSt11char_traitsIcESaIcEEESaIS5_EE4sizeEv(ptr noundef nonnull align 8 dereferenceable(24) %0) #2 comdat align 2 {
  %2 = alloca ptr, align 8
  %3 = alloca i64, align 8
  store ptr %0, ptr %2, align 8
  %4 = load ptr, ptr %2, align 8
  %5 = getelementptr inbounds nuw %"struct.std::_Vector_base", ptr %4, i32 0, i32 0
  %6 = getelementptr inbounds nuw %"struct.std::_Vector_base<std::__cxx11::basic_string<char>, std::allocator<std::__cxx11::basic_string<char>>>::_Vector_impl_data", ptr %5, i32 0, i32 1
  %7 = load ptr, ptr %6, align 8
  %8 = getelementptr inbounds nuw %"struct.std::_Vector_base", ptr %4, i32 0, i32 0
  %9 = getelementptr inbounds nuw %"struct.std::_Vector_base<std::__cxx11::basic_string<char>, std::allocator<std::__cxx11::basic_string<char>>>::_Vector_impl_data", ptr %8, i32 0, i32 0
  %10 = load ptr, ptr %9, align 8
  %11 = ptrtoint ptr %7 to i64
  %12 = ptrtoint ptr %10 to i64
  %13 = sub i64 %11, %12
  %14 = sdiv exact i64 %13, 32
  store i64 %14, ptr %3, align 8
  %15 = load i64, ptr %3, align 8
  %16 = icmp slt i64 %15, 0
  br i1 %16, label %17, label %18

17:                                               ; preds = %1
  unreachable

18:                                               ; preds = %1
  %19 = load i64, ptr %3, align 8
  ret i64 %19
}

; Function Attrs: mustprogress noinline nounwind optnone sspstrong uwtable
define linkonce_odr dso_local noundef nonnull align 8 dereferenceable(8) ptr @_ZSt3maxImERKT_S2_S2_(ptr noundef nonnull align 8 dereferenceable(8) %0, ptr noundef nonnull align 8 dereferenceable(8) %1) #2 comdat {
  %3 = alloca ptr, align 8
  %4 = alloca ptr, align 8
  %5 = alloca ptr, align 8
  store ptr %0, ptr %4, align 8
  store ptr %1, ptr %5, align 8
  %6 = load ptr, ptr %4, align 8
  %7 = load i64, ptr %6, align 8
  %8 = load ptr, ptr %5, align 8
  %9 = load i64, ptr %8, align 8
  %10 = icmp ult i64 %7, %9
  br i1 %10, label %11, label %13

11:                                               ; preds = %2
  %12 = load ptr, ptr %5, align 8
  store ptr %12, ptr %3, align 8
  br label %15

13:                                               ; preds = %2
  %14 = load ptr, ptr %4, align 8
  store ptr %14, ptr %3, align 8
  br label %15

15:                                               ; preds = %13, %11
  %16 = load ptr, ptr %3, align 8
  ret ptr %16
}

; Function Attrs: mustprogress noinline nounwind optnone sspstrong uwtable
define linkonce_odr dso_local noundef i64 @_ZNSt6vectorINSt7__cxx1112basic_stringIcSt11char_traitsIcESaIcEEESaIS5_EE11_S_max_sizeERKS6_(ptr noundef nonnull align 1 dereferenceable(1) %0) #2 comdat align 2 {
  %2 = alloca ptr, align 8
  %3 = alloca ptr, align 8
  %4 = alloca ptr, align 8
  %5 = alloca ptr, align 8
  %6 = alloca i64, align 8
  %7 = alloca i64, align 8
  store ptr %0, ptr %5, align 8
  store i64 288230376151711743, ptr %6, align 8
  %8 = load ptr, ptr %5, align 8
  store ptr %8, ptr %4, align 8
  %9 = load ptr, ptr %4, align 8
  store ptr %9, ptr %3, align 8
  %10 = load ptr, ptr %3, align 8
  store ptr %10, ptr %2, align 8
  %11 = load ptr, ptr %2, align 8
  store i64 288230376151711743, ptr %7, align 8
  %12 = call noundef nonnull align 8 dereferenceable(8) ptr @_ZSt3minImERKT_S2_S2_(ptr noundef nonnull align 8 dereferenceable(8) %6, ptr noundef nonnull align 8 dereferenceable(8) %7)
  %13 = load i64, ptr %12, align 8
  ret i64 %13
}

; Function Attrs: mustprogress noinline nounwind optnone sspstrong uwtable
define linkonce_odr dso_local noundef nonnull align 1 dereferenceable(1) ptr @_ZNKSt12_Vector_baseINSt7__cxx1112basic_stringIcSt11char_traitsIcESaIcEEESaIS5_EE19_M_get_Tp_allocatorEv(ptr noundef nonnull align 8 dereferenceable(24) %0) #2 comdat align 2 {
  %2 = alloca ptr, align 8
  store ptr %0, ptr %2, align 8
  %3 = load ptr, ptr %2, align 8
  %4 = getelementptr inbounds nuw %"struct.std::_Vector_base", ptr %3, i32 0, i32 0
  ret ptr %4
}

; Function Attrs: mustprogress noinline optnone sspstrong uwtable
define linkonce_odr dso_local noundef ptr @_ZNSt15__new_allocatorINSt7__cxx1112basic_stringIcSt11char_traitsIcESaIcEEEE8allocateEmPKv(ptr noundef nonnull align 1 dereferenceable(1) %0, i64 noundef %1, ptr noundef %2) #0 comdat align 2 {
  %4 = alloca ptr, align 8
  %5 = alloca ptr, align 8
  %6 = alloca i64, align 8
  %7 = alloca ptr, align 8
  store ptr %0, ptr %5, align 8
  store i64 %1, ptr %6, align 8
  store ptr %2, ptr %7, align 8
  %8 = load ptr, ptr %5, align 8
  %9 = load i64, ptr %6, align 8
  store ptr %8, ptr %4, align 8
  %10 = load ptr, ptr %4, align 8
  %11 = icmp ugt i64 %9, 288230376151711743
  br i1 %11, label %12, label %17

12:                                               ; preds = %3
  %13 = load i64, ptr %6, align 8
  %14 = icmp ugt i64 %13, 576460752303423487
  br i1 %14, label %15, label %16

15:                                               ; preds = %12
  call void @_ZSt28__throw_bad_array_new_lengthv() #18
  unreachable

16:                                               ; preds = %12
  call void @_ZSt17__throw_bad_allocv() #18
  unreachable

17:                                               ; preds = %3
  %18 = load i64, ptr %6, align 8
  %19 = mul i64 %18, 32
  %20 = call noalias noundef nonnull ptr @_Znwm(i64 noundef %19) #23
  ret ptr %20
}

; Function Attrs: mustprogress noinline nounwind optnone sspstrong uwtable
define linkonce_odr dso_local noundef ptr @_ZSt12__relocate_aIPNSt7__cxx1112basic_stringIcSt11char_traitsIcESaIcEEES6_SaIS5_EET0_T_S9_S8_RT1_(ptr noundef %0, ptr noundef %1, ptr noundef %2, ptr noundef nonnull align 1 dereferenceable(1) %3) #2 comdat {
  %5 = alloca ptr, align 8
  %6 = alloca ptr, align 8
  %7 = alloca ptr, align 8
  %8 = alloca ptr, align 8
  %9 = alloca ptr, align 8
  %10 = alloca ptr, align 8
  %11 = alloca ptr, align 8
  store ptr %0, ptr %8, align 8
  store ptr %1, ptr %9, align 8
  store ptr %2, ptr %10, align 8
  store ptr %3, ptr %11, align 8
  %12 = load ptr, ptr %8, align 8
  store ptr %12, ptr %5, align 8
  %13 = load ptr, ptr %5, align 8
  %14 = load ptr, ptr %9, align 8
  store ptr %14, ptr %6, align 8
  %15 = load ptr, ptr %6, align 8
  %16 = load ptr, ptr %10, align 8
  store ptr %16, ptr %7, align 8
  %17 = load ptr, ptr %7, align 8
  %18 = load ptr, ptr %11, align 8
  %19 = call noundef ptr @_ZSt14__relocate_a_1IPNSt7__cxx1112basic_stringIcSt11char_traitsIcESaIcEEES6_SaIS5_EET0_T_S9_S8_RT1_(ptr noundef %13, ptr noundef %15, ptr noundef %17, ptr noundef nonnull align 1 dereferenceable(1) %18) #19
  ret ptr %19
}

; Function Attrs: mustprogress noinline nounwind optnone sspstrong uwtable
define linkonce_odr dso_local noundef ptr @_ZSt14__relocate_a_1IPNSt7__cxx1112basic_stringIcSt11char_traitsIcESaIcEEES6_SaIS5_EET0_T_S9_S8_RT1_(ptr noundef %0, ptr noundef %1, ptr noundef %2, ptr noundef nonnull align 1 dereferenceable(1) %3) #2 comdat {
  %5 = alloca ptr, align 8
  %6 = alloca ptr, align 8
  %7 = alloca ptr, align 8
  %8 = alloca ptr, align 8
  %9 = alloca ptr, align 8
  store ptr %0, ptr %5, align 8
  store ptr %1, ptr %6, align 8
  store ptr %2, ptr %7, align 8
  store ptr %3, ptr %8, align 8
  %10 = load ptr, ptr %7, align 8
  store ptr %10, ptr %9, align 8
  br label %11

11:                                               ; preds = %19, %4
  %12 = load ptr, ptr %5, align 8
  %13 = load ptr, ptr %6, align 8
  %14 = icmp ne ptr %12, %13
  br i1 %14, label %15, label %24

15:                                               ; preds = %11
  %16 = load ptr, ptr %9, align 8
  %17 = load ptr, ptr %5, align 8
  %18 = load ptr, ptr %8, align 8
  call void @_ZSt19__relocate_object_aINSt7__cxx1112basic_stringIcSt11char_traitsIcESaIcEEES5_SaIS5_EEvPT_PT0_RT1_(ptr noundef %16, ptr noundef %17, ptr noundef nonnull align 1 dereferenceable(1) %18) #19
  br label %19

19:                                               ; preds = %15
  %20 = load ptr, ptr %5, align 8
  %21 = getelementptr inbounds nuw %"class.std::__cxx11::basic_string", ptr %20, i32 1
  store ptr %21, ptr %5, align 8
  %22 = load ptr, ptr %9, align 8
  %23 = getelementptr inbounds nuw %"class.std::__cxx11::basic_string", ptr %22, i32 1
  store ptr %23, ptr %9, align 8
  br label %11, !llvm.loop !14

24:                                               ; preds = %11
  %25 = load ptr, ptr %9, align 8
  ret ptr %25
}

; Function Attrs: mustprogress noinline nounwind optnone sspstrong uwtable
define linkonce_odr dso_local void @_ZSt19__relocate_object_aINSt7__cxx1112basic_stringIcSt11char_traitsIcESaIcEEES5_SaIS5_EEvPT_PT0_RT1_(ptr noalias noundef %0, ptr noalias noundef %1, ptr noundef nonnull align 1 dereferenceable(1) %2) #2 comdat {
  %4 = alloca ptr, align 8
  %5 = alloca ptr, align 8
  %6 = alloca ptr, align 8
  %7 = alloca ptr, align 8
  %8 = alloca ptr, align 8
  %9 = alloca ptr, align 8
  %10 = alloca ptr, align 8
  %11 = alloca ptr, align 8
  %12 = alloca ptr, align 8
  %13 = alloca ptr, align 8
  %14 = alloca ptr, align 8
  %15 = alloca ptr, align 8
  %16 = alloca ptr, align 8
  store ptr %0, ptr %14, align 8
  store ptr %1, ptr %15, align 8
  store ptr %2, ptr %16, align 8
  %17 = load ptr, ptr %16, align 8
  %18 = load ptr, ptr %14, align 8
  %19 = load ptr, ptr %15, align 8
  store ptr %17, ptr %11, align 8
  store ptr %18, ptr %12, align 8
  store ptr %19, ptr %13, align 8
  %20 = load ptr, ptr %11, align 8
  %21 = load ptr, ptr %12, align 8
  %22 = load ptr, ptr %13, align 8
  store ptr %20, ptr %6, align 8
  store ptr %21, ptr %7, align 8
  store ptr %22, ptr %8, align 8
  %23 = load ptr, ptr %6, align 8
  %24 = load ptr, ptr %7, align 8
  %25 = load ptr, ptr %8, align 8
  call void @_ZNSt7__cxx1112basic_stringIcSt11char_traitsIcESaIcEEC2EOS4_(ptr noundef nonnull align 8 dereferenceable(32) %24, ptr noundef nonnull align 8 dereferenceable(32) %25) #19
  %26 = load ptr, ptr %16, align 8
  %27 = load ptr, ptr %15, align 8
  store ptr %26, ptr %9, align 8
  store ptr %27, ptr %10, align 8
  %28 = load ptr, ptr %9, align 8
  %29 = load ptr, ptr %10, align 8
  store ptr %28, ptr %4, align 8
  store ptr %29, ptr %5, align 8
  %30 = load ptr, ptr %4, align 8
  %31 = load ptr, ptr %5, align 8
  call void @_ZNSt7__cxx1112basic_stringIcSt11char_traitsIcESaIcEED2Ev(ptr noundef nonnull align 8 dereferenceable(32) %31) #19
  ret void
}

; Function Attrs: mustprogress noinline nounwind optnone sspstrong uwtable
define linkonce_odr dso_local void @_ZNSt7__cxx1112basic_stringIcSt11char_traitsIcESaIcEEC2EOS4_(ptr noundef nonnull align 8 dereferenceable(32) %0, ptr noundef nonnull align 8 dereferenceable(32) %1) unnamed_addr #2 comdat align 2 personality ptr @__gxx_personality_v0 {
  %3 = alloca ptr, align 8
  %4 = alloca ptr, align 8
  %5 = alloca ptr, align 8
  %6 = alloca ptr, align 8
  store ptr %0, ptr %5, align 8
  store ptr %1, ptr %6, align 8
  %7 = load ptr, ptr %5, align 8
  %8 = getelementptr inbounds nuw %"class.std::__cxx11::basic_string", ptr %7, i32 0, i32 0
  %9 = call noundef ptr @_ZNSt7__cxx1112basic_stringIcSt11char_traitsIcESaIcEE13_M_local_dataEv(ptr noundef nonnull align 8 dereferenceable(32) %7)
  %10 = load ptr, ptr %6, align 8
  %11 = call noundef nonnull align 1 dereferenceable(1) ptr @_ZNSt7__cxx1112basic_stringIcSt11char_traitsIcESaIcEE16_M_get_allocatorEv(ptr noundef nonnull align 8 dereferenceable(32) %10)
  invoke void @_ZNSt7__cxx1112basic_stringIcSt11char_traitsIcESaIcEE12_Alloc_hiderC2EPcOS3_(ptr noundef nonnull align 8 dereferenceable(8) %8, ptr noundef %9, ptr noundef nonnull align 1 dereferenceable(1) %11)
          to label %12 unwind label %42

12:                                               ; preds = %2
  %13 = load ptr, ptr %6, align 8
  %14 = invoke noundef zeroext i1 @_ZNKSt7__cxx1112basic_stringIcSt11char_traitsIcESaIcEE11_M_is_localEv(ptr noundef nonnull align 8 dereferenceable(32) %13)
          to label %15 unwind label %42

15:                                               ; preds = %12
  br i1 %14, label %16, label %27

16:                                               ; preds = %15
  store ptr %7, ptr %4, align 8
  %17 = load ptr, ptr %4, align 8
  %18 = getelementptr inbounds nuw %"class.std::__cxx11::basic_string", ptr %7, i32 0, i32 2
  %19 = getelementptr inbounds [16 x i8], ptr %18, i64 0, i64 0
  %20 = load ptr, ptr %6, align 8
  %21 = getelementptr inbounds nuw %"class.std::__cxx11::basic_string", ptr %20, i32 0, i32 2
  %22 = getelementptr inbounds [16 x i8], ptr %21, i64 0, i64 0
  %23 = load ptr, ptr %6, align 8
  %24 = call noundef i64 @_ZNKSt7__cxx1112basic_stringIcSt11char_traitsIcESaIcEE6lengthEv(ptr noundef nonnull align 8 dereferenceable(32) %23) #19
  %25 = add i64 %24, 1
  %26 = call noundef ptr @_ZNSt11char_traitsIcE4copyEPcPKcm(ptr noundef %19, ptr noundef %22, i64 noundef %25)
  br label %33

27:                                               ; preds = %15
  %28 = load ptr, ptr %6, align 8
  %29 = call noundef ptr @_ZNKSt7__cxx1112basic_stringIcSt11char_traitsIcESaIcEE7_M_dataEv(ptr noundef nonnull align 8 dereferenceable(32) %28)
  call void @_ZNSt7__cxx1112basic_stringIcSt11char_traitsIcESaIcEE7_M_dataEPc(ptr noundef nonnull align 8 dereferenceable(32) %7, ptr noundef %29)
  %30 = load ptr, ptr %6, align 8
  %31 = getelementptr inbounds nuw %"class.std::__cxx11::basic_string", ptr %30, i32 0, i32 2
  %32 = load i64, ptr %31, align 8
  call void @_ZNSt7__cxx1112basic_stringIcSt11char_traitsIcESaIcEE11_M_capacityEm(ptr noundef nonnull align 8 dereferenceable(32) %7, i64 noundef %32)
  br label %33

33:                                               ; preds = %27, %16
  %34 = load ptr, ptr %6, align 8
  %35 = call noundef i64 @_ZNKSt7__cxx1112basic_stringIcSt11char_traitsIcESaIcEE6lengthEv(ptr noundef nonnull align 8 dereferenceable(32) %34) #19
  call void @_ZNSt7__cxx1112basic_stringIcSt11char_traitsIcESaIcEE9_M_lengthEm(ptr noundef nonnull align 8 dereferenceable(32) %7, i64 noundef %35)
  %36 = load ptr, ptr %6, align 8
  %37 = load ptr, ptr %6, align 8
  store ptr %37, ptr %3, align 8
  %38 = load ptr, ptr %3, align 8
  %39 = call noundef ptr @_ZNSt7__cxx1112basic_stringIcSt11char_traitsIcESaIcEE13_M_local_dataEv(ptr noundef nonnull align 8 dereferenceable(32) %38)
  call void @_ZNSt7__cxx1112basic_stringIcSt11char_traitsIcESaIcEE7_M_dataEPc(ptr noundef nonnull align 8 dereferenceable(32) %36, ptr noundef %39)
  %40 = load ptr, ptr %6, align 8
  invoke void @_ZNSt7__cxx1112basic_stringIcSt11char_traitsIcESaIcEE13_M_set_lengthEm(ptr noundef nonnull align 8 dereferenceable(32) %40, i64 noundef 0)
          to label %41 unwind label %42

41:                                               ; preds = %33
  ret void

42:                                               ; preds = %33, %12, %2
  %43 = landingpad { ptr, i32 }
          catch ptr null
  %44 = extractvalue { ptr, i32 } %43, 0
  call void @__clang_call_terminate(ptr %44) #21
  unreachable
}

; Function Attrs: mustprogress noinline optnone sspstrong uwtable
define linkonce_odr dso_local noundef zeroext i1 @_ZNKSt7__cxx1112basic_stringIcSt11char_traitsIcESaIcEE11_M_is_localEv(ptr noundef nonnull align 8 dereferenceable(32) %0) #0 comdat align 2 {
  %2 = alloca i1, align 1
  %3 = alloca ptr, align 8
  store ptr %0, ptr %3, align 8
  %4 = load ptr, ptr %3, align 8
  %5 = call noundef ptr @_ZNKSt7__cxx1112basic_stringIcSt11char_traitsIcESaIcEE7_M_dataEv(ptr noundef nonnull align 8 dereferenceable(32) %4)
  %6 = call noundef ptr @_ZNKSt7__cxx1112basic_stringIcSt11char_traitsIcESaIcEE13_M_local_dataEv(ptr noundef nonnull align 8 dereferenceable(32) %4)
  %7 = icmp eq ptr %5, %6
  br i1 %7, label %8, label %14

8:                                                ; preds = %1
  %9 = getelementptr inbounds nuw %"class.std::__cxx11::basic_string", ptr %4, i32 0, i32 1
  %10 = load i64, ptr %9, align 8
  %11 = icmp ugt i64 %10, 15
  br i1 %11, label %12, label %13

12:                                               ; preds = %8
  unreachable

13:                                               ; preds = %8
  store i1 true, ptr %2, align 1
  br label %15

14:                                               ; preds = %1
  store i1 false, ptr %2, align 1
  br label %15

15:                                               ; preds = %14, %13
  %16 = load i1, ptr %2, align 1
  ret i1 %16
}

; Function Attrs: mustprogress noinline nounwind optnone sspstrong uwtable
define linkonce_odr dso_local noundef ptr @_ZNKSt7__cxx1112basic_stringIcSt11char_traitsIcESaIcEE13_M_local_dataEv(ptr noundef nonnull align 8 dereferenceable(32) %0) #2 comdat align 2 {
  %2 = alloca ptr, align 8
  store ptr %0, ptr %2, align 8
  %3 = load ptr, ptr %2, align 8
  %4 = getelementptr inbounds nuw %"class.std::__cxx11::basic_string", ptr %3, i32 0, i32 2
  %5 = getelementptr inbounds [16 x i8], ptr %4, i64 0, i64 0
  %6 = call noundef ptr @_ZNSt19__ptr_traits_ptr_toIPKcS0_Lb0EE10pointer_toERS0_(ptr noundef nonnull align 1 dereferenceable(1) %5) #19
  ret ptr %6
}

; Function Attrs: mustprogress noinline nounwind optnone sspstrong uwtable
define linkonce_odr dso_local noundef ptr @_ZNSt19__ptr_traits_ptr_toIPKcS0_Lb0EE10pointer_toERS0_(ptr noundef nonnull align 1 dereferenceable(1) %0) #2 comdat align 2 {
  %2 = alloca ptr, align 8
  store ptr %0, ptr %2, align 8
  %3 = load ptr, ptr %2, align 8
  ret ptr %3
}

; Function Attrs: mustprogress noinline optnone sspstrong uwtable
define linkonce_odr dso_local void @_ZNSt12_Vector_baseINSt7__cxx1112basic_stringIcSt11char_traitsIcESaIcEEESaIS5_EE13_M_deallocateEPS5_m(ptr noundef nonnull align 8 dereferenceable(24) %0, ptr noundef %1, i64 noundef %2) #0 comdat align 2 {
  %4 = alloca ptr, align 8
  %5 = alloca ptr, align 8
  %6 = alloca i64, align 8
  %7 = alloca ptr, align 8
  %8 = alloca ptr, align 8
  %9 = alloca i64, align 8
  store ptr %0, ptr %7, align 8
  store ptr %1, ptr %8, align 8
  store i64 %2, ptr %9, align 8
  %10 = load ptr, ptr %7, align 8
  %11 = load ptr, ptr %8, align 8
  %12 = icmp ne ptr %11, null
  br i1 %12, label %13, label %20

13:                                               ; preds = %3
  %14 = getelementptr inbounds nuw %"struct.std::_Vector_base", ptr %10, i32 0, i32 0
  %15 = load ptr, ptr %8, align 8
  %16 = load i64, ptr %9, align 8
  store ptr %14, ptr %4, align 8
  store ptr %15, ptr %5, align 8
  store i64 %16, ptr %6, align 8
  %17 = load ptr, ptr %4, align 8
  %18 = load ptr, ptr %5, align 8
  %19 = load i64, ptr %6, align 8
  call void @_ZNSt15__new_allocatorINSt7__cxx1112basic_stringIcSt11char_traitsIcESaIcEEEE10deallocateEPS5_m(ptr noundef nonnull align 1 dereferenceable(1) %17, ptr noundef %18, i64 noundef %19)
  br label %20

20:                                               ; preds = %13, %3
  ret void
}

; Function Attrs: mustprogress noinline nounwind optnone sspstrong uwtable
define linkonce_odr dso_local void @_ZNSt15__new_allocatorINSt7__cxx1112basic_stringIcSt11char_traitsIcESaIcEEEE10deallocateEPS5_m(ptr noundef nonnull align 1 dereferenceable(1) %0, ptr noundef %1, i64 noundef %2) #2 comdat align 2 {
  %4 = alloca ptr, align 8
  %5 = alloca ptr, align 8
  %6 = alloca i64, align 8
  store ptr %0, ptr %4, align 8
  store ptr %1, ptr %5, align 8
  store i64 %2, ptr %6, align 8
  %7 = load ptr, ptr %4, align 8
  %8 = load ptr, ptr %5, align 8
  %9 = load i64, ptr %6, align 8
  %10 = mul i64 %9, 32
  call void @_ZdlPvm(ptr noundef %8, i64 noundef %10) #24
  ret void
}

; Function Attrs: mustprogress noinline nounwind optnone sspstrong uwtable
define linkonce_odr dso_local noundef i64 @_ZNKSt7__cxx1112basic_stringIcSt11char_traitsIcESaIcEE4findEPKcmm(ptr noundef nonnull align 8 dereferenceable(32) %0, ptr noundef %1, i64 noundef %2, i64 noundef %3) #2 comdat align 2 personality ptr @__gxx_personality_v0 {
  %5 = alloca i64, align 8
  %6 = alloca ptr, align 8
  %7 = alloca ptr, align 8
  %8 = alloca i64, align 8
  %9 = alloca i64, align 8
  %10 = alloca i64, align 8
  %11 = alloca i8, align 1
  %12 = alloca ptr, align 8
  %13 = alloca ptr, align 8
  %14 = alloca ptr, align 8
  %15 = alloca i64, align 8
  store ptr %0, ptr %6, align 8
  store ptr %1, ptr %7, align 8
  store i64 %2, ptr %8, align 8
  store i64 %3, ptr %9, align 8
  %16 = load ptr, ptr %6, align 8
  %17 = call noundef i64 @_ZNKSt7__cxx1112basic_stringIcSt11char_traitsIcESaIcEE4sizeEv(ptr noundef nonnull align 8 dereferenceable(32) %16) #19
  store i64 %17, ptr %10, align 8
  %18 = load i64, ptr %9, align 8
  %19 = icmp eq i64 %18, 0
  br i1 %19, label %20, label %29

20:                                               ; preds = %4
  %21 = load i64, ptr %8, align 8
  %22 = load i64, ptr %10, align 8
  %23 = icmp ule i64 %21, %22
  br i1 %23, label %24, label %26

24:                                               ; preds = %20
  %25 = load i64, ptr %8, align 8
  br label %27

26:                                               ; preds = %20
  br label %27

27:                                               ; preds = %26, %24
  %28 = phi i64 [ %25, %24 ], [ -1, %26 ]
  store i64 %28, ptr %5, align 8
  br label %84

29:                                               ; preds = %4
  %30 = load i64, ptr %8, align 8
  %31 = load i64, ptr %10, align 8
  %32 = icmp uge i64 %30, %31
  br i1 %32, label %33, label %34

33:                                               ; preds = %29
  store i64 -1, ptr %5, align 8
  br label %84

34:                                               ; preds = %29
  %35 = load ptr, ptr %7, align 8
  %36 = getelementptr inbounds i8, ptr %35, i64 0
  %37 = load i8, ptr %36, align 1
  store i8 %37, ptr %11, align 1
  %38 = call noundef ptr @_ZNKSt7__cxx1112basic_stringIcSt11char_traitsIcESaIcEE4dataEv(ptr noundef nonnull align 8 dereferenceable(32) %16) #19
  store ptr %38, ptr %12, align 8
  %39 = load ptr, ptr %12, align 8
  %40 = load i64, ptr %8, align 8
  %41 = getelementptr inbounds nuw i8, ptr %39, i64 %40
  store ptr %41, ptr %13, align 8
  %42 = load ptr, ptr %12, align 8
  %43 = load i64, ptr %10, align 8
  %44 = getelementptr inbounds nuw i8, ptr %42, i64 %43
  store ptr %44, ptr %14, align 8
  %45 = load i64, ptr %10, align 8
  %46 = load i64, ptr %8, align 8
  %47 = sub i64 %45, %46
  store i64 %47, ptr %15, align 8
  br label %48

48:                                               ; preds = %76, %34
  %49 = load i64, ptr %15, align 8
  %50 = load i64, ptr %9, align 8
  %51 = icmp uge i64 %49, %50
  br i1 %51, label %52, label %83

52:                                               ; preds = %48
  %53 = load ptr, ptr %13, align 8
  %54 = load i64, ptr %15, align 8
  %55 = load i64, ptr %9, align 8
  %56 = sub i64 %54, %55
  %57 = add i64 %56, 1
  %58 = invoke noundef ptr @_ZNSt11char_traitsIcE4findEPKcmRS1_(ptr noundef %53, i64 noundef %57, ptr noundef nonnull align 1 dereferenceable(1) %11)
          to label %59 unwind label %86

59:                                               ; preds = %52
  store ptr %58, ptr %13, align 8
  %60 = load ptr, ptr %13, align 8
  %61 = icmp ne ptr %60, null
  br i1 %61, label %63, label %62

62:                                               ; preds = %59
  store i64 -1, ptr %5, align 8
  br label %84

63:                                               ; preds = %59
  %64 = load ptr, ptr %13, align 8
  %65 = load ptr, ptr %7, align 8
  %66 = load i64, ptr %9, align 8
  %67 = invoke noundef i32 @_ZNSt11char_traitsIcE7compareEPKcS2_m(ptr noundef %64, ptr noundef %65, i64 noundef %66)
          to label %68 unwind label %86

68:                                               ; preds = %63
  %69 = icmp eq i32 %67, 0
  br i1 %69, label %70, label %76

70:                                               ; preds = %68
  %71 = load ptr, ptr %13, align 8
  %72 = load ptr, ptr %12, align 8
  %73 = ptrtoint ptr %71 to i64
  %74 = ptrtoint ptr %72 to i64
  %75 = sub i64 %73, %74
  store i64 %75, ptr %5, align 8
  br label %84

76:                                               ; preds = %68
  %77 = load ptr, ptr %14, align 8
  %78 = load ptr, ptr %13, align 8
  %79 = getelementptr inbounds nuw i8, ptr %78, i32 1
  store ptr %79, ptr %13, align 8
  %80 = ptrtoint ptr %77 to i64
  %81 = ptrtoint ptr %79 to i64
  %82 = sub i64 %80, %81
  store i64 %82, ptr %15, align 8
  br label %48, !llvm.loop !15

83:                                               ; preds = %48
  store i64 -1, ptr %5, align 8
  br label %84

84:                                               ; preds = %83, %70, %62, %33, %27
  %85 = load i64, ptr %5, align 8
  ret i64 %85

86:                                               ; preds = %63, %52
  %87 = landingpad { ptr, i32 }
          catch ptr null
  %88 = extractvalue { ptr, i32 } %87, 0
  call void @__clang_call_terminate(ptr %88) #21
  unreachable
}

; Function Attrs: mustprogress noinline nounwind optnone sspstrong uwtable
define linkonce_odr dso_local noundef ptr @_ZNKSt7__cxx1112basic_stringIcSt11char_traitsIcESaIcEE5c_strEv(ptr noundef nonnull align 8 dereferenceable(32) %0) #2 comdat align 2 {
  %2 = alloca ptr, align 8
  store ptr %0, ptr %2, align 8
  %3 = load ptr, ptr %2, align 8
  %4 = call noundef ptr @_ZNKSt7__cxx1112basic_stringIcSt11char_traitsIcESaIcEE7_M_dataEv(ptr noundef nonnull align 8 dereferenceable(32) %3)
  ret ptr %4
}

; Function Attrs: mustprogress noinline nounwind optnone sspstrong uwtable
define linkonce_odr dso_local noundef ptr @_ZNKSt7__cxx1112basic_stringIcSt11char_traitsIcESaIcEE4dataEv(ptr noundef nonnull align 8 dereferenceable(32) %0) #2 comdat align 2 {
  %2 = alloca ptr, align 8
  store ptr %0, ptr %2, align 8
  %3 = load ptr, ptr %2, align 8
  %4 = call noundef ptr @_ZNKSt7__cxx1112basic_stringIcSt11char_traitsIcESaIcEE7_M_dataEv(ptr noundef nonnull align 8 dereferenceable(32) %3)
  ret ptr %4
}

; Function Attrs: mustprogress noinline nounwind optnone sspstrong uwtable
define linkonce_odr dso_local noundef ptr @_ZNSt11char_traitsIcE4findEPKcmRS1_(ptr noundef %0, i64 noundef %1, ptr noundef nonnull align 1 dereferenceable(1) %2) #2 comdat align 2 {
  %4 = alloca ptr, align 8
  %5 = alloca ptr, align 8
  %6 = alloca i64, align 8
  %7 = alloca ptr, align 8
  store ptr %0, ptr %5, align 8
  store i64 %1, ptr %6, align 8
  store ptr %2, ptr %7, align 8
  %8 = load i64, ptr %6, align 8
  %9 = icmp eq i64 %8, 0
  br i1 %9, label %10, label %11

10:                                               ; preds = %3
  store ptr null, ptr %4, align 8
  br label %18

11:                                               ; preds = %3
  %12 = load ptr, ptr %5, align 8
  %13 = load ptr, ptr %7, align 8
  %14 = load i8, ptr %13, align 1
  %15 = sext i8 %14 to i32
  %16 = load i64, ptr %6, align 8
  %17 = call ptr @memchr(ptr noundef %12, i32 noundef %15, i64 noundef %16) #19
  store ptr %17, ptr %4, align 8
  br label %18

18:                                               ; preds = %11, %10
  %19 = load ptr, ptr %4, align 8
  ret ptr %19
}

; Function Attrs: mustprogress noinline nounwind optnone sspstrong uwtable
define linkonce_odr dso_local noundef i32 @_ZNSt11char_traitsIcE7compareEPKcS2_m(ptr noundef %0, ptr noundef %1, i64 noundef %2) #2 comdat align 2 {
  %4 = alloca i32, align 4
  %5 = alloca ptr, align 8
  %6 = alloca ptr, align 8
  %7 = alloca i64, align 8
  store ptr %0, ptr %5, align 8
  store ptr %1, ptr %6, align 8
  store i64 %2, ptr %7, align 8
  %8 = load i64, ptr %7, align 8
  %9 = icmp eq i64 %8, 0
  br i1 %9, label %10, label %11

10:                                               ; preds = %3
  store i32 0, ptr %4, align 4
  br label %16

11:                                               ; preds = %3
  %12 = load ptr, ptr %5, align 8
  %13 = load ptr, ptr %6, align 8
  %14 = load i64, ptr %7, align 8
  %15 = call i32 @memcmp(ptr noundef %12, ptr noundef %13, i64 noundef %14) #19
  store i32 %15, ptr %4, align 4
  br label %16

16:                                               ; preds = %11, %10
  %17 = load i32, ptr %4, align 4
  ret i32 %17
}

; Function Attrs: nounwind
declare ptr @memchr(ptr noundef, i32 noundef, i64 noundef) #6

; Function Attrs: nounwind
declare i32 @memcmp(ptr noundef, ptr noundef, i64 noundef) #6

; Function Attrs: mustprogress noinline nounwind optnone sspstrong uwtable
define linkonce_odr dso_local noundef i32 @_ZStorSt13_Ios_OpenmodeS_(i32 noundef %0, i32 noundef %1) #2 comdat {
  %3 = alloca i32, align 4
  %4 = alloca i32, align 4
  store i32 %0, ptr %3, align 4
  store i32 %1, ptr %4, align 4
  %5 = load i32, ptr %3, align 4
  %6 = load i32, ptr %4, align 4
  %7 = or i32 %5, %6
  ret i32 %7
}

declare void @_ZNSt7__cxx1118basic_stringstreamIcSt11char_traitsIcESaIcEEC1ERKNS_12basic_stringIcS2_S3_EESt13_Ios_Openmode(ptr noundef nonnull align 8 dereferenceable(128), ptr noundef nonnull align 8 dereferenceable(32), i32 noundef) unnamed_addr #3

declare noundef nonnull align 8 dereferenceable(16) ptr @_ZNSirsERi(ptr noundef nonnull align 8 dereferenceable(16), ptr noundef nonnull align 4 dereferenceable(4)) #3

declare noundef zeroext i1 @_ZNKSt9basic_iosIcSt11char_traitsIcEE4failEv(ptr noundef nonnull align 8 dereferenceable(264)) #3

declare noundef nonnull align 8 dereferenceable(16) ptr @_ZNSirsEPFRSiS_E(ptr noundef nonnull align 8 dereferenceable(16), ptr noundef) #3

declare noundef nonnull align 8 dereferenceable(16) ptr @_ZSt2wsIcSt11char_traitsIcEERSt13basic_istreamIT_T0_ES6_(ptr noundef nonnull align 8 dereferenceable(16)) #3

declare noundef zeroext i1 @_ZNKSt9basic_iosIcSt11char_traitsIcEE3eofEv(ptr noundef nonnull align 8 dereferenceable(264)) #3

; Function Attrs: nounwind
declare void @_ZNSt7__cxx1118basic_stringstreamIcSt11char_traitsIcESaIcEED1Ev(ptr noundef nonnull align 8 dereferenceable(128)) unnamed_addr #6

; Function Attrs: mustprogress noinline nounwind optnone sspstrong uwtable
define linkonce_odr dso_local void @_ZNSt12__shared_ptrIN5clang22PCHContainerOperationsELN9__gnu_cxx12_Lock_policyE2EED2Ev(ptr noundef nonnull align 8 dereferenceable(16) %0) unnamed_addr #2 comdat align 2 {
  %2 = alloca ptr, align 8
  store ptr %0, ptr %2, align 8
  %3 = load ptr, ptr %2, align 8
  %4 = getelementptr inbounds nuw %"class.std::__shared_ptr.51", ptr %3, i32 0, i32 1
  call void @_ZNSt14__shared_countILN9__gnu_cxx12_Lock_policyE2EED2Ev(ptr noundef nonnull align 8 dereferenceable(8) %4) #19
  ret void
}

; Function Attrs: mustprogress noinline nounwind optnone sspstrong uwtable
define linkonce_odr dso_local void @_ZNSt14__shared_countILN9__gnu_cxx12_Lock_policyE2EED2Ev(ptr noundef nonnull align 8 dereferenceable(8) %0) unnamed_addr #2 comdat align 2 {
  %2 = alloca ptr, align 8
  store ptr %0, ptr %2, align 8
  %3 = load ptr, ptr %2, align 8
  %4 = getelementptr inbounds nuw %"class.std::__shared_count", ptr %3, i32 0, i32 0
  %5 = load ptr, ptr %4, align 8
  %6 = icmp ne ptr %5, null
  br i1 %6, label %7, label %10

7:                                                ; preds = %1
  %8 = getelementptr inbounds nuw %"class.std::__shared_count", ptr %3, i32 0, i32 0
  %9 = load ptr, ptr %8, align 8
  call void @_ZNSt16_Sp_counted_baseILN9__gnu_cxx12_Lock_policyE2EE10_M_releaseEv(ptr noundef nonnull align 8 dereferenceable(16) %9) #19
  br label %10

10:                                               ; preds = %7, %1
  ret void
}

; Function Attrs: mustprogress noinline nounwind optnone sspstrong uwtable
define linkonce_odr dso_local void @_ZNSt16_Sp_counted_baseILN9__gnu_cxx12_Lock_policyE2EE10_M_releaseEv(ptr noundef nonnull align 8 dereferenceable(16) %0) #2 comdat align 2 personality ptr @__gxx_personality_v0 {
  %2 = alloca ptr, align 8
  %3 = alloca i32, align 4
  %4 = alloca i32, align 4
  %5 = alloca i32, align 4
  %6 = alloca ptr, align 8
  %7 = alloca i32, align 4
  %8 = alloca i32, align 4
  %9 = alloca i32, align 4
  %10 = alloca ptr, align 8
  %11 = alloca i32, align 4
  %12 = alloca ptr, align 8
  %13 = alloca i8, align 1
  %14 = alloca i8, align 1
  %15 = alloca i8, align 1
  %16 = alloca i32, align 4
  %17 = alloca i32, align 4
  %18 = alloca i64, align 8
  %19 = alloca ptr, align 8
  %20 = alloca i64, align 8
  store ptr %0, ptr %12, align 8
  %21 = load ptr, ptr %12, align 8
  store i8 1, ptr %13, align 1
  store i8 1, ptr %14, align 1
  store i8 1, ptr %15, align 1
  store i32 32, ptr %16, align 4
  store i32 32, ptr %17, align 4
  store i64 4294967297, ptr %18, align 8
  %22 = getelementptr inbounds nuw %"class.std::_Sp_counted_base", ptr %21, i32 0, i32 1
  store ptr %22, ptr %19, align 8
  %23 = load ptr, ptr %19, align 8
  %24 = load atomic i64, ptr %23 acquire, align 8
  store i64 %24, ptr %20, align 8
  %25 = load i64, ptr %20, align 8
  %26 = icmp eq i64 %25, 4294967297
  br i1 %26, label %27, label %36

27:                                               ; preds = %1
  %28 = getelementptr inbounds nuw %"class.std::_Sp_counted_base", ptr %21, i32 0, i32 1
  store i32 0, ptr %28, align 8
  %29 = getelementptr inbounds nuw %"class.std::_Sp_counted_base", ptr %21, i32 0, i32 2
  store i32 0, ptr %29, align 4
  %30 = load ptr, ptr %21, align 8
  %31 = getelementptr inbounds ptr, ptr %30, i64 2
  %32 = load ptr, ptr %31, align 8
  call void %32(ptr noundef nonnull align 8 dereferenceable(16) %21) #19
  %33 = load ptr, ptr %21, align 8
  %34 = getelementptr inbounds ptr, ptr %33, i64 3
  %35 = load ptr, ptr %34, align 8
  call void %35(ptr noundef nonnull align 8 dereferenceable(16) %21) #19
  br label %63

36:                                               ; preds = %1
  %37 = getelementptr inbounds nuw %"class.std::_Sp_counted_base", ptr %21, i32 0, i32 1
  store ptr %37, ptr %10, align 8
  store i32 -1, ptr %11, align 4
  %38 = load i8, ptr @__libc_single_threaded, align 1
  %39 = icmp ne i8 %38, 0
  br i1 %39, label %40, label %50

40:                                               ; preds = %36
  %41 = load ptr, ptr %10, align 8
  %42 = load i32, ptr %11, align 4
  store ptr %41, ptr %6, align 8
  store i32 %42, ptr %7, align 4
  %43 = load ptr, ptr %6, align 8
  %44 = load i32, ptr %43, align 4
  store i32 %44, ptr %8, align 4
  %45 = load i32, ptr %7, align 4
  %46 = load ptr, ptr %6, align 8
  %47 = load i32, ptr %46, align 4
  %48 = add nsw i32 %47, %45
  store i32 %48, ptr %46, align 4
  %49 = load i32, ptr %8, align 4
  store i32 %49, ptr %9, align 4
  br label %58

50:                                               ; preds = %36
  %51 = load ptr, ptr %10, align 8
  %52 = load i32, ptr %11, align 4
  store ptr %51, ptr %2, align 8
  store i32 %52, ptr %3, align 4
  %53 = load ptr, ptr %2, align 8
  %54 = load i32, ptr %3, align 4
  store i32 %54, ptr %4, align 4
  %55 = load i32, ptr %4, align 4
  %56 = atomicrmw volatile add ptr %53, i32 %55 acq_rel, align 4
  store i32 %56, ptr %5, align 4
  %57 = load i32, ptr %5, align 4
  store i32 %57, ptr %9, align 4
  br label %58

58:                                               ; preds = %40, %50
  %59 = load i32, ptr %9, align 4
  br label %60

60:                                               ; preds = %58
  %61 = icmp eq i32 %59, 1
  br i1 %61, label %62, label %63

62:                                               ; preds = %60
  call void @_ZNSt16_Sp_counted_baseILN9__gnu_cxx12_Lock_policyE2EE24_M_release_last_use_coldEv(ptr noundef nonnull align 8 dereferenceable(16) %21) #19
  br label %63

63:                                               ; preds = %27, %62, %60
  ret void

64:                                               ; No predecessors!
  %65 = landingpad { ptr, i32 }
          catch ptr null
  %66 = extractvalue { ptr, i32 } %65, 0
  call void @__clang_call_terminate(ptr %66) #21
  unreachable
}

; Function Attrs: mustprogress noinline nounwind optnone sspstrong uwtable
define linkonce_odr dso_local void @_ZNSt16_Sp_counted_baseILN9__gnu_cxx12_Lock_policyE2EE24_M_release_last_use_coldEv(ptr noundef nonnull align 8 dereferenceable(16) %0) #2 comdat align 2 {
  %2 = alloca ptr, align 8
  store ptr %0, ptr %2, align 8
  %3 = load ptr, ptr %2, align 8
  call void @_ZNSt16_Sp_counted_baseILN9__gnu_cxx12_Lock_policyE2EE19_M_release_last_useEv(ptr noundef nonnull align 8 dereferenceable(16) %3) #19
  ret void
}

; Function Attrs: mustprogress noinline nounwind optnone sspstrong uwtable
define linkonce_odr dso_local void @_ZNSt16_Sp_counted_baseILN9__gnu_cxx12_Lock_policyE2EE19_M_release_last_useEv(ptr noundef nonnull align 8 dereferenceable(16) %0) #2 comdat align 2 personality ptr @__gxx_personality_v0 {
  %2 = alloca ptr, align 8
  %3 = alloca i32, align 4
  %4 = alloca i32, align 4
  %5 = alloca i32, align 4
  %6 = alloca ptr, align 8
  %7 = alloca i32, align 4
  %8 = alloca i32, align 4
  %9 = alloca i32, align 4
  %10 = alloca ptr, align 8
  %11 = alloca i32, align 4
  %12 = alloca ptr, align 8
  store ptr %0, ptr %12, align 8
  %13 = load ptr, ptr %12, align 8
  %14 = load ptr, ptr %13, align 8
  %15 = getelementptr inbounds ptr, ptr %14, i64 2
  %16 = load ptr, ptr %15, align 8
  call void %16(ptr noundef nonnull align 8 dereferenceable(16) %13) #19
  %17 = getelementptr inbounds nuw %"class.std::_Sp_counted_base", ptr %13, i32 0, i32 2
  store ptr %17, ptr %10, align 8
  store i32 -1, ptr %11, align 4
  %18 = load i8, ptr @__libc_single_threaded, align 1
  %19 = icmp ne i8 %18, 0
  br i1 %19, label %20, label %30

20:                                               ; preds = %1
  %21 = load ptr, ptr %10, align 8
  %22 = load i32, ptr %11, align 4
  store ptr %21, ptr %6, align 8
  store i32 %22, ptr %7, align 4
  %23 = load ptr, ptr %6, align 8
  %24 = load i32, ptr %23, align 4
  store i32 %24, ptr %8, align 4
  %25 = load i32, ptr %7, align 4
  %26 = load ptr, ptr %6, align 8
  %27 = load i32, ptr %26, align 4
  %28 = add nsw i32 %27, %25
  store i32 %28, ptr %26, align 4
  %29 = load i32, ptr %8, align 4
  store i32 %29, ptr %9, align 4
  br label %38

30:                                               ; preds = %1
  %31 = load ptr, ptr %10, align 8
  %32 = load i32, ptr %11, align 4
  store ptr %31, ptr %2, align 8
  store i32 %32, ptr %3, align 4
  %33 = load ptr, ptr %2, align 8
  %34 = load i32, ptr %3, align 4
  store i32 %34, ptr %4, align 4
  %35 = load i32, ptr %4, align 4
  %36 = atomicrmw volatile add ptr %33, i32 %35 acq_rel, align 4
  store i32 %36, ptr %5, align 4
  %37 = load i32, ptr %5, align 4
  store i32 %37, ptr %9, align 4
  br label %38

38:                                               ; preds = %20, %30
  %39 = load i32, ptr %9, align 4
  br label %40

40:                                               ; preds = %38
  %41 = icmp eq i32 %39, 1
  br i1 %41, label %42, label %46

42:                                               ; preds = %40
  %43 = load ptr, ptr %13, align 8
  %44 = getelementptr inbounds ptr, ptr %43, i64 3
  %45 = load ptr, ptr %44, align 8
  call void %45(ptr noundef nonnull align 8 dereferenceable(16) %13) #19
  br label %46

46:                                               ; preds = %42, %40
  ret void

47:                                               ; No predecessors!
  %48 = landingpad { ptr, i32 }
          catch ptr null
  %49 = extractvalue { ptr, i32 } %48, 0
  call void @__clang_call_terminate(ptr %49) #21
  unreachable
}

; Function Attrs: mustprogress noinline nounwind optnone sspstrong uwtable
define linkonce_odr dso_local noundef zeroext i1 @_ZNK4llvm18IntrusiveRefCntPtrIN5clang17DiagnosticsEngineEEcvbEv(ptr noundef nonnull align 8 dereferenceable(8) %0) #2 comdat align 2 {
  %2 = alloca ptr, align 8
  store ptr %0, ptr %2, align 8
  %3 = load ptr, ptr %2, align 8
  %4 = getelementptr inbounds nuw %"class.llvm::IntrusiveRefCntPtr", ptr %3, i32 0, i32 0
  %5 = load ptr, ptr %4, align 8
  %6 = icmp ne ptr %5, null
  ret i1 %6
}

; Function Attrs: cold noreturn nounwind
declare void @__assert_fail(ptr noundef, ptr noundef, i32 noundef, ptr noundef) #10

; Function Attrs: mustprogress noinline nounwind optnone sspstrong uwtable
define linkonce_odr dso_local noundef nonnull align 8 dereferenceable(15248) ptr @_ZNK4llvm18IntrusiveRefCntPtrIN5clang17DiagnosticsEngineEEdeEv(ptr noundef nonnull align 8 dereferenceable(8) %0) #2 comdat align 2 {
  %2 = alloca ptr, align 8
  store ptr %0, ptr %2, align 8
  %3 = load ptr, ptr %2, align 8
  %4 = getelementptr inbounds nuw %"class.llvm::IntrusiveRefCntPtr", ptr %3, i32 0, i32 0
  %5 = load ptr, ptr %4, align 8
  ret ptr %5
}

; Function Attrs: mustprogress noinline nounwind optnone sspstrong uwtable
define linkonce_odr dso_local noundef ptr @_ZNKSt19__shared_ptr_accessIN5clang18CompilerInvocationELN9__gnu_cxx12_Lock_policyE2ELb0ELb0EEptEv(ptr noundef nonnull align 1 dereferenceable(1) %0) #2 comdat align 2 {
  %2 = alloca ptr, align 8
  store ptr %0, ptr %2, align 8
  %3 = load ptr, ptr %2, align 8
  %4 = call noundef ptr @_ZNKSt19__shared_ptr_accessIN5clang18CompilerInvocationELN9__gnu_cxx12_Lock_policyE2ELb0ELb0EE6_M_getEv(ptr noundef nonnull align 1 dereferenceable(1) %3) #19
  ret ptr %4
}

; Function Attrs: mustprogress noinline nounwind optnone sspstrong uwtable
define linkonce_odr dso_local noundef nonnull align 8 dereferenceable(849) ptr @_ZN5clang18CompilerInvocation11getLangOptsEv(ptr noundef nonnull align 8 dereferenceable(192) %0) #2 comdat align 2 {
  %2 = alloca ptr, align 8
  store ptr %0, ptr %2, align 8
  %3 = load ptr, ptr %2, align 8
  %4 = getelementptr inbounds nuw %"class.clang::CompilerInvocationBase", ptr %3, i32 0, i32 0
  %5 = call noundef nonnull align 8 dereferenceable(849) ptr @_ZNKSt19__shared_ptr_accessIN5clang11LangOptionsELN9__gnu_cxx12_Lock_policyE2ELb0ELb0EEdeEv(ptr noundef nonnull align 1 dereferenceable(1) %4) #19
  ret ptr %5
}

; Function Attrs: mustprogress noinline nounwind optnone sspstrong uwtable
define linkonce_odr dso_local noundef ptr @_ZNKSt19__shared_ptr_accessIN5clang18CompilerInvocationELN9__gnu_cxx12_Lock_policyE2ELb0ELb0EE6_M_getEv(ptr noundef nonnull align 1 dereferenceable(1) %0) #2 comdat align 2 {
  %2 = alloca ptr, align 8
  store ptr %0, ptr %2, align 8
  %3 = load ptr, ptr %2, align 8
  %4 = call noundef ptr @_ZNKSt12__shared_ptrIN5clang18CompilerInvocationELN9__gnu_cxx12_Lock_policyE2EE3getEv(ptr noundef nonnull align 8 dereferenceable(16) %3) #19
  ret ptr %4
}

; Function Attrs: mustprogress noinline nounwind optnone sspstrong uwtable
define linkonce_odr dso_local noundef ptr @_ZNKSt12__shared_ptrIN5clang18CompilerInvocationELN9__gnu_cxx12_Lock_policyE2EE3getEv(ptr noundef nonnull align 8 dereferenceable(16) %0) #2 comdat align 2 {
  %2 = alloca ptr, align 8
  store ptr %0, ptr %2, align 8
  %3 = load ptr, ptr %2, align 8
  %4 = getelementptr inbounds nuw %"class.std::__shared_ptr", ptr %3, i32 0, i32 0
  %5 = load ptr, ptr %4, align 8
  ret ptr %5
}

; Function Attrs: mustprogress noinline nounwind optnone sspstrong uwtable
define linkonce_odr dso_local noundef nonnull align 8 dereferenceable(849) ptr @_ZNKSt19__shared_ptr_accessIN5clang11LangOptionsELN9__gnu_cxx12_Lock_policyE2ELb0ELb0EEdeEv(ptr noundef nonnull align 1 dereferenceable(1) %0) #2 comdat align 2 personality ptr @__gxx_personality_v0 {
  %2 = alloca ptr, align 8
  %3 = alloca ptr, align 8
  store ptr %0, ptr %3, align 8
  %4 = load ptr, ptr %3, align 8
  %5 = call noundef ptr @_ZNKSt19__shared_ptr_accessIN5clang11LangOptionsELN9__gnu_cxx12_Lock_policyE2ELb0ELb0EE6_M_getEv(ptr noundef nonnull align 1 dereferenceable(1) %4) #19
  store ptr %5, ptr %2, align 8
  %6 = load ptr, ptr %2, align 8
  %7 = icmp ne ptr %6, null
  %8 = xor i1 %7, true
  br i1 %8, label %9, label %10

9:                                                ; preds = %1
  call void @_ZSt21__glibcxx_assert_failPKciS0_S0_(ptr noundef @.str.23, i32 noundef 1344, ptr noundef @__PRETTY_FUNCTION__._ZSt18__shared_ptr_derefIN5clang11LangOptionsEEPT_S3_, ptr noundef @.str.24) #22
  unreachable

10:                                               ; preds = %1
  %11 = load ptr, ptr %2, align 8
  br label %12

12:                                               ; preds = %10
  ret ptr %11

13:                                               ; No predecessors!
  %14 = landingpad { ptr, i32 }
          catch ptr null
  %15 = extractvalue { ptr, i32 } %14, 0
  call void @__clang_call_terminate(ptr %15) #21
  unreachable
}

; Function Attrs: mustprogress noinline nounwind optnone sspstrong uwtable
define linkonce_odr dso_local noundef ptr @_ZNKSt19__shared_ptr_accessIN5clang11LangOptionsELN9__gnu_cxx12_Lock_policyE2ELb0ELb0EE6_M_getEv(ptr noundef nonnull align 1 dereferenceable(1) %0) #2 comdat align 2 {
  %2 = alloca ptr, align 8
  store ptr %0, ptr %2, align 8
  %3 = load ptr, ptr %2, align 8
  %4 = call noundef ptr @_ZNKSt12__shared_ptrIN5clang11LangOptionsELN9__gnu_cxx12_Lock_policyE2EE3getEv(ptr noundef nonnull align 8 dereferenceable(16) %3) #19
  ret ptr %4
}

; Function Attrs: cold noreturn nounwind
declare void @_ZSt21__glibcxx_assert_failPKciS0_S0_(ptr noundef, i32 noundef, ptr noundef, ptr noundef) #10

; Function Attrs: mustprogress noinline nounwind optnone sspstrong uwtable
define linkonce_odr dso_local noundef ptr @_ZNKSt12__shared_ptrIN5clang11LangOptionsELN9__gnu_cxx12_Lock_policyE2EE3getEv(ptr noundef nonnull align 8 dereferenceable(16) %0) #2 comdat align 2 {
  %2 = alloca ptr, align 8
  store ptr %0, ptr %2, align 8
  %3 = load ptr, ptr %2, align 8
  %4 = getelementptr inbounds nuw %"class.std::__shared_ptr.353", ptr %3, i32 0, i32 0
  %5 = load ptr, ptr %4, align 8
  ret ptr %5
}

; Function Attrs: mustprogress noinline nounwind optnone sspstrong uwtable
define linkonce_odr dso_local noundef zeroext i1 @_ZNK4llvm18IntrusiveRefCntPtrIN5clang11FileManagerEEcvbEv(ptr noundef nonnull align 8 dereferenceable(8) %0) #2 comdat align 2 {
  %2 = alloca ptr, align 8
  store ptr %0, ptr %2, align 8
  %3 = load ptr, ptr %2, align 8
  %4 = getelementptr inbounds nuw %"class.llvm::IntrusiveRefCntPtr.4", ptr %3, i32 0, i32 0
  %5 = load ptr, ptr %4, align 8
  %6 = icmp ne ptr %5, null
  ret i1 %6
}

; Function Attrs: mustprogress noinline nounwind optnone sspstrong uwtable
define linkonce_odr dso_local noundef nonnull align 8 dereferenceable(808) ptr @_ZNK4llvm18IntrusiveRefCntPtrIN5clang11FileManagerEEdeEv(ptr noundef nonnull align 8 dereferenceable(8) %0) #2 comdat align 2 {
  %2 = alloca ptr, align 8
  store ptr %0, ptr %2, align 8
  %3 = load ptr, ptr %2, align 8
  %4 = getelementptr inbounds nuw %"class.llvm::IntrusiveRefCntPtr.4", ptr %3, i32 0, i32 0
  %5 = load ptr, ptr %4, align 8
  ret ptr %5
}

; Function Attrs: mustprogress noinline nounwind optnone sspstrong uwtable
define linkonce_odr dso_local noundef zeroext i1 @_ZNK4llvm18IntrusiveRefCntPtrIN5clang13SourceManagerEEcvbEv(ptr noundef nonnull align 8 dereferenceable(8) %0) #2 comdat align 2 {
  %2 = alloca ptr, align 8
  store ptr %0, ptr %2, align 8
  %3 = load ptr, ptr %2, align 8
  %4 = getelementptr inbounds nuw %"class.llvm::IntrusiveRefCntPtr.5", ptr %3, i32 0, i32 0
  %5 = load ptr, ptr %4, align 8
  %6 = icmp ne ptr %5, null
  ret i1 %6
}

; Function Attrs: mustprogress noinline nounwind optnone sspstrong uwtable
define linkonce_odr dso_local noundef nonnull align 8 dereferenceable(696) ptr @_ZNK4llvm18IntrusiveRefCntPtrIN5clang13SourceManagerEEdeEv(ptr noundef nonnull align 8 dereferenceable(8) %0) #2 comdat align 2 {
  %2 = alloca ptr, align 8
  store ptr %0, ptr %2, align 8
  %3 = load ptr, ptr %2, align 8
  %4 = getelementptr inbounds nuw %"class.llvm::IntrusiveRefCntPtr.5", ptr %3, i32 0, i32 0
  %5 = load ptr, ptr %4, align 8
  ret ptr %5
}

; Function Attrs: mustprogress noinline nounwind optnone sspstrong uwtable
define linkonce_odr dso_local void @_ZN5clang20CodeCompleteConsumerC2ERKNS_19CodeCompleteOptionsE(ptr noundef nonnull align 8 dereferenceable(12) %0, ptr noundef nonnull align 4 dereferenceable(1) %1) unnamed_addr #2 comdat align 2 {
  %3 = alloca ptr, align 8
  %4 = alloca ptr, align 8
  store ptr %0, ptr %3, align 8
  store ptr %1, ptr %4, align 8
  %5 = load ptr, ptr %3, align 8
  store ptr getelementptr inbounds inrange(-16, 56) ({ [9 x ptr] }, ptr @_ZTVN5clang20CodeCompleteConsumerE, i32 0, i32 0, i32 2), ptr %5, align 8
  %6 = getelementptr inbounds nuw %"class.clang::CodeCompleteConsumer", ptr %5, i32 0, i32 1
  %7 = load ptr, ptr %4, align 8
  call void @llvm.memcpy.p0.p0.i64(ptr align 8 %6, ptr align 4 %7, i64 4, i1 false)
  ret void
}

; Function Attrs: mustprogress noinline optnone sspstrong uwtable
define linkonce_odr dso_local void @_ZSt11make_sharedIN5clang29GlobalCodeCompletionAllocatorEJEESt10shared_ptrINSt9enable_ifIXntsr8is_arrayIT_EE5valueES4_E4typeEEDpOT0_(ptr dead_on_unwind noalias writable sret(%"class.std::shared_ptr.181") align 8 %0) #0 comdat {
  %2 = alloca ptr, align 8
  %3 = alloca %"class.std::allocator.401", align 1
  %4 = alloca %"struct.std::_Sp_alloc_shared_tag", align 8
  store ptr %0, ptr %2, align 8
  %5 = getelementptr inbounds nuw %"struct.std::_Sp_alloc_shared_tag", ptr %4, i32 0, i32 0
  store ptr %3, ptr %5, align 8
  %6 = getelementptr inbounds nuw %"struct.std::_Sp_alloc_shared_tag", ptr %4, i32 0, i32 0
  %7 = load ptr, ptr %6, align 8
  call void @_ZNSt10shared_ptrIN5clang29GlobalCodeCompletionAllocatorEEC2ISaIvEJEEESt20_Sp_alloc_shared_tagIT_EDpOT0_(ptr noundef nonnull align 8 dereferenceable(16) %0, ptr %7)
  ret void
}

; Function Attrs: mustprogress noinline optnone sspstrong uwtable
define linkonce_odr dso_local void @_ZN5clang20CodeCompletionTUInfoC2ESt10shared_ptrINS_29GlobalCodeCompletionAllocatorEE(ptr noundef nonnull align 8 dereferenceable(40) %0, ptr noundef %1) unnamed_addr #0 comdat align 2 {
  %3 = alloca ptr, align 8
  %4 = alloca ptr, align 8
  store ptr %0, ptr %3, align 8
  store ptr %1, ptr %4, align 8
  %5 = load ptr, ptr %3, align 8
  %6 = getelementptr inbounds nuw %"class.clang::CodeCompletionTUInfo", ptr %5, i32 0, i32 0
  call void @_ZN4llvm8DenseMapIPKN5clang11DeclContextENS_9StringRefENS_12DenseMapInfoIS4_vEENS_6detail12DenseMapPairIS4_S5_EEEC2Ej(ptr noundef nonnull align 8 dereferenceable(20) %6, i32 noundef 0)
  %7 = getelementptr inbounds nuw %"class.clang::CodeCompletionTUInfo", ptr %5, i32 0, i32 1
  call void @_ZNSt10shared_ptrIN5clang29GlobalCodeCompletionAllocatorEEC2EOS2_(ptr noundef nonnull align 8 dereferenceable(16) %7, ptr noundef nonnull align 8 dereferenceable(16) %1) #19
  ret void
}

; Function Attrs: mustprogress noinline nounwind optnone sspstrong uwtable
define linkonce_odr dso_local void @_ZNSt10shared_ptrIN5clang29GlobalCodeCompletionAllocatorEED2Ev(ptr noundef nonnull align 8 dereferenceable(16) %0) unnamed_addr #2 comdat align 2 {
  %2 = alloca ptr, align 8
  store ptr %0, ptr %2, align 8
  %3 = load ptr, ptr %2, align 8
  call void @_ZNSt12__shared_ptrIN5clang29GlobalCodeCompletionAllocatorELN9__gnu_cxx12_Lock_policyE2EED2Ev(ptr noundef nonnull align 8 dereferenceable(16) %3) #19
  ret void
}

; Function Attrs: mustprogress noinline optnone sspstrong uwtable
define linkonce_odr dso_local void @_ZN8nlohmann10basic_jsonISt3mapSt6vectorNSt7__cxx1112basic_stringIcSt11char_traitsIcESaIcEEEblmdSaNS_14adl_serializerEE5arrayESt16initializer_listISA_E(ptr dead_on_unwind noalias writable sret(%"class.nlohmann::basic_json") align 8 %0, ptr %1, i64 %2) #0 comdat align 2 {
  %4 = alloca ptr, align 8
  %5 = alloca %"class.std::initializer_list", align 8
  %6 = alloca %"class.std::initializer_list", align 8
  store ptr %0, ptr %4, align 8
  %7 = getelementptr inbounds nuw { ptr, i64 }, ptr %5, i32 0, i32 0
  store ptr %1, ptr %7, align 8
  %8 = getelementptr inbounds nuw { ptr, i64 }, ptr %5, i32 0, i32 1
  store i64 %2, ptr %8, align 8
  call void @llvm.memcpy.p0.p0.i64(ptr align 8 %6, ptr align 8 %5, i64 16, i1 false)
  %9 = getelementptr inbounds nuw { ptr, i64 }, ptr %6, i32 0, i32 0
  %10 = load ptr, ptr %9, align 8
  %11 = getelementptr inbounds nuw { ptr, i64 }, ptr %6, i32 0, i32 1
  %12 = load i64, ptr %11, align 8
  call void @_ZN8nlohmann10basic_jsonISt3mapSt6vectorNSt7__cxx1112basic_stringIcSt11char_traitsIcESaIcEEEblmdSaNS_14adl_serializerEEC2ESt16initializer_listISA_EbNS_6detail7value_tE(ptr noundef nonnull align 8 dereferenceable(16) %0, ptr %10, i64 %12, i1 noundef zeroext false, i8 noundef zeroext 2)
  ret void
}

; Function Attrs: mustprogress noinline nounwind optnone sspstrong uwtable
define linkonce_odr dso_local void @_ZNSt16initializer_listIN8nlohmann10basic_jsonISt3mapSt6vectorNSt7__cxx1112basic_stringIcSt11char_traitsIcESaIcEEEblmdSaNS0_14adl_serializerEEEEC2Ev(ptr noundef nonnull align 8 dereferenceable(16) %0) unnamed_addr #2 comdat align 2 {
  %2 = alloca ptr, align 8
  store ptr %0, ptr %2, align 8
  %3 = load ptr, ptr %2, align 8
  %4 = getelementptr inbounds nuw %"class.std::initializer_list", ptr %3, i32 0, i32 0
  store ptr null, ptr %4, align 8
  %5 = getelementptr inbounds nuw %"class.std::initializer_list", ptr %3, i32 0, i32 1
  store i64 0, ptr %5, align 8
  ret void
}

; Function Attrs: mustprogress noinline nounwind optnone sspstrong uwtable
define linkonce_odr dso_local void @_ZN5clang20CodeCompletionTUInfoD2Ev(ptr noundef nonnull align 8 dereferenceable(40) %0) unnamed_addr #2 comdat align 2 {
  %2 = alloca ptr, align 8
  store ptr %0, ptr %2, align 8
  %3 = load ptr, ptr %2, align 8
  %4 = getelementptr inbounds nuw %"class.clang::CodeCompletionTUInfo", ptr %3, i32 0, i32 1
  call void @_ZNSt10shared_ptrIN5clang29GlobalCodeCompletionAllocatorEED2Ev(ptr noundef nonnull align 8 dereferenceable(16) %4) #19
  %5 = getelementptr inbounds nuw %"class.clang::CodeCompletionTUInfo", ptr %3, i32 0, i32 0
  call void @_ZN4llvm8DenseMapIPKN5clang11DeclContextENS_9StringRefENS_12DenseMapInfoIS4_vEENS_6detail12DenseMapPairIS4_S5_EEED2Ev(ptr noundef nonnull align 8 dereferenceable(20) %5) #19
  ret void
}

; Function Attrs: nounwind
declare void @_ZN5clang20CodeCompleteConsumerD2Ev(ptr noundef nonnull align 8 dereferenceable(12)) unnamed_addr #6

; Function Attrs: mustprogress noinline nounwind optnone sspstrong uwtable
define linkonce_odr dso_local void @_ZN26CustomCodeCompleteConsumerD2Ev(ptr noundef nonnull align 8 dereferenceable(80) %0) unnamed_addr #2 comdat align 2 {
  %2 = alloca ptr, align 8
  store ptr %0, ptr %2, align 8
  %3 = load ptr, ptr %2, align 8
  store ptr getelementptr inbounds inrange(-16, 56) ({ [9 x ptr] }, ptr @_ZTV26CustomCodeCompleteConsumer, i32 0, i32 0, i32 2), ptr %3, align 8
  %4 = getelementptr inbounds nuw %class.CustomCodeCompleteConsumer, ptr %3, i32 0, i32 2
  call void @_ZN8nlohmann10basic_jsonISt3mapSt6vectorNSt7__cxx1112basic_stringIcSt11char_traitsIcESaIcEEEblmdSaNS_14adl_serializerEED2Ev(ptr noundef nonnull align 8 dereferenceable(16) %4) #19
  %5 = getelementptr inbounds nuw %class.CustomCodeCompleteConsumer, ptr %3, i32 0, i32 1
  call void @_ZN5clang20CodeCompletionTUInfoD2Ev(ptr noundef nonnull align 8 dereferenceable(40) %5) #19
  call void @_ZN5clang20CodeCompleteConsumerD2Ev(ptr noundef nonnull align 8 dereferenceable(12) %3) #19
  ret void
}

; Function Attrs: mustprogress noinline nounwind optnone sspstrong uwtable
define linkonce_odr dso_local void @_ZN26CustomCodeCompleteConsumerD0Ev(ptr noundef nonnull align 8 dereferenceable(80) %0) unnamed_addr #2 comdat align 2 {
  %2 = alloca ptr, align 8
  store ptr %0, ptr %2, align 8
  %3 = load ptr, ptr %2, align 8
  call void @_ZN26CustomCodeCompleteConsumerD2Ev(ptr noundef nonnull align 8 dereferenceable(80) %3) #19
  call void @_ZdlPvm(ptr noundef %3, i64 noundef 80) #24
  ret void
}

; Function Attrs: mustprogress noinline nounwind optnone sspstrong uwtable
define linkonce_odr dso_local noundef zeroext i1 @_ZN5clang20CodeCompleteConsumer19isResultFilteredOutEN4llvm9StringRefENS_20CodeCompletionResultE(ptr noundef nonnull align 8 dereferenceable(12) %0, ptr %1, i64 %2, ptr noundef %3) unnamed_addr #2 comdat align 2 {
  %5 = alloca %"class.llvm::StringRef", align 8
  %6 = alloca ptr, align 8
  %7 = alloca ptr, align 8
  %8 = getelementptr inbounds nuw { ptr, i64 }, ptr %5, i32 0, i32 0
  store ptr %1, ptr %8, align 8
  %9 = getelementptr inbounds nuw { ptr, i64 }, ptr %5, i32 0, i32 1
  store i64 %2, ptr %9, align 8
  store ptr %0, ptr %6, align 8
  store ptr %3, ptr %7, align 8
  %10 = load ptr, ptr %6, align 8
  ret i1 false
}

; Function Attrs: mustprogress noinline optnone sspstrong uwtable
define linkonce_odr dso_local void @_ZN26CustomCodeCompleteConsumer26ProcessCodeCompleteResultsERN5clang4SemaENS0_21CodeCompletionContextEPNS0_20CodeCompletionResultEj(ptr noundef nonnull align 8 dereferenceable(80) %0, ptr noundef nonnull align 8 dereferenceable(17504) %1, ptr noundef %2, ptr noundef %3, i32 noundef %4) unnamed_addr #0 comdat align 2 personality ptr @__gxx_personality_v0 {
  %6 = alloca ptr, align 8
  %7 = alloca ptr, align 8
  %8 = alloca ptr, align 8
  %9 = alloca ptr, align 8
  %10 = alloca ptr, align 8
  %11 = alloca ptr, align 8
  %12 = alloca ptr, align 8
  %13 = alloca ptr, align 8
  %14 = alloca i32, align 4
  %15 = alloca i32, align 4
  %16 = alloca i32, align 4
  %17 = alloca %"class.std::__cxx11::basic_string", align 8
  %18 = alloca %"class.std::allocator.0", align 1
  %19 = alloca ptr, align 8
  %20 = alloca i32, align 4
  %21 = alloca %"class.llvm::raw_string_ostream", align 8
  %22 = alloca ptr, align 8
  %23 = alloca %"class.nlohmann::basic_json", align 8
  store ptr %0, ptr %10, align 8
  store ptr %1, ptr %11, align 8
  store ptr %2, ptr %12, align 8
  store ptr %3, ptr %13, align 8
  store i32 %4, ptr %14, align 4
  %24 = load ptr, ptr %10, align 8
  store i32 0, ptr %15, align 4
  br label %25

25:                                               ; preds = %73, %5
  %26 = load i32, ptr %15, align 4
  %27 = load i32, ptr %14, align 4
  %28 = icmp ne i32 %26, %27
  br i1 %28, label %29, label %95

29:                                               ; preds = %25
  %30 = load ptr, ptr %13, align 8
  %31 = load i32, ptr %15, align 4
  %32 = zext i32 %31 to i64
  %33 = getelementptr inbounds nuw %"class.clang::CodeCompletionResult", ptr %30, i64 %32
  %34 = getelementptr inbounds nuw %"class.clang::CodeCompletionResult", ptr %33, i32 0, i32 6
  %35 = load i32, ptr %34, align 8
  store i32 %35, ptr %16, align 4
  %36 = load i32, ptr %16, align 4
  %37 = icmp ne i32 %36, 0
  br i1 %37, label %38, label %42

38:                                               ; preds = %29
  %39 = load i32, ptr %16, align 4
  %40 = icmp ne i32 %39, 1
  br i1 %40, label %41, label %42

41:                                               ; preds = %38
  br label %73

42:                                               ; preds = %38, %29
  store ptr %18, ptr %9, align 8
  %43 = load ptr, ptr %9, align 8
  store ptr %43, ptr %6, align 8
  %44 = load ptr, ptr %6, align 8
  invoke void @_ZNSt7__cxx1112basic_stringIcSt11char_traitsIcESaIcEEC2IS3_EEPKcRKS3_(ptr noundef nonnull align 8 dereferenceable(32) %17, ptr noundef @.str.46, ptr noundef nonnull align 1 dereferenceable(1) %18)
          to label %45 unwind label %76

45:                                               ; preds = %42
  store ptr %18, ptr %8, align 8
  %46 = load ptr, ptr %8, align 8
  call void @_ZNSt15__new_allocatorIcED2Ev(ptr noundef nonnull align 1 dereferenceable(1) %46) #19
  invoke void @_ZN4llvm18raw_string_ostreamC2ERNSt7__cxx1112basic_stringIcSt11char_traitsIcESaIcEEE(ptr noundef nonnull align 8 dereferenceable(56) %21, ptr noundef nonnull align 8 dereferenceable(32) %17)
          to label %47 unwind label %81

47:                                               ; preds = %45
  %48 = load ptr, ptr %13, align 8
  %49 = load i32, ptr %15, align 4
  %50 = zext i32 %49 to i64
  %51 = getelementptr inbounds nuw %"class.clang::CodeCompletionResult", ptr %48, i64 %50
  %52 = load ptr, ptr %11, align 8
  %53 = load ptr, ptr %24, align 8
  %54 = getelementptr inbounds ptr, ptr %53, i64 5
  %55 = load ptr, ptr %54, align 8
  %56 = invoke noundef nonnull align 8 dereferenceable(96) ptr %55(ptr noundef nonnull align 8 dereferenceable(80) %24)
          to label %57 unwind label %85

57:                                               ; preds = %47
  %58 = getelementptr inbounds nuw %class.CustomCodeCompleteConsumer, ptr %24, i32 0, i32 1
  %59 = invoke noundef zeroext i1 @_ZNK5clang20CodeCompleteConsumer20includeBriefCommentsEv(ptr noundef nonnull align 8 dereferenceable(12) %24)
          to label %60 unwind label %85

60:                                               ; preds = %57
  %61 = invoke noundef ptr @_ZN5clang20CodeCompletionResult26CreateCodeCompletionStringERNS_4SemaERKNS_21CodeCompletionContextERNS_23CodeCompletionAllocatorERNS_20CodeCompletionTUInfoEb(ptr noundef nonnull align 8 dereferenceable(96) %51, ptr noundef nonnull align 8 dereferenceable(17504) %52, ptr noundef nonnull align 8 dereferenceable(184) %2, ptr noundef nonnull align 8 dereferenceable(96) %56, ptr noundef nonnull align 8 dereferenceable(40) %58, i1 noundef zeroext %59)
          to label %62 unwind label %85

62:                                               ; preds = %60
  store ptr %61, ptr %22, align 8
  %63 = getelementptr inbounds nuw %class.CustomCodeCompleteConsumer, ptr %24, i32 0, i32 2
  %64 = load ptr, ptr %13, align 8
  %65 = load i32, ptr %15, align 4
  %66 = zext i32 %65 to i64
  %67 = getelementptr inbounds nuw %"class.clang::CodeCompletionResult", ptr %64, i64 %66
  %68 = load ptr, ptr %22, align 8
  %69 = getelementptr inbounds nuw %class.CustomCodeCompleteConsumer, ptr %24, i32 0, i32 3
  %70 = load ptr, ptr %69, align 8
  invoke void @_Z6encodeB5cxx11RKN5clang20CodeCompletionResultEPKNS_20CodeCompletionStringERKNS_13SourceManagerE(ptr dead_on_unwind writable sret(%"class.nlohmann::basic_json") align 8 %23, ptr noundef nonnull align 8 dereferenceable(96) %67, ptr noundef %68, ptr noundef nonnull align 8 dereferenceable(696) %70)
          to label %71 unwind label %85

71:                                               ; preds = %62
  invoke void @_ZN8nlohmann10basic_jsonISt3mapSt6vectorNSt7__cxx1112basic_stringIcSt11char_traitsIcESaIcEEEblmdSaNS_14adl_serializerEE9push_backEOSA_(ptr noundef nonnull align 8 dereferenceable(16) %63, ptr noundef nonnull align 8 dereferenceable(16) %23)
          to label %72 unwind label %89

72:                                               ; preds = %71
  call void @_ZN8nlohmann10basic_jsonISt3mapSt6vectorNSt7__cxx1112basic_stringIcSt11char_traitsIcESaIcEEEblmdSaNS_14adl_serializerEED2Ev(ptr noundef nonnull align 8 dereferenceable(16) %23) #19
  call void @_ZN4llvm18raw_string_ostreamD2Ev(ptr noundef nonnull align 8 dereferenceable(56) %21) #19
  call void @_ZNSt7__cxx1112basic_stringIcSt11char_traitsIcESaIcEED2Ev(ptr noundef nonnull align 8 dereferenceable(32) %17) #19
  br label %73

73:                                               ; preds = %72, %41
  %74 = load i32, ptr %15, align 4
  %75 = add i32 %74, 1
  store i32 %75, ptr %15, align 4
  br label %25, !llvm.loop !16

76:                                               ; preds = %42
  %77 = landingpad { ptr, i32 }
          cleanup
  %78 = extractvalue { ptr, i32 } %77, 0
  store ptr %78, ptr %19, align 8
  %79 = extractvalue { ptr, i32 } %77, 1
  store i32 %79, ptr %20, align 4
  store ptr %18, ptr %7, align 8
  %80 = load ptr, ptr %7, align 8
  call void @_ZNSt15__new_allocatorIcED2Ev(ptr noundef nonnull align 1 dereferenceable(1) %80) #19
  br label %96

81:                                               ; preds = %45
  %82 = landingpad { ptr, i32 }
          cleanup
  %83 = extractvalue { ptr, i32 } %82, 0
  store ptr %83, ptr %19, align 8
  %84 = extractvalue { ptr, i32 } %82, 1
  store i32 %84, ptr %20, align 4
  br label %94

85:                                               ; preds = %62, %60, %57, %47
  %86 = landingpad { ptr, i32 }
          cleanup
  %87 = extractvalue { ptr, i32 } %86, 0
  store ptr %87, ptr %19, align 8
  %88 = extractvalue { ptr, i32 } %86, 1
  store i32 %88, ptr %20, align 4
  br label %93

89:                                               ; preds = %71
  %90 = landingpad { ptr, i32 }
          cleanup
  %91 = extractvalue { ptr, i32 } %90, 0
  store ptr %91, ptr %19, align 8
  %92 = extractvalue { ptr, i32 } %90, 1
  store i32 %92, ptr %20, align 4
  call void @_ZN8nlohmann10basic_jsonISt3mapSt6vectorNSt7__cxx1112basic_stringIcSt11char_traitsIcESaIcEEEblmdSaNS_14adl_serializerEED2Ev(ptr noundef nonnull align 8 dereferenceable(16) %23) #19
  br label %93

93:                                               ; preds = %89, %85
  call void @_ZN4llvm18raw_string_ostreamD2Ev(ptr noundef nonnull align 8 dereferenceable(56) %21) #19
  br label %94

94:                                               ; preds = %93, %81
  call void @_ZNSt7__cxx1112basic_stringIcSt11char_traitsIcESaIcEED2Ev(ptr noundef nonnull align 8 dereferenceable(32) %17) #19
  br label %96

95:                                               ; preds = %25
  ret void

96:                                               ; preds = %94, %76
  %97 = load ptr, ptr %19, align 8
  %98 = load i32, ptr %20, align 4
  %99 = insertvalue { ptr, i32 } poison, ptr %97, 0
  %100 = insertvalue { ptr, i32 } %99, i32 %98, 1
  resume { ptr, i32 } %100
}

; Function Attrs: mustprogress noinline nounwind optnone sspstrong uwtable
define linkonce_odr dso_local void @_ZN5clang20CodeCompleteConsumer25ProcessOverloadCandidatesERNS_4SemaEjPNS0_17OverloadCandidateEjNS_14SourceLocationEb(ptr noundef nonnull align 8 dereferenceable(12) %0, ptr noundef nonnull align 8 dereferenceable(17504) %1, i32 noundef %2, ptr noundef %3, i32 noundef %4, i32 %5, i1 noundef zeroext %6) unnamed_addr #2 comdat align 2 {
  %8 = alloca %"class.clang::SourceLocation", align 4
  %9 = alloca ptr, align 8
  %10 = alloca ptr, align 8
  %11 = alloca i32, align 4
  %12 = alloca ptr, align 8
  %13 = alloca i32, align 4
  %14 = alloca i8, align 1
  %15 = getelementptr inbounds nuw %"class.clang::SourceLocation", ptr %8, i32 0, i32 0
  store i32 %5, ptr %15, align 4
  store ptr %0, ptr %9, align 8
  store ptr %1, ptr %10, align 8
  store i32 %2, ptr %11, align 4
  store ptr %3, ptr %12, align 8
  store i32 %4, ptr %13, align 4
  %16 = zext i1 %6 to i8
  store i8 %16, ptr %14, align 1
  %17 = load ptr, ptr %9, align 8
  ret void
}

; Function Attrs: mustprogress noinline optnone sspstrong uwtable
define linkonce_odr dso_local noundef nonnull align 8 dereferenceable(96) ptr @_ZN26CustomCodeCompleteConsumer12getAllocatorEv(ptr noundef nonnull align 8 dereferenceable(80) %0) unnamed_addr #0 comdat align 2 {
  %2 = alloca ptr, align 8
  store ptr %0, ptr %2, align 8
  %3 = load ptr, ptr %2, align 8
  %4 = getelementptr inbounds nuw %class.CustomCodeCompleteConsumer, ptr %3, i32 0, i32 1
  %5 = call noundef nonnull align 8 dereferenceable(96) ptr @_ZNK5clang20CodeCompletionTUInfo12getAllocatorEv(ptr noundef nonnull align 8 dereferenceable(40) %4)
  ret ptr %5
}

; Function Attrs: mustprogress noinline nounwind optnone sspstrong uwtable
define linkonce_odr dso_local noundef nonnull align 8 dereferenceable(40) ptr @_ZN26CustomCodeCompleteConsumer23getCodeCompletionTUInfoEv(ptr noundef nonnull align 8 dereferenceable(80) %0) unnamed_addr #2 comdat align 2 {
  %2 = alloca ptr, align 8
  store ptr %0, ptr %2, align 8
  %3 = load ptr, ptr %2, align 8
  %4 = getelementptr inbounds nuw %class.CustomCodeCompleteConsumer, ptr %3, i32 0, i32 1
  ret ptr %4
}

; Function Attrs: mustprogress noinline optnone sspstrong uwtable
define linkonce_odr dso_local void @_ZNSt10shared_ptrIN5clang29GlobalCodeCompletionAllocatorEEC2ISaIvEJEEESt20_Sp_alloc_shared_tagIT_EDpOT0_(ptr noundef nonnull align 8 dereferenceable(16) %0, ptr %1) unnamed_addr #0 comdat align 2 {
  %3 = alloca %"struct.std::_Sp_alloc_shared_tag", align 8
  %4 = alloca ptr, align 8
  %5 = alloca %"struct.std::_Sp_alloc_shared_tag", align 8
  %6 = getelementptr inbounds nuw %"struct.std::_Sp_alloc_shared_tag", ptr %3, i32 0, i32 0
  store ptr %1, ptr %6, align 8
  store ptr %0, ptr %4, align 8
  %7 = load ptr, ptr %4, align 8
  call void @llvm.memcpy.p0.p0.i64(ptr align 8 %5, ptr align 8 %3, i64 8, i1 false)
  %8 = getelementptr inbounds nuw %"struct.std::_Sp_alloc_shared_tag", ptr %5, i32 0, i32 0
  %9 = load ptr, ptr %8, align 8
  call void @_ZNSt12__shared_ptrIN5clang29GlobalCodeCompletionAllocatorELN9__gnu_cxx12_Lock_policyE2EEC2ISaIvEJEEESt20_Sp_alloc_shared_tagIT_EDpOT0_(ptr noundef nonnull align 8 dereferenceable(16) %7, ptr %9)
  ret void
}

; Function Attrs: mustprogress noinline optnone sspstrong uwtable
define linkonce_odr dso_local void @_ZNSt12__shared_ptrIN5clang29GlobalCodeCompletionAllocatorELN9__gnu_cxx12_Lock_policyE2EEC2ISaIvEJEEESt20_Sp_alloc_shared_tagIT_EDpOT0_(ptr noundef nonnull align 8 dereferenceable(16) %0, ptr %1) unnamed_addr #0 comdat align 2 {
  %3 = alloca %"struct.std::_Sp_alloc_shared_tag", align 8
  %4 = alloca ptr, align 8
  %5 = alloca %"struct.std::_Sp_alloc_shared_tag", align 8
  %6 = getelementptr inbounds nuw %"struct.std::_Sp_alloc_shared_tag", ptr %3, i32 0, i32 0
  store ptr %1, ptr %6, align 8
  store ptr %0, ptr %4, align 8
  %7 = load ptr, ptr %4, align 8
  %8 = getelementptr inbounds nuw %"class.std::__shared_ptr.182", ptr %7, i32 0, i32 0
  store ptr null, ptr %8, align 8
  %9 = getelementptr inbounds nuw %"class.std::__shared_ptr.182", ptr %7, i32 0, i32 1
  %10 = getelementptr inbounds nuw %"class.std::__shared_ptr.182", ptr %7, i32 0, i32 0
  call void @llvm.memcpy.p0.p0.i64(ptr align 8 %5, ptr align 8 %3, i64 8, i1 false)
  %11 = getelementptr inbounds nuw %"struct.std::_Sp_alloc_shared_tag", ptr %5, i32 0, i32 0
  %12 = load ptr, ptr %11, align 8
  call void @_ZNSt14__shared_countILN9__gnu_cxx12_Lock_policyE2EEC2IN5clang29GlobalCodeCompletionAllocatorESaIvEJEEERPT_St20_Sp_alloc_shared_tagIT0_EDpOT1_(ptr noundef nonnull align 8 dereferenceable(8) %9, ptr noundef nonnull align 8 dereferenceable(8) %10, ptr %12)
  %13 = getelementptr inbounds nuw %"class.std::__shared_ptr.182", ptr %7, i32 0, i32 0
  %14 = load ptr, ptr %13, align 8
  call void @_ZNSt12__shared_ptrIN5clang29GlobalCodeCompletionAllocatorELN9__gnu_cxx12_Lock_policyE2EE31_M_enable_shared_from_this_withIS1_S1_EENSt9enable_ifIXntsr15__has_esft_baseIT0_EE5valueEvE4typeEPT_(ptr noundef nonnull align 8 dereferenceable(16) %7, ptr noundef %14) #19
  ret void
}

; Function Attrs: mustprogress noinline optnone sspstrong uwtable
define linkonce_odr dso_local void @_ZNSt14__shared_countILN9__gnu_cxx12_Lock_policyE2EEC2IN5clang29GlobalCodeCompletionAllocatorESaIvEJEEERPT_St20_Sp_alloc_shared_tagIT0_EDpOT1_(ptr noundef nonnull align 8 dereferenceable(8) %0, ptr noundef nonnull align 8 dereferenceable(8) %1, ptr %2) unnamed_addr #0 comdat align 2 personality ptr @__gxx_personality_v0 {
  %4 = alloca ptr, align 8
  %5 = alloca ptr, align 8
  %6 = alloca ptr, align 8
  %7 = alloca ptr, align 8
  %8 = alloca ptr, align 8
  %9 = alloca %"struct.std::_Sp_alloc_shared_tag", align 8
  %10 = alloca ptr, align 8
  %11 = alloca ptr, align 8
  %12 = alloca %"class.std::allocator.402", align 1
  %13 = alloca %"struct.std::__allocated_ptr", align 8
  %14 = alloca ptr, align 8
  %15 = alloca i32, align 4
  %16 = alloca ptr, align 8
  %17 = alloca ptr, align 8
  %18 = alloca %"class.std::allocator.401", align 1
  %19 = getelementptr inbounds nuw %"struct.std::_Sp_alloc_shared_tag", ptr %9, i32 0, i32 0
  store ptr %2, ptr %19, align 8
  store ptr %0, ptr %10, align 8
  store ptr %1, ptr %11, align 8
  %20 = load ptr, ptr %10, align 8
  %21 = getelementptr inbounds nuw %"struct.std::_Sp_alloc_shared_tag", ptr %9, i32 0, i32 0
  %22 = load ptr, ptr %21, align 8
  store ptr %12, ptr %7, align 8
  store ptr %22, ptr %8, align 8
  %23 = load ptr, ptr %7, align 8
  store ptr %23, ptr %4, align 8
  %24 = load ptr, ptr %4, align 8
  invoke void @_ZSt18__allocate_guardedISaISt23_Sp_counted_ptr_inplaceIN5clang29GlobalCodeCompletionAllocatorESaIvELN9__gnu_cxx12_Lock_policyE2EEEESt15__allocated_ptrIT_ERS9_(ptr dead_on_unwind writable sret(%"struct.std::__allocated_ptr") align 8 %13, ptr noundef nonnull align 1 dereferenceable(1) %12)
          to label %25 unwind label %39

25:                                               ; preds = %3
  %26 = invoke noundef ptr @_ZNKSt15__allocated_ptrISaISt23_Sp_counted_ptr_inplaceIN5clang29GlobalCodeCompletionAllocatorESaIvELN9__gnu_cxx12_Lock_policyE2EEEE3getEv(ptr noundef nonnull align 8 dereferenceable(16) %13)
          to label %27 unwind label %43

27:                                               ; preds = %25
  store ptr %26, ptr %16, align 8
  %28 = load ptr, ptr %16, align 8
  %29 = getelementptr inbounds nuw %"struct.std::_Sp_alloc_shared_tag", ptr %9, i32 0, i32 0
  %30 = load ptr, ptr %29, align 8
  invoke void @_ZNSt23_Sp_counted_ptr_inplaceIN5clang29GlobalCodeCompletionAllocatorESaIvELN9__gnu_cxx12_Lock_policyE2EEC2IJEEES2_DpOT_(ptr noundef nonnull align 8 dereferenceable(112) %28)
          to label %31 unwind label %43

31:                                               ; preds = %27
  store ptr %28, ptr %17, align 8
  %32 = call noundef nonnull align 8 dereferenceable(16) ptr @_ZNSt15__allocated_ptrISaISt23_Sp_counted_ptr_inplaceIN5clang29GlobalCodeCompletionAllocatorESaIvELN9__gnu_cxx12_Lock_policyE2EEEEaSEDn(ptr noundef nonnull align 8 dereferenceable(16) %13, ptr null) #19
  %33 = load ptr, ptr %17, align 8
  %34 = getelementptr inbounds nuw %"class.std::__shared_count", ptr %20, i32 0, i32 0
  store ptr %33, ptr %34, align 8
  %35 = load ptr, ptr %17, align 8
  %36 = call noundef ptr @_ZNSt23_Sp_counted_ptr_inplaceIN5clang29GlobalCodeCompletionAllocatorESaIvELN9__gnu_cxx12_Lock_policyE2EE6_M_ptrEv(ptr noundef nonnull align 8 dereferenceable(112) %35) #19
  %37 = load ptr, ptr %11, align 8
  store ptr %36, ptr %37, align 8
  call void @_ZNSt15__allocated_ptrISaISt23_Sp_counted_ptr_inplaceIN5clang29GlobalCodeCompletionAllocatorESaIvELN9__gnu_cxx12_Lock_policyE2EEEED2Ev(ptr noundef nonnull align 8 dereferenceable(16) %13) #19
  store ptr %12, ptr %6, align 8
  %38 = load ptr, ptr %6, align 8
  call void @_ZNSt15__new_allocatorISt23_Sp_counted_ptr_inplaceIN5clang29GlobalCodeCompletionAllocatorESaIvELN9__gnu_cxx12_Lock_policyE2EEED2Ev(ptr noundef nonnull align 1 dereferenceable(1) %38) #19
  ret void

39:                                               ; preds = %3
  %40 = landingpad { ptr, i32 }
          cleanup
  %41 = extractvalue { ptr, i32 } %40, 0
  store ptr %41, ptr %14, align 8
  %42 = extractvalue { ptr, i32 } %40, 1
  store i32 %42, ptr %15, align 4
  br label %47

43:                                               ; preds = %27, %25
  %44 = landingpad { ptr, i32 }
          cleanup
  %45 = extractvalue { ptr, i32 } %44, 0
  store ptr %45, ptr %14, align 8
  %46 = extractvalue { ptr, i32 } %44, 1
  store i32 %46, ptr %15, align 4
  call void @_ZNSt15__allocated_ptrISaISt23_Sp_counted_ptr_inplaceIN5clang29GlobalCodeCompletionAllocatorESaIvELN9__gnu_cxx12_Lock_policyE2EEEED2Ev(ptr noundef nonnull align 8 dereferenceable(16) %13) #19
  br label %47

47:                                               ; preds = %43, %39
  store ptr %12, ptr %5, align 8
  %48 = load ptr, ptr %5, align 8
  call void @_ZNSt15__new_allocatorISt23_Sp_counted_ptr_inplaceIN5clang29GlobalCodeCompletionAllocatorESaIvELN9__gnu_cxx12_Lock_policyE2EEED2Ev(ptr noundef nonnull align 1 dereferenceable(1) %48) #19
  br label %49

49:                                               ; preds = %47
  %50 = load ptr, ptr %14, align 8
  %51 = load i32, ptr %15, align 4
  %52 = insertvalue { ptr, i32 } poison, ptr %50, 0
  %53 = insertvalue { ptr, i32 } %52, i32 %51, 1
  resume { ptr, i32 } %53
}

; Function Attrs: mustprogress noinline nounwind optnone sspstrong uwtable
define linkonce_odr dso_local void @_ZNSt12__shared_ptrIN5clang29GlobalCodeCompletionAllocatorELN9__gnu_cxx12_Lock_policyE2EE31_M_enable_shared_from_this_withIS1_S1_EENSt9enable_ifIXntsr15__has_esft_baseIT0_EE5valueEvE4typeEPT_(ptr noundef nonnull align 8 dereferenceable(16) %0, ptr noundef %1) #2 comdat align 2 {
  %3 = alloca ptr, align 8
  %4 = alloca ptr, align 8
  store ptr %0, ptr %3, align 8
  store ptr %1, ptr %4, align 8
  %5 = load ptr, ptr %3, align 8
  ret void
}

; Function Attrs: mustprogress noinline optnone sspstrong uwtable
define linkonce_odr dso_local void @_ZSt18__allocate_guardedISaISt23_Sp_counted_ptr_inplaceIN5clang29GlobalCodeCompletionAllocatorESaIvELN9__gnu_cxx12_Lock_policyE2EEEESt15__allocated_ptrIT_ERS9_(ptr dead_on_unwind noalias writable sret(%"struct.std::__allocated_ptr") align 8 %0, ptr noundef nonnull align 1 dereferenceable(1) %1) #0 comdat {
  %3 = alloca ptr, align 8
  %4 = alloca i64, align 8
  %5 = alloca ptr, align 8
  %6 = alloca ptr, align 8
  store ptr %0, ptr %5, align 8
  store ptr %1, ptr %6, align 8
  %7 = load ptr, ptr %6, align 8
  %8 = load ptr, ptr %6, align 8
  store ptr %8, ptr %3, align 8
  store i64 1, ptr %4, align 8
  %9 = load ptr, ptr %3, align 8
  %10 = load i64, ptr %4, align 8
  %11 = call noundef ptr @_ZNSt15__new_allocatorISt23_Sp_counted_ptr_inplaceIN5clang29GlobalCodeCompletionAllocatorESaIvELN9__gnu_cxx12_Lock_policyE2EEE8allocateEmPKv(ptr noundef nonnull align 1 dereferenceable(1) %9, i64 noundef %10, ptr noundef null)
  call void @_ZNSt15__allocated_ptrISaISt23_Sp_counted_ptr_inplaceIN5clang29GlobalCodeCompletionAllocatorESaIvELN9__gnu_cxx12_Lock_policyE2EEEEC2ERS7_PS6_(ptr noundef nonnull align 8 dereferenceable(16) %0, ptr noundef nonnull align 1 dereferenceable(1) %7, ptr noundef %11) #19
  ret void
}

; Function Attrs: mustprogress noinline nounwind optnone sspstrong uwtable
define linkonce_odr dso_local noundef ptr @_ZNKSt15__allocated_ptrISaISt23_Sp_counted_ptr_inplaceIN5clang29GlobalCodeCompletionAllocatorESaIvELN9__gnu_cxx12_Lock_policyE2EEEE3getEv(ptr noundef nonnull align 8 dereferenceable(16) %0) #2 comdat align 2 {
  %2 = alloca ptr, align 8
  %3 = alloca ptr, align 8
  store ptr %0, ptr %3, align 8
  %4 = load ptr, ptr %3, align 8
  %5 = getelementptr inbounds nuw %"struct.std::__allocated_ptr", ptr %4, i32 0, i32 1
  %6 = load ptr, ptr %5, align 8
  store ptr %6, ptr %2, align 8
  %7 = load ptr, ptr %2, align 8
  ret ptr %7
}

; Function Attrs: mustprogress noinline optnone sspstrong uwtable
define linkonce_odr dso_local void @_ZNSt23_Sp_counted_ptr_inplaceIN5clang29GlobalCodeCompletionAllocatorESaIvELN9__gnu_cxx12_Lock_policyE2EEC2IJEEES2_DpOT_(ptr noundef nonnull align 8 dereferenceable(112) %0) unnamed_addr #0 comdat align 2 personality ptr @__gxx_personality_v0 {
  %2 = alloca ptr, align 8
  %3 = alloca ptr, align 8
  %4 = alloca %"class.std::allocator.401", align 1
  %5 = alloca ptr, align 8
  %6 = alloca %"class.std::allocator.401", align 1
  %7 = alloca ptr, align 8
  %8 = alloca i32, align 4
  store ptr %0, ptr %5, align 8
  %9 = load ptr, ptr %5, align 8
  call void @_ZNSt16_Sp_counted_baseILN9__gnu_cxx12_Lock_policyE2EEC2Ev(ptr noundef nonnull align 8 dereferenceable(16) %9) #19
  store ptr getelementptr inbounds inrange(-16, 40) ({ [7 x ptr] }, ptr @_ZTVSt23_Sp_counted_ptr_inplaceIN5clang29GlobalCodeCompletionAllocatorESaIvELN9__gnu_cxx12_Lock_policyE2EE, i32 0, i32 0, i32 2), ptr %9, align 8
  %10 = getelementptr inbounds nuw %"class.std::_Sp_counted_ptr_inplace", ptr %9, i32 0, i32 1
  call void @_ZNSt23_Sp_counted_ptr_inplaceIN5clang29GlobalCodeCompletionAllocatorESaIvELN9__gnu_cxx12_Lock_policyE2EE5_ImplC2ES2_(ptr noundef nonnull align 8 dereferenceable(96) %10) #19
  %11 = call noundef ptr @_ZNSt23_Sp_counted_ptr_inplaceIN5clang29GlobalCodeCompletionAllocatorESaIvELN9__gnu_cxx12_Lock_policyE2EE6_M_ptrEv(ptr noundef nonnull align 8 dereferenceable(112) %9) #19
  store ptr %4, ptr %2, align 8
  store ptr %11, ptr %3, align 8
  %12 = load ptr, ptr %3, align 8
  invoke void @_ZSt10_ConstructIN5clang29GlobalCodeCompletionAllocatorEJEEvPT_DpOT0_(ptr noundef %12)
          to label %13 unwind label %15

13:                                               ; preds = %1
  br label %14

14:                                               ; preds = %13
  ret void

15:                                               ; preds = %1
  %16 = landingpad { ptr, i32 }
          cleanup
  %17 = extractvalue { ptr, i32 } %16, 0
  store ptr %17, ptr %7, align 8
  %18 = extractvalue { ptr, i32 } %16, 1
  store i32 %18, ptr %8, align 4
  call void @_ZNSt16_Sp_counted_baseILN9__gnu_cxx12_Lock_policyE2EED2Ev(ptr noundef nonnull align 8 dereferenceable(16) %9) #19
  br label %19

19:                                               ; preds = %15
  %20 = load ptr, ptr %7, align 8
  %21 = load i32, ptr %8, align 4
  %22 = insertvalue { ptr, i32 } poison, ptr %20, 0
  %23 = insertvalue { ptr, i32 } %22, i32 %21, 1
  resume { ptr, i32 } %23
}

; Function Attrs: mustprogress noinline nounwind optnone sspstrong uwtable
define linkonce_odr dso_local noundef nonnull align 8 dereferenceable(16) ptr @_ZNSt15__allocated_ptrISaISt23_Sp_counted_ptr_inplaceIN5clang29GlobalCodeCompletionAllocatorESaIvELN9__gnu_cxx12_Lock_policyE2EEEEaSEDn(ptr noundef nonnull align 8 dereferenceable(16) %0, ptr %1) #2 comdat align 2 {
  %3 = alloca ptr, align 8
  %4 = alloca ptr, align 8
  store ptr %0, ptr %3, align 8
  store ptr %1, ptr %4, align 8
  %5 = load ptr, ptr %3, align 8
  %6 = getelementptr inbounds nuw %"struct.std::__allocated_ptr", ptr %5, i32 0, i32 1
  store ptr null, ptr %6, align 8
  ret ptr %5
}

; Function Attrs: mustprogress noinline nounwind optnone sspstrong uwtable
define linkonce_odr dso_local noundef ptr @_ZNSt23_Sp_counted_ptr_inplaceIN5clang29GlobalCodeCompletionAllocatorESaIvELN9__gnu_cxx12_Lock_policyE2EE6_M_ptrEv(ptr noundef nonnull align 8 dereferenceable(112) %0) #2 comdat align 2 {
  %2 = alloca ptr, align 8
  store ptr %0, ptr %2, align 8
  %3 = load ptr, ptr %2, align 8
  %4 = getelementptr inbounds nuw %"class.std::_Sp_counted_ptr_inplace", ptr %3, i32 0, i32 1
  %5 = getelementptr inbounds nuw %"class.std::_Sp_counted_ptr_inplace<clang::GlobalCodeCompletionAllocator, std::allocator<void>, __gnu_cxx::_S_atomic>::_Impl", ptr %4, i32 0, i32 0
  %6 = call noundef ptr @_ZN9__gnu_cxx16__aligned_bufferIN5clang29GlobalCodeCompletionAllocatorEE6_M_ptrEv(ptr noundef nonnull align 8 dereferenceable(96) %5) #19
  ret ptr %6
}

; Function Attrs: mustprogress noinline nounwind optnone sspstrong uwtable
define linkonce_odr dso_local void @_ZNSt15__allocated_ptrISaISt23_Sp_counted_ptr_inplaceIN5clang29GlobalCodeCompletionAllocatorESaIvELN9__gnu_cxx12_Lock_policyE2EEEED2Ev(ptr noundef nonnull align 8 dereferenceable(16) %0) unnamed_addr #2 comdat align 2 personality ptr @__gxx_personality_v0 {
  %2 = alloca ptr, align 8
  %3 = alloca ptr, align 8
  %4 = alloca i64, align 8
  %5 = alloca ptr, align 8
  store ptr %0, ptr %5, align 8
  %6 = load ptr, ptr %5, align 8
  %7 = getelementptr inbounds nuw %"struct.std::__allocated_ptr", ptr %6, i32 0, i32 1
  %8 = load ptr, ptr %7, align 8
  %9 = icmp ne ptr %8, null
  br i1 %9, label %10, label %19

10:                                               ; preds = %1
  %11 = getelementptr inbounds nuw %"struct.std::__allocated_ptr", ptr %6, i32 0, i32 0
  %12 = load ptr, ptr %11, align 8
  %13 = getelementptr inbounds nuw %"struct.std::__allocated_ptr", ptr %6, i32 0, i32 1
  %14 = load ptr, ptr %13, align 8
  store ptr %12, ptr %2, align 8
  store ptr %14, ptr %3, align 8
  store i64 1, ptr %4, align 8
  %15 = load ptr, ptr %2, align 8
  %16 = load ptr, ptr %3, align 8
  %17 = load i64, ptr %4, align 8
  call void @_ZNSt15__new_allocatorISt23_Sp_counted_ptr_inplaceIN5clang29GlobalCodeCompletionAllocatorESaIvELN9__gnu_cxx12_Lock_policyE2EEE10deallocateEPS6_m(ptr noundef nonnull align 1 dereferenceable(1) %15, ptr noundef %16, i64 noundef %17)
  br label %18

18:                                               ; preds = %10
  br label %19

19:                                               ; preds = %18, %1
  ret void

20:                                               ; No predecessors!
  %21 = landingpad { ptr, i32 }
          catch ptr null
  %22 = extractvalue { ptr, i32 } %21, 0
  call void @__clang_call_terminate(ptr %22) #21
  unreachable
}

; Function Attrs: mustprogress noinline nounwind optnone sspstrong uwtable
define linkonce_odr dso_local void @_ZNSt15__allocated_ptrISaISt23_Sp_counted_ptr_inplaceIN5clang29GlobalCodeCompletionAllocatorESaIvELN9__gnu_cxx12_Lock_policyE2EEEEC2ERS7_PS6_(ptr noundef nonnull align 8 dereferenceable(16) %0, ptr noundef nonnull align 1 dereferenceable(1) %1, ptr noundef %2) unnamed_addr #2 comdat align 2 {
  %4 = alloca ptr, align 8
  %5 = alloca ptr, align 8
  %6 = alloca ptr, align 8
  store ptr %0, ptr %4, align 8
  store ptr %1, ptr %5, align 8
  store ptr %2, ptr %6, align 8
  %7 = load ptr, ptr %4, align 8
  %8 = getelementptr inbounds nuw %"struct.std::__allocated_ptr", ptr %7, i32 0, i32 0
  %9 = load ptr, ptr %5, align 8
  store ptr %9, ptr %8, align 8
  %10 = getelementptr inbounds nuw %"struct.std::__allocated_ptr", ptr %7, i32 0, i32 1
  %11 = load ptr, ptr %6, align 8
  store ptr %11, ptr %10, align 8
  ret void
}

; Function Attrs: mustprogress noinline optnone sspstrong uwtable
define linkonce_odr dso_local noundef ptr @_ZNSt15__new_allocatorISt23_Sp_counted_ptr_inplaceIN5clang29GlobalCodeCompletionAllocatorESaIvELN9__gnu_cxx12_Lock_policyE2EEE8allocateEmPKv(ptr noundef nonnull align 1 dereferenceable(1) %0, i64 noundef %1, ptr noundef %2) #0 comdat align 2 {
  %4 = alloca ptr, align 8
  %5 = alloca ptr, align 8
  %6 = alloca i64, align 8
  %7 = alloca ptr, align 8
  store ptr %0, ptr %5, align 8
  store i64 %1, ptr %6, align 8
  store ptr %2, ptr %7, align 8
  %8 = load ptr, ptr %5, align 8
  %9 = load i64, ptr %6, align 8
  store ptr %8, ptr %4, align 8
  %10 = load ptr, ptr %4, align 8
  %11 = icmp ugt i64 %9, 82351536043346212
  br i1 %11, label %12, label %17

12:                                               ; preds = %3
  %13 = load i64, ptr %6, align 8
  %14 = icmp ugt i64 %13, 164703072086692425
  br i1 %14, label %15, label %16

15:                                               ; preds = %12
  call void @_ZSt28__throw_bad_array_new_lengthv() #18
  unreachable

16:                                               ; preds = %12
  call void @_ZSt17__throw_bad_allocv() #18
  unreachable

17:                                               ; preds = %3
  %18 = load i64, ptr %6, align 8
  %19 = mul i64 %18, 112
  %20 = call noalias noundef nonnull ptr @_Znwm(i64 noundef %19) #23
  ret ptr %20
}

; Function Attrs: mustprogress noinline nounwind optnone sspstrong uwtable
define linkonce_odr dso_local void @_ZNSt16_Sp_counted_baseILN9__gnu_cxx12_Lock_policyE2EEC2Ev(ptr noundef nonnull align 8 dereferenceable(16) %0) unnamed_addr #2 comdat align 2 {
  %2 = alloca ptr, align 8
  store ptr %0, ptr %2, align 8
  %3 = load ptr, ptr %2, align 8
  store ptr getelementptr inbounds inrange(-16, 40) ({ [7 x ptr] }, ptr @_ZTVSt16_Sp_counted_baseILN9__gnu_cxx12_Lock_policyE2EE, i32 0, i32 0, i32 2), ptr %3, align 8
  %4 = getelementptr inbounds nuw %"class.std::_Sp_counted_base", ptr %3, i32 0, i32 1
  store i32 1, ptr %4, align 8
  %5 = getelementptr inbounds nuw %"class.std::_Sp_counted_base", ptr %3, i32 0, i32 2
  store i32 1, ptr %5, align 4
  ret void
}

; Function Attrs: mustprogress noinline nounwind optnone sspstrong uwtable
