	.file	"CodeCompletion.cpp"
                                        # Start of file scope inline assembly
	.globl	_ZSt21ios_base_library_initv

                                        # End of file scope inline assembly
	.section	.text._ZN5clang23ConstructionContextItem15getKindAsStringENS0_8ItemKindE,"axG",@progbits,_ZN5clang23ConstructionContextItem15getKindAsStringENS0_8ItemKindE,comdat
	.weak	_ZN5clang23ConstructionContextItem15getKindAsStringENS0_8ItemKindE # -- Begin function _ZN5clang23ConstructionContextItem15getKindAsStringENS0_8ItemKindE
	.p2align	4
	.type	_ZN5clang23ConstructionContextItem15getKindAsStringENS0_8ItemKindE,@function
_ZN5clang23ConstructionContextItem15getKindAsStringENS0_8ItemKindE: # @_ZN5clang23ConstructionContextItem15getKindAsStringENS0_8ItemKindE
	.cfi_startproc
# %bb.0:
	pushq	%rbp
	.cfi_def_cfa_offset 16
	.cfi_offset %rbp, -16
	movq	%rsp, %rbp
	.cfi_def_cfa_register %rbp
	subq	$64, %rsp
	movq	%fs:40, %rax
	movq	%rax, -8(%rbp)
	movl	%edi, -28(%rbp)
	movl	-28(%rbp), %eax
                                        # kill: def $rax killed $eax
	movq	%rax, -40(%rbp)                 # 8-byte Spill
	subq	$9, %rax
	ja	.LBB0_11
# %bb.16:
	movq	-40(%rbp), %rax                 # 8-byte Reload
	leaq	.LJTI0_0(%rip), %rcx
	movslq	(%rcx,%rax,4), %rax
	addq	%rcx, %rax
	jmpq	*%rax
.LBB0_1:
	leaq	-24(%rbp), %rdi
	leaq	.L.str(%rip), %rsi
	callq	_ZN4llvm9StringRefC2EPKc
	jmp	.LBB0_13
.LBB0_2:
	leaq	-24(%rbp), %rdi
	leaq	.L.str.1(%rip), %rsi
	callq	_ZN4llvm9StringRefC2EPKc
	jmp	.LBB0_13
.LBB0_3:
	leaq	-24(%rbp), %rdi
	leaq	.L.str.2(%rip), %rsi
	callq	_ZN4llvm9StringRefC2EPKc
	jmp	.LBB0_13
.LBB0_4:
	leaq	-24(%rbp), %rdi
	leaq	.L.str.3(%rip), %rsi
	callq	_ZN4llvm9StringRefC2EPKc
	jmp	.LBB0_13
.LBB0_5:
	leaq	-24(%rbp), %rdi
	leaq	.L.str.4(%rip), %rsi
	callq	_ZN4llvm9StringRefC2EPKc
	jmp	.LBB0_13
.LBB0_6:
	leaq	-24(%rbp), %rdi
	leaq	.L.str.5(%rip), %rsi
	callq	_ZN4llvm9StringRefC2EPKc
	jmp	.LBB0_13
.LBB0_7:
	leaq	-24(%rbp), %rdi
	leaq	.L.str.6(%rip), %rsi
	callq	_ZN4llvm9StringRefC2EPKc
	jmp	.LBB0_13
.LBB0_8:
	leaq	-24(%rbp), %rdi
	leaq	.L.str.7(%rip), %rsi
	callq	_ZN4llvm9StringRefC2EPKc
	jmp	.LBB0_13
.LBB0_9:
	leaq	-24(%rbp), %rdi
	leaq	.L.str.8(%rip), %rsi
	callq	_ZN4llvm9StringRefC2EPKc
	jmp	.LBB0_13
.LBB0_10:
	leaq	-24(%rbp), %rdi
	leaq	.L.str.9(%rip), %rsi
	callq	_ZN4llvm9StringRefC2EPKc
	jmp	.LBB0_13
.LBB0_11:
	movq	%fs:40, %rax
	movq	-8(%rbp), %rcx
	cmpq	%rcx, %rax
	jne	.LBB0_15
# %bb.12:
	leaq	.L.str.10(%rip), %rdi
	leaq	.L.str.11(%rip), %rsi
	movl	$63, %edx
	callq	_ZN4llvm25llvm_unreachable_internalEPKcS1_j@PLT
.LBB0_13:
	movq	-24(%rbp), %rax
	movq	%rax, -56(%rbp)                 # 8-byte Spill
	movq	-16(%rbp), %rax
	movq	%rax, -48(%rbp)                 # 8-byte Spill
	movq	%fs:40, %rax
	movq	-8(%rbp), %rcx
	cmpq	%rcx, %rax
	jne	.LBB0_15
# %bb.14:
	movq	-48(%rbp), %rdx                 # 8-byte Reload
	movq	-56(%rbp), %rax                 # 8-byte Reload
	addq	$64, %rsp
	popq	%rbp
	.cfi_def_cfa %rsp, 8
	retq
.LBB0_15:
	.cfi_def_cfa %rbp, 16
	callq	__stack_chk_fail@PLT
.Lfunc_end0:
	.size	_ZN5clang23ConstructionContextItem15getKindAsStringENS0_8ItemKindE, .Lfunc_end0-_ZN5clang23ConstructionContextItem15getKindAsStringENS0_8ItemKindE
	.cfi_endproc
	.section	.rodata._ZN5clang23ConstructionContextItem15getKindAsStringENS0_8ItemKindE,"aG",@progbits,_ZN5clang23ConstructionContextItem15getKindAsStringENS0_8ItemKindE,comdat
	.p2align	2, 0x0
.LJTI0_0:
	.long	.LBB0_1-.LJTI0_0
	.long	.LBB0_2-.LJTI0_0
	.long	.LBB0_3-.LJTI0_0
	.long	.LBB0_4-.LJTI0_0
	.long	.LBB0_5-.LJTI0_0
	.long	.LBB0_6-.LJTI0_0
	.long	.LBB0_7-.LJTI0_0
	.long	.LBB0_8-.LJTI0_0
	.long	.LBB0_9-.LJTI0_0
	.long	.LBB0_10-.LJTI0_0
                                        # -- End function
	.section	.text._ZN4llvm9StringRefC2EPKc,"axG",@progbits,_ZN4llvm9StringRefC2EPKc,comdat
	.weak	_ZN4llvm9StringRefC2EPKc        # -- Begin function _ZN4llvm9StringRefC2EPKc
	.p2align	4
	.type	_ZN4llvm9StringRefC2EPKc,@function
_ZN4llvm9StringRefC2EPKc:               # @_ZN4llvm9StringRefC2EPKc
	.cfi_startproc
# %bb.0:
	pushq	%rbp
	.cfi_def_cfa_offset 16
	.cfi_offset %rbp, -16
	movq	%rsp, %rbp
	.cfi_def_cfa_register %rbp
	subq	$32, %rsp
	movq	%rdi, -8(%rbp)
	movq	%rsi, -16(%rbp)
	movq	-8(%rbp), %rax
	movq	-16(%rbp), %rcx
	movq	%rcx, (%rax)
	addq	$8, %rax
	movq	%rax, -24(%rbp)                 # 8-byte Spill
	cmpq	$0, -16(%rbp)
	je	.LBB1_2
# %bb.1:
	movq	-16(%rbp), %rdi
	callq	_ZNSt11char_traitsIcE6lengthEPKc
	movq	%rax, -32(%rbp)                 # 8-byte Spill
	jmp	.LBB1_3
.LBB1_2:
	xorl	%eax, %eax
                                        # kill: def $rax killed $eax
	movq	%rax, -32(%rbp)                 # 8-byte Spill
	jmp	.LBB1_3
.LBB1_3:
	movq	-24(%rbp), %rax                 # 8-byte Reload
	movq	-32(%rbp), %rcx                 # 8-byte Reload
	movq	%rcx, (%rax)
	addq	$32, %rsp
	popq	%rbp
	.cfi_def_cfa %rsp, 8
	retq
.Lfunc_end1:
	.size	_ZN4llvm9StringRefC2EPKc, .Lfunc_end1-_ZN4llvm9StringRefC2EPKc
	.cfi_endproc
                                        # -- End function
	.section	.text._ZNK5clang23ConstructionContextItem15getKindAsStringEv,"axG",@progbits,_ZNK5clang23ConstructionContextItem15getKindAsStringEv,comdat
	.weak	_ZNK5clang23ConstructionContextItem15getKindAsStringEv # -- Begin function _ZNK5clang23ConstructionContextItem15getKindAsStringEv
	.p2align	4
	.type	_ZNK5clang23ConstructionContextItem15getKindAsStringEv,@function
_ZNK5clang23ConstructionContextItem15getKindAsStringEv: # @_ZNK5clang23ConstructionContextItem15getKindAsStringEv
	.cfi_startproc
# %bb.0:
	pushq	%rbp
	.cfi_def_cfa_offset 16
	.cfi_offset %rbp, -16
	movq	%rsp, %rbp
	.cfi_def_cfa_register %rbp
	subq	$32, %rsp
	movq	%rdi, -24(%rbp)
	movq	-24(%rbp), %rdi
	callq	_ZNK5clang23ConstructionContextItem7getKindEv
	movl	%eax, %edi
	callq	_ZN5clang23ConstructionContextItem15getKindAsStringENS0_8ItemKindE
	movq	%rax, -16(%rbp)
	movq	%rdx, -8(%rbp)
	movq	-16(%rbp), %rax
	movq	-8(%rbp), %rdx
	addq	$32, %rsp
	popq	%rbp
	.cfi_def_cfa %rsp, 8
	retq
.Lfunc_end2:
	.size	_ZNK5clang23ConstructionContextItem15getKindAsStringEv, .Lfunc_end2-_ZNK5clang23ConstructionContextItem15getKindAsStringEv
	.cfi_endproc
                                        # -- End function
	.section	.text._ZNK5clang23ConstructionContextItem7getKindEv,"axG",@progbits,_ZNK5clang23ConstructionContextItem7getKindEv,comdat
	.weak	_ZNK5clang23ConstructionContextItem7getKindEv # -- Begin function _ZNK5clang23ConstructionContextItem7getKindEv
	.p2align	4
	.type	_ZNK5clang23ConstructionContextItem7getKindEv,@function
_ZNK5clang23ConstructionContextItem7getKindEv: # @_ZNK5clang23ConstructionContextItem7getKindEv
	.cfi_startproc
# %bb.0:
	pushq	%rbp
	.cfi_def_cfa_offset 16
	.cfi_offset %rbp, -16
	movq	%rsp, %rbp
	.cfi_def_cfa_register %rbp
	movq	%rdi, -8(%rbp)
	movq	-8(%rbp), %rax
	movl	8(%rax), %eax
	popq	%rbp
	.cfi_def_cfa %rsp, 8
	retq
.Lfunc_end3:
	.size	_ZNK5clang23ConstructionContextItem7getKindEv, .Lfunc_end3-_ZNK5clang23ConstructionContextItem7getKindEv
	.cfi_endproc
                                        # -- End function
	.text
	.globl	_Z29FindRealLineForCodeCompletionRNSt7__cxx1112basic_stringIcSt11char_traitsIcESaIcEEES5_i # -- Begin function _Z29FindRealLineForCodeCompletionRNSt7__cxx1112basic_stringIcSt11char_traitsIcESaIcEEES5_i
	.p2align	4
	.type	_Z29FindRealLineForCodeCompletionRNSt7__cxx1112basic_stringIcSt11char_traitsIcESaIcEEES5_i,@function
_Z29FindRealLineForCodeCompletionRNSt7__cxx1112basic_stringIcSt11char_traitsIcESaIcEEES5_i: # @_Z29FindRealLineForCodeCompletionRNSt7__cxx1112basic_stringIcSt11char_traitsIcESaIcEEES5_i
.Lfunc_begin0:
	.cfi_startproc
	.cfi_personality 155, DW.ref.__gxx_personality_v0
	.cfi_lsda 27, .Lexception0
# %bb.0:
	pushq	%rbp
	.cfi_def_cfa_offset 16
	.cfi_offset %rbp, -16
	movq	%rsp, %rbp
	.cfi_def_cfa_register %rbp
	subq	$416, %rsp                      # imm = 0x1A0
	movq	%fs:40, %rax
	movq	%rax, -8(%rbp)
	movq	%rdi, -280(%rbp)
	movq	%rsi, -288(%rbp)
	movl	%edx, -292(%rbp)
	movl	$1, -296(%rbp)
	movl	$1, -300(%rbp)
	movb	$0, -301(%rbp)
	movq	-280(%rbp), %rsi
	leaq	-96(%rbp), %rdi
	movl	$10, %edx
	callq	_Z5splitRKNSt7__cxx1112basic_stringIcSt11char_traitsIcESaIcEEEc
	leaq	-96(%rbp), %rax
	movq	%rax, -312(%rbp)
	movq	-312(%rbp), %rdi
	callq	_ZNSt6vectorINSt7__cxx1112basic_stringIcSt11char_traitsIcESaIcEEESaIS5_EE5beginEv
	movq	%rax, -104(%rbp)
	movq	-312(%rbp), %rdi
	callq	_ZNSt6vectorINSt7__cxx1112basic_stringIcSt11char_traitsIcESaIcEEESaIS5_EE3endEv
	movq	%rax, -112(%rbp)
.LBB4_1:                                # =>This Inner Loop Header: Depth=1
	leaq	-104(%rbp), %rax
	movq	%rax, -256(%rbp)
	leaq	-112(%rbp), %rax
	movq	%rax, -264(%rbp)
	movq	-256(%rbp), %rax
	movq	%rax, -176(%rbp)
	movq	-176(%rbp), %rax
	movq	(%rax), %rax
	movq	-264(%rbp), %rcx
	movq	%rcx, -184(%rbp)
	movq	-184(%rbp), %rcx
	cmpq	(%rcx), %rax
	jne	.LBB4_3
# %bb.2:
	movl	$2, -316(%rbp)
	jmp	.LBB4_45
.LBB4_3:                                #   in Loop: Header=BB4_1 Depth=1
	leaq	-104(%rbp), %rax
	movq	%rax, -248(%rbp)
	movq	-248(%rbp), %rax
	movq	(%rax), %rax
	movq	%rax, -328(%rbp)
	movl	-300(%rbp), %eax
	incl	%eax
	movl	%eax, -300(%rbp)
	movl	-296(%rbp), %eax
	incl	%eax
	movl	%eax, -296(%rbp)
	movq	-328(%rbp), %rax
	movq	%rax, -352(%rbp)                # 8-byte Spill
	leaq	-113(%rbp), %rdx
	movq	%rdx, -240(%rbp)
	movq	-240(%rbp), %rax
	movq	%rax, -160(%rbp)
	movb	$0, -341(%rbp)
	movb	$0, -342(%rbp)
.Ltmp0:
	leaq	.L.str.12(%rip), %rsi
	leaq	-40(%rbp), %rdi
	callq	_ZNSt7__cxx1112basic_stringIcSt11char_traitsIcESaIcEEC2IS3_EEPKcRKS3_
.Ltmp1:
	jmp	.LBB4_4
.LBB4_4:                                #   in Loop: Header=BB4_1 Depth=1
.Ltmp3:
	movq	-352(%rbp), %rdi                # 8-byte Reload
	leaq	-40(%rbp), %rsi
	callq	_Z10startsWithRKNSt7__cxx1112basic_stringIcSt11char_traitsIcESaIcEEES6_
.Ltmp4:
	movb	%al, -353(%rbp)                 # 1-byte Spill
	jmp	.LBB4_5
.LBB4_5:                                #   in Loop: Header=BB4_1 Depth=1
	movb	-353(%rbp), %cl                 # 1-byte Reload
	movb	$1, %al
	testb	$1, %cl
	movb	%al, -354(%rbp)                 # 1-byte Spill
	jne	.LBB4_9
	jmp	.LBB4_6
.LBB4_6:                                #   in Loop: Header=BB4_1 Depth=1
	movq	-328(%rbp), %rax
	movq	%rax, -368(%rbp)                # 8-byte Spill
	leaq	-114(%rbp), %rdx
	movq	%rdx, -232(%rbp)
	movq	-232(%rbp), %rax
	movq	%rax, -168(%rbp)
	movb	$1, -341(%rbp)
.Ltmp6:
	leaq	.L.str.13(%rip), %rsi
	leaq	-72(%rbp), %rdi
	callq	_ZNSt7__cxx1112basic_stringIcSt11char_traitsIcESaIcEEC2IS3_EEPKcRKS3_
.Ltmp7:
	jmp	.LBB4_7
.LBB4_7:                                #   in Loop: Header=BB4_1 Depth=1
	movq	-368(%rbp), %rdi                # 8-byte Reload
	movb	$1, -342(%rbp)
.Ltmp9:
	leaq	-72(%rbp), %rsi
	callq	_Z10startsWithRKNSt7__cxx1112basic_stringIcSt11char_traitsIcESaIcEEES6_
.Ltmp10:
	movb	%al, -369(%rbp)                 # 1-byte Spill
	jmp	.LBB4_8
.LBB4_8:                                #   in Loop: Header=BB4_1 Depth=1
	movb	-369(%rbp), %al                 # 1-byte Reload
	movb	%al, -354(%rbp)                 # 1-byte Spill
	jmp	.LBB4_9
.LBB4_9:                                #   in Loop: Header=BB4_1 Depth=1
	movb	-354(%rbp), %al                 # 1-byte Reload
	movb	%al, -370(%rbp)                 # 1-byte Spill
	testb	$1, -342(%rbp)
	jne	.LBB4_10
	jmp	.LBB4_11
.LBB4_10:                               #   in Loop: Header=BB4_1 Depth=1
	leaq	-72(%rbp), %rdi
	callq	_ZNSt7__cxx1112basic_stringIcSt11char_traitsIcESaIcEED2Ev
.LBB4_11:                               #   in Loop: Header=BB4_1 Depth=1
	testb	$1, -341(%rbp)
	jne	.LBB4_12
	jmp	.LBB4_13
.LBB4_12:                               #   in Loop: Header=BB4_1 Depth=1
	leaq	-114(%rbp), %rax
	movq	%rax, -224(%rbp)
	movq	-224(%rbp), %rdi
	callq	_ZNSt15__new_allocatorIcED2Ev
.LBB4_13:                               #   in Loop: Header=BB4_1 Depth=1
	leaq	-40(%rbp), %rdi
	callq	_ZNSt7__cxx1112basic_stringIcSt11char_traitsIcESaIcEED2Ev
	leaq	-113(%rbp), %rax
	movq	%rax, -208(%rbp)
	movq	-208(%rbp), %rdi
	callq	_ZNSt15__new_allocatorIcED2Ev
	movb	-370(%rbp), %al                 # 1-byte Reload
	testb	$1, %al
	jne	.LBB4_14
	jmp	.LBB4_35
.LBB4_14:                               #   in Loop: Header=BB4_1 Depth=1
	movq	-328(%rbp), %rsi
.Ltmp12:
	leaq	-144(%rbp), %rdi
	movl	$32, %edx
	callq	_Z5splitRKNSt7__cxx1112basic_stringIcSt11char_traitsIcESaIcEEEc
.Ltmp13:
	jmp	.LBB4_15
.LBB4_15:                               #   in Loop: Header=BB4_1 Depth=1
	leaq	-144(%rbp), %rdi
	movl	$1, %esi
	callq	_ZNSt6vectorINSt7__cxx1112basic_stringIcSt11char_traitsIcESaIcEEESaIS5_EEixEm
	movq	%rax, %rdi
.Ltmp14:
	leaq	-148(%rbp), %rsi
	callq	_Z11stringToIntRKNSt7__cxx1112basic_stringIcSt11char_traitsIcESaIcEEEPi
.Ltmp15:
	movb	%al, -371(%rbp)                 # 1-byte Spill
	jmp	.LBB4_16
.LBB4_16:                               #   in Loop: Header=BB4_1 Depth=1
	movb	-371(%rbp), %al                 # 1-byte Reload
	testb	$1, %al
	jne	.LBB4_17
	jmp	.LBB4_31
.LBB4_17:                               #   in Loop: Header=BB4_1 Depth=1
	movl	-148(%rbp), %eax
	movl	%eax, -296(%rbp)
	jmp	.LBB4_31
.LBB4_18:
.Ltmp2:
	movq	%rax, %rcx
	movl	%edx, %eax
	movq	%rcx, -336(%rbp)
	movl	%eax, -340(%rbp)
	jmp	.LBB4_28
.LBB4_19:
.Ltmp5:
	movq	%rax, %rcx
	movl	%edx, %eax
	movq	%rcx, -336(%rbp)
	movl	%eax, -340(%rbp)
	jmp	.LBB4_27
.LBB4_20:
.Ltmp8:
	movq	%rax, %rcx
	movl	%edx, %eax
	movq	%rcx, -336(%rbp)
	movl	%eax, -340(%rbp)
	jmp	.LBB4_24
.LBB4_21:
.Ltmp11:
	movq	%rax, %rcx
	movl	%edx, %eax
	movq	%rcx, -336(%rbp)
	movl	%eax, -340(%rbp)
	testb	$1, -342(%rbp)
	jne	.LBB4_22
	jmp	.LBB4_23
.LBB4_22:
	leaq	-72(%rbp), %rdi
	callq	_ZNSt7__cxx1112basic_stringIcSt11char_traitsIcESaIcEED2Ev
.LBB4_23:
	jmp	.LBB4_24
.LBB4_24:
	testb	$1, -341(%rbp)
	jne	.LBB4_25
	jmp	.LBB4_26
.LBB4_25:
	leaq	-114(%rbp), %rax
	movq	%rax, -216(%rbp)
	movq	-216(%rbp), %rdi
	callq	_ZNSt15__new_allocatorIcED2Ev
.LBB4_26:
	jmp	.LBB4_27
.LBB4_27:
	leaq	-40(%rbp), %rdi
	callq	_ZNSt7__cxx1112basic_stringIcSt11char_traitsIcESaIcEED2Ev
.LBB4_28:
	leaq	-113(%rbp), %rax
	movq	%rax, -200(%rbp)
	movq	-200(%rbp), %rdi
	callq	_ZNSt15__new_allocatorIcED2Ev
	jmp	.LBB4_46
.LBB4_29:
.Ltmp23:
	movq	%rax, %rcx
	movl	%edx, %eax
	movq	%rcx, -336(%rbp)
	movl	%eax, -340(%rbp)
	jmp	.LBB4_46
.LBB4_30:
.Ltmp16:
	movq	%rax, %rcx
	movl	%edx, %eax
	movq	%rcx, -336(%rbp)
	movl	%eax, -340(%rbp)
	leaq	-144(%rbp), %rdi
	callq	_ZNSt6vectorINSt7__cxx1112basic_stringIcSt11char_traitsIcESaIcEEESaIS5_EED2Ev
	jmp	.LBB4_46
.LBB4_31:                               #   in Loop: Header=BB4_1 Depth=1
	leaq	-144(%rbp), %rdi
	movl	$2, %esi
	callq	_ZNSt6vectorINSt7__cxx1112basic_stringIcSt11char_traitsIcESaIcEEESaIS5_EEixEm
	movq	%rax, %rdi
	movq	-288(%rbp), %rsi
	xorl	%eax, %eax
	movl	%eax, %edx
	callq	_ZNKSt7__cxx1112basic_stringIcSt11char_traitsIcESaIcEE4findERKS4_m
	cmpq	$-1, %rax
	je	.LBB4_33
# %bb.32:                               #   in Loop: Header=BB4_1 Depth=1
	movb	$1, -301(%rbp)
	jmp	.LBB4_34
.LBB4_33:                               #   in Loop: Header=BB4_1 Depth=1
	movb	$0, -301(%rbp)
.LBB4_34:                               #   in Loop: Header=BB4_1 Depth=1
	leaq	-144(%rbp), %rdi
	callq	_ZNSt6vectorINSt7__cxx1112basic_stringIcSt11char_traitsIcESaIcEEESaIS5_EED2Ev
.LBB4_35:                               #   in Loop: Header=BB4_1 Depth=1
	testb	$1, -301(%rbp)
	je	.LBB4_43
# %bb.36:                               #   in Loop: Header=BB4_1 Depth=1
	movl	-296(%rbp), %eax
	cmpl	-292(%rbp), %eax
	jne	.LBB4_43
# %bb.37:
	movq	debugOutput@GOTPCREL(%rip), %rax
	testb	$1, (%rax)
	je	.LBB4_42
# %bb.38:
.Ltmp17:
	movq	_ZSt4cerr@GOTPCREL(%rip), %rdi
	leaq	.L.str.14(%rip), %rsi
	callq	_ZStlsISt11char_traitsIcEERSt13basic_ostreamIcT_ES5_PKc@PLT
.Ltmp18:
	movq	%rax, -384(%rbp)                # 8-byte Spill
	jmp	.LBB4_39
.LBB4_39:
	movq	-384(%rbp), %rdi                # 8-byte Reload
	movl	-300(%rbp), %esi
.Ltmp19:
	callq	_ZNSolsEi@PLT
.Ltmp20:
	movq	%rax, -392(%rbp)                # 8-byte Spill
	jmp	.LBB4_40
.LBB4_40:
.Ltmp21:
	movq	-392(%rbp), %rdi                # 8-byte Reload
	leaq	.L.str.15(%rip), %rsi
	callq	_ZStlsISt11char_traitsIcEERSt13basic_ostreamIcT_ES5_PKc@PLT
.Ltmp22:
	jmp	.LBB4_41
.LBB4_41:
	jmp	.LBB4_42
.LBB4_42:
	movl	-300(%rbp), %eax
	movl	%eax, -268(%rbp)
	movl	$1, -316(%rbp)
	jmp	.LBB4_45
.LBB4_43:                               #   in Loop: Header=BB4_1 Depth=1
	jmp	.LBB4_44
.LBB4_44:                               #   in Loop: Header=BB4_1 Depth=1
	leaq	-104(%rbp), %rax
	movq	%rax, -192(%rbp)
	movq	-192(%rbp), %rax
	movq	(%rax), %rcx
	addq	$32, %rcx
	movq	%rcx, (%rax)
	jmp	.LBB4_1
.LBB4_45:
	leaq	-96(%rbp), %rdi
	callq	_ZNSt6vectorINSt7__cxx1112basic_stringIcSt11char_traitsIcESaIcEEESaIS5_EED2Ev
	movl	-316(%rbp), %eax
	subl	$1, %eax
	je	.LBB4_50
	jmp	.LBB4_56
.LBB4_56:
	jmp	.LBB4_47
.LBB4_46:
	leaq	-96(%rbp), %rdi
	callq	_ZNSt6vectorINSt7__cxx1112basic_stringIcSt11char_traitsIcESaIcEEESaIS5_EED2Ev
	jmp	.LBB4_52
.LBB4_47:
	movq	debugOutput@GOTPCREL(%rip), %rax
	testb	$1, (%rax)
	je	.LBB4_49
# %bb.48:
	movq	_ZSt4cerr@GOTPCREL(%rip), %rdi
	leaq	.L.str.16(%rip), %rsi
	callq	_ZStlsISt11char_traitsIcEERSt13basic_ostreamIcT_ES5_PKc@PLT
.LBB4_49:
	movl	$-1, -268(%rbp)
.LBB4_50:
	movl	-268(%rbp), %eax
	movl	%eax, -396(%rbp)                # 4-byte Spill
	movq	%fs:40, %rax
	movq	-8(%rbp), %rcx
	cmpq	%rcx, %rax
	jne	.LBB4_55
# %bb.51:
	movl	-396(%rbp), %eax                # 4-byte Reload
	addq	$416, %rsp                      # imm = 0x1A0
	popq	%rbp
	.cfi_def_cfa %rsp, 8
	retq
.LBB4_52:
	.cfi_def_cfa %rbp, 16
	movq	-336(%rbp), %rax
	movq	%rax, -408(%rbp)                # 8-byte Spill
	movq	%fs:40, %rax
	movq	-8(%rbp), %rcx
	cmpq	%rcx, %rax
	jne	.LBB4_55
# %bb.53:
	movq	-408(%rbp), %rdi                # 8-byte Reload
	callq	_Unwind_Resume@PLT
# %bb.54:
	.cfi_def_cfa %rsp, 8
	.cfi_restore %rbp
.LBB4_55:
	.cfi_def_cfa %rbp, 16
	.cfi_offset %rbp, -16
	callq	__stack_chk_fail@PLT
.Lfunc_end4:
	.size	_Z29FindRealLineForCodeCompletionRNSt7__cxx1112basic_stringIcSt11char_traitsIcESaIcEEES5_i, .Lfunc_end4-_Z29FindRealLineForCodeCompletionRNSt7__cxx1112basic_stringIcSt11char_traitsIcESaIcEEES5_i
	.cfi_endproc
	.section	.gcc_except_table,"a",@progbits
	.p2align	2, 0x0
GCC_except_table4:
.Lexception0:
	.byte	255                             # @LPStart Encoding = omit
	.byte	255                             # @TType Encoding = omit
	.byte	1                               # Call site Encoding = uleb128
	.uleb128 .Lcst_end0-.Lcst_begin0
.Lcst_begin0:
	.uleb128 .Lfunc_begin0-.Lfunc_begin0    # >> Call Site 1 <<
	.uleb128 .Ltmp0-.Lfunc_begin0           #   Call between .Lfunc_begin0 and .Ltmp0
	.byte	0                               #     has no landing pad
	.byte	0                               #   On action: cleanup
	.uleb128 .Ltmp0-.Lfunc_begin0           # >> Call Site 2 <<
	.uleb128 .Ltmp1-.Ltmp0                  #   Call between .Ltmp0 and .Ltmp1
	.uleb128 .Ltmp2-.Lfunc_begin0           #     jumps to .Ltmp2
	.byte	0                               #   On action: cleanup
	.uleb128 .Ltmp3-.Lfunc_begin0           # >> Call Site 3 <<
	.uleb128 .Ltmp4-.Ltmp3                  #   Call between .Ltmp3 and .Ltmp4
	.uleb128 .Ltmp5-.Lfunc_begin0           #     jumps to .Ltmp5
	.byte	0                               #   On action: cleanup
	.uleb128 .Ltmp6-.Lfunc_begin0           # >> Call Site 4 <<
	.uleb128 .Ltmp7-.Ltmp6                  #   Call between .Ltmp6 and .Ltmp7
	.uleb128 .Ltmp8-.Lfunc_begin0           #     jumps to .Ltmp8
	.byte	0                               #   On action: cleanup
	.uleb128 .Ltmp9-.Lfunc_begin0           # >> Call Site 5 <<
	.uleb128 .Ltmp10-.Ltmp9                 #   Call between .Ltmp9 and .Ltmp10
	.uleb128 .Ltmp11-.Lfunc_begin0          #     jumps to .Ltmp11
	.byte	0                               #   On action: cleanup
	.uleb128 .Ltmp12-.Lfunc_begin0          # >> Call Site 6 <<
	.uleb128 .Ltmp13-.Ltmp12                #   Call between .Ltmp12 and .Ltmp13
	.uleb128 .Ltmp23-.Lfunc_begin0          #     jumps to .Ltmp23
	.byte	0                               #   On action: cleanup
	.uleb128 .Ltmp14-.Lfunc_begin0          # >> Call Site 7 <<
	.uleb128 .Ltmp15-.Ltmp14                #   Call between .Ltmp14 and .Ltmp15
	.uleb128 .Ltmp16-.Lfunc_begin0          #     jumps to .Ltmp16
	.byte	0                               #   On action: cleanup
	.uleb128 .Ltmp17-.Lfunc_begin0          # >> Call Site 8 <<
	.uleb128 .Ltmp22-.Ltmp17                #   Call between .Ltmp17 and .Ltmp22
	.uleb128 .Ltmp23-.Lfunc_begin0          #     jumps to .Ltmp23
	.byte	0                               #   On action: cleanup
	.uleb128 .Ltmp22-.Lfunc_begin0          # >> Call Site 9 <<
	.uleb128 .Lfunc_end4-.Ltmp22            #   Call between .Ltmp22 and .Lfunc_end4
	.byte	0                               #     has no landing pad
	.byte	0                               #   On action: cleanup
.Lcst_end0:
	.p2align	2, 0x0
                                        # -- End function
	.section	.text._Z5splitRKNSt7__cxx1112basic_stringIcSt11char_traitsIcESaIcEEEc,"axG",@progbits,_Z5splitRKNSt7__cxx1112basic_stringIcSt11char_traitsIcESaIcEEEc,comdat
	.weak	_Z5splitRKNSt7__cxx1112basic_stringIcSt11char_traitsIcESaIcEEEc # -- Begin function _Z5splitRKNSt7__cxx1112basic_stringIcSt11char_traitsIcESaIcEEEc
	.p2align	4
	.type	_Z5splitRKNSt7__cxx1112basic_stringIcSt11char_traitsIcESaIcEEEc,@function
_Z5splitRKNSt7__cxx1112basic_stringIcSt11char_traitsIcESaIcEEEc: # @_Z5splitRKNSt7__cxx1112basic_stringIcSt11char_traitsIcESaIcEEEc
.Lfunc_begin1:
	.cfi_startproc
	.cfi_personality 155, DW.ref.__gxx_personality_v0
	.cfi_lsda 27, .Lexception1
# %bb.0:
	pushq	%rbp
	.cfi_def_cfa_offset 16
	.cfi_offset %rbp, -16
	movq	%rsp, %rbp
	.cfi_def_cfa_register %rbp
	subq	$512, %rsp                      # imm = 0x200
	movq	%rdi, -480(%rbp)                # 8-byte Spill
	movb	%dl, %al
	movq	%rdi, %rcx
	movq	%rcx, -472(%rbp)                # 8-byte Spill
	movq	%fs:40, %rcx
	movq	%rcx, -8(%rbp)
	movq	%rdi, -432(%rbp)
	movq	%rsi, -440(%rbp)
	movb	%al, -441(%rbp)
	movb	$0, -442(%rbp)
	callq	_ZNSt6vectorINSt7__cxx1112basic_stringIcSt11char_traitsIcESaIcEEESaIS5_EEC2Ev
	movq	-440(%rbp), %rsi
.Ltmp24:
	leaq	-392(%rbp), %rdi
	movl	$8, %edx
	callq	_ZNSt7__cxx1119basic_istringstreamIcSt11char_traitsIcESaIcEEC1ERKNS_12basic_stringIcS2_S3_EESt13_Ios_Openmode@PLT
.Ltmp25:
	jmp	.LBB5_1
.LBB5_1:
	leaq	-424(%rbp), %rdi
	callq	_ZNSt7__cxx1112basic_stringIcSt11char_traitsIcESaIcEEC2Ev
.LBB5_2:                                # =>This Inner Loop Header: Depth=1
	movsbl	-441(%rbp), %edx
.Ltmp27:
	leaq	-392(%rbp), %rdi
	leaq	-424(%rbp), %rsi
	callq	_ZSt7getlineIcSt11char_traitsIcESaIcEERSt13basic_istreamIT_T0_ES7_RNSt7__cxx1112basic_stringIS4_S5_T1_EES4_@PLT
.Ltmp28:
	movq	%rax, -488(%rbp)                # 8-byte Spill
	jmp	.LBB5_3
.LBB5_3:                                #   in Loop: Header=BB5_2 Depth=1
	movq	-488(%rbp), %rdi                # 8-byte Reload
	movq	(%rdi), %rax
	movq	-24(%rax), %rax
	addq	%rax, %rdi
.Ltmp29:
	callq	_ZNKSt9basic_iosIcSt11char_traitsIcEEcvbEv@PLT
.Ltmp30:
	movb	%al, -489(%rbp)                 # 1-byte Spill
	jmp	.LBB5_4
.LBB5_4:                                #   in Loop: Header=BB5_2 Depth=1
	movb	-489(%rbp), %al                 # 1-byte Reload
	testb	$1, %al
	jne	.LBB5_5
	jmp	.LBB5_9
.LBB5_5:                                #   in Loop: Header=BB5_2 Depth=1
.Ltmp31:
	movq	-480(%rbp), %rdi                # 8-byte Reload
	leaq	-424(%rbp), %rsi
	callq	_ZNSt6vectorINSt7__cxx1112basic_stringIcSt11char_traitsIcESaIcEEESaIS5_EE9push_backERKS5_
.Ltmp32:
	jmp	.LBB5_6
.LBB5_6:                                #   in Loop: Header=BB5_2 Depth=1
	jmp	.LBB5_2
.LBB5_7:
.Ltmp26:
	movq	%rax, %rcx
	movl	%edx, %eax
	movq	%rcx, -456(%rbp)
	movl	%eax, -460(%rbp)
	jmp	.LBB5_13
.LBB5_8:
.Ltmp33:
	movq	%rax, %rcx
	movl	%edx, %eax
	movq	%rcx, -456(%rbp)
	movl	%eax, -460(%rbp)
	leaq	-424(%rbp), %rdi
	callq	_ZNSt7__cxx1112basic_stringIcSt11char_traitsIcESaIcEED2Ev
	leaq	-392(%rbp), %rdi
	callq	_ZNSt7__cxx1119basic_istringstreamIcSt11char_traitsIcESaIcEED1Ev@PLT
	jmp	.LBB5_13
.LBB5_9:
	movb	$1, -442(%rbp)
	leaq	-424(%rbp), %rdi
	callq	_ZNSt7__cxx1112basic_stringIcSt11char_traitsIcESaIcEED2Ev
	leaq	-392(%rbp), %rdi
	callq	_ZNSt7__cxx1119basic_istringstreamIcSt11char_traitsIcESaIcEED1Ev@PLT
	testb	$1, -442(%rbp)
	jne	.LBB5_11
# %bb.10:
	movq	-480(%rbp), %rdi                # 8-byte Reload
	callq	_ZNSt6vectorINSt7__cxx1112basic_stringIcSt11char_traitsIcESaIcEEESaIS5_EED2Ev
.LBB5_11:
	movq	%fs:40, %rax
	movq	-8(%rbp), %rcx
	cmpq	%rcx, %rax
	jne	.LBB5_16
# %bb.12:
	movq	-472(%rbp), %rax                # 8-byte Reload
	addq	$512, %rsp                      # imm = 0x200
	popq	%rbp
	.cfi_def_cfa %rsp, 8
	retq
.LBB5_13:
	.cfi_def_cfa %rbp, 16
	movq	-480(%rbp), %rdi                # 8-byte Reload
	callq	_ZNSt6vectorINSt7__cxx1112basic_stringIcSt11char_traitsIcESaIcEEESaIS5_EED2Ev
# %bb.14:
	movq	-456(%rbp), %rax
	movq	%rax, -504(%rbp)                # 8-byte Spill
	movq	%fs:40, %rax
	movq	-8(%rbp), %rcx
	cmpq	%rcx, %rax
	jne	.LBB5_16
# %bb.15:
	movq	-504(%rbp), %rdi                # 8-byte Reload
	callq	_Unwind_Resume@PLT
.LBB5_16:
	callq	__stack_chk_fail@PLT
.Lfunc_end5:
	.size	_Z5splitRKNSt7__cxx1112basic_stringIcSt11char_traitsIcESaIcEEEc, .Lfunc_end5-_Z5splitRKNSt7__cxx1112basic_stringIcSt11char_traitsIcESaIcEEEc
	.cfi_endproc
	.section	.gcc_except_table._Z5splitRKNSt7__cxx1112basic_stringIcSt11char_traitsIcESaIcEEEc,"aG",@progbits,_Z5splitRKNSt7__cxx1112basic_stringIcSt11char_traitsIcESaIcEEEc,comdat
	.p2align	2, 0x0
GCC_except_table5:
.Lexception1:
	.byte	255                             # @LPStart Encoding = omit
	.byte	255                             # @TType Encoding = omit
	.byte	1                               # Call site Encoding = uleb128
	.uleb128 .Lcst_end1-.Lcst_begin1
.Lcst_begin1:
	.uleb128 .Ltmp24-.Lfunc_begin1          # >> Call Site 1 <<
	.uleb128 .Ltmp25-.Ltmp24                #   Call between .Ltmp24 and .Ltmp25
	.uleb128 .Ltmp26-.Lfunc_begin1          #     jumps to .Ltmp26
	.byte	0                               #   On action: cleanup
	.uleb128 .Ltmp27-.Lfunc_begin1          # >> Call Site 2 <<
	.uleb128 .Ltmp32-.Ltmp27                #   Call between .Ltmp27 and .Ltmp32
	.uleb128 .Ltmp33-.Lfunc_begin1          #     jumps to .Ltmp33
	.byte	0                               #   On action: cleanup
	.uleb128 .Ltmp32-.Lfunc_begin1          # >> Call Site 3 <<
	.uleb128 .Lfunc_end5-.Ltmp32            #   Call between .Ltmp32 and .Lfunc_end5
	.byte	0                               #     has no landing pad
	.byte	0                               #   On action: cleanup
.Lcst_end1:
	.p2align	2, 0x0
                                        # -- End function
	.section	.text._ZNSt6vectorINSt7__cxx1112basic_stringIcSt11char_traitsIcESaIcEEESaIS5_EE5beginEv,"axG",@progbits,_ZNSt6vectorINSt7__cxx1112basic_stringIcSt11char_traitsIcESaIcEEESaIS5_EE5beginEv,comdat
	.weak	_ZNSt6vectorINSt7__cxx1112basic_stringIcSt11char_traitsIcESaIcEEESaIS5_EE5beginEv # -- Begin function _ZNSt6vectorINSt7__cxx1112basic_stringIcSt11char_traitsIcESaIcEEESaIS5_EE5beginEv
	.p2align	4
	.type	_ZNSt6vectorINSt7__cxx1112basic_stringIcSt11char_traitsIcESaIcEEESaIS5_EE5beginEv,@function
_ZNSt6vectorINSt7__cxx1112basic_stringIcSt11char_traitsIcESaIcEEESaIS5_EE5beginEv: # @_ZNSt6vectorINSt7__cxx1112basic_stringIcSt11char_traitsIcESaIcEEESaIS5_EE5beginEv
	.cfi_startproc
# %bb.0:
	pushq	%rbp
	.cfi_def_cfa_offset 16
	.cfi_offset %rbp, -16
	movq	%rsp, %rbp
	.cfi_def_cfa_register %rbp
	subq	$48, %rsp
	movq	%fs:40, %rax
	movq	%rax, -8(%rbp)
	movq	%rdi, -40(%rbp)
	movq	-40(%rbp), %rax
	leaq	-16(%rbp), %rcx
	movq	%rcx, -24(%rbp)
	movq	%rax, -32(%rbp)
	movq	-24(%rbp), %rax
	movq	-32(%rbp), %rcx
	movq	(%rcx), %rcx
	movq	%rcx, (%rax)
	movq	-16(%rbp), %rax
	movq	%rax, -48(%rbp)                 # 8-byte Spill
	movq	%fs:40, %rax
	movq	-8(%rbp), %rcx
	cmpq	%rcx, %rax
	jne	.LBB6_2
# %bb.1:
	movq	-48(%rbp), %rax                 # 8-byte Reload
	addq	$48, %rsp
	popq	%rbp
	.cfi_def_cfa %rsp, 8
	retq
.LBB6_2:
	.cfi_def_cfa %rbp, 16
	callq	__stack_chk_fail@PLT
.Lfunc_end6:
	.size	_ZNSt6vectorINSt7__cxx1112basic_stringIcSt11char_traitsIcESaIcEEESaIS5_EE5beginEv, .Lfunc_end6-_ZNSt6vectorINSt7__cxx1112basic_stringIcSt11char_traitsIcESaIcEEESaIS5_EE5beginEv
	.cfi_endproc
                                        # -- End function
	.section	.text._ZNSt6vectorINSt7__cxx1112basic_stringIcSt11char_traitsIcESaIcEEESaIS5_EE3endEv,"axG",@progbits,_ZNSt6vectorINSt7__cxx1112basic_stringIcSt11char_traitsIcESaIcEEESaIS5_EE3endEv,comdat
	.weak	_ZNSt6vectorINSt7__cxx1112basic_stringIcSt11char_traitsIcESaIcEEESaIS5_EE3endEv # -- Begin function _ZNSt6vectorINSt7__cxx1112basic_stringIcSt11char_traitsIcESaIcEEESaIS5_EE3endEv
	.p2align	4
	.type	_ZNSt6vectorINSt7__cxx1112basic_stringIcSt11char_traitsIcESaIcEEESaIS5_EE3endEv,@function
_ZNSt6vectorINSt7__cxx1112basic_stringIcSt11char_traitsIcESaIcEEESaIS5_EE3endEv: # @_ZNSt6vectorINSt7__cxx1112basic_stringIcSt11char_traitsIcESaIcEEESaIS5_EE3endEv
	.cfi_startproc
# %bb.0:
	pushq	%rbp
	.cfi_def_cfa_offset 16
	.cfi_offset %rbp, -16
	movq	%rsp, %rbp
	.cfi_def_cfa_register %rbp
	subq	$48, %rsp
	movq	%fs:40, %rax
	movq	%rax, -8(%rbp)
	movq	%rdi, -40(%rbp)
	movq	-40(%rbp), %rax
	addq	$8, %rax
	leaq	-16(%rbp), %rcx
	movq	%rcx, -24(%rbp)
	movq	%rax, -32(%rbp)
	movq	-24(%rbp), %rax
	movq	-32(%rbp), %rcx
	movq	(%rcx), %rcx
	movq	%rcx, (%rax)
	movq	-16(%rbp), %rax
	movq	%rax, -48(%rbp)                 # 8-byte Spill
	movq	%fs:40, %rax
	movq	-8(%rbp), %rcx
	cmpq	%rcx, %rax
	jne	.LBB7_2
# %bb.1:
	movq	-48(%rbp), %rax                 # 8-byte Reload
	addq	$48, %rsp
	popq	%rbp
	.cfi_def_cfa %rsp, 8
	retq
.LBB7_2:
	.cfi_def_cfa %rbp, 16
	callq	__stack_chk_fail@PLT
.Lfunc_end7:
	.size	_ZNSt6vectorINSt7__cxx1112basic_stringIcSt11char_traitsIcESaIcEEESaIS5_EE3endEv, .Lfunc_end7-_ZNSt6vectorINSt7__cxx1112basic_stringIcSt11char_traitsIcESaIcEEESaIS5_EE3endEv
	.cfi_endproc
                                        # -- End function
	.section	.text._Z10startsWithRKNSt7__cxx1112basic_stringIcSt11char_traitsIcESaIcEEES6_,"axG",@progbits,_Z10startsWithRKNSt7__cxx1112basic_stringIcSt11char_traitsIcESaIcEEES6_,comdat
	.weak	_Z10startsWithRKNSt7__cxx1112basic_stringIcSt11char_traitsIcESaIcEEES6_ # -- Begin function _Z10startsWithRKNSt7__cxx1112basic_stringIcSt11char_traitsIcESaIcEEES6_
	.p2align	4
	.type	_Z10startsWithRKNSt7__cxx1112basic_stringIcSt11char_traitsIcESaIcEEES6_,@function
_Z10startsWithRKNSt7__cxx1112basic_stringIcSt11char_traitsIcESaIcEEES6_: # @_Z10startsWithRKNSt7__cxx1112basic_stringIcSt11char_traitsIcESaIcEEES6_
	.cfi_startproc
# %bb.0:
	pushq	%rbp
	.cfi_def_cfa_offset 16
	.cfi_offset %rbp, -16
	movq	%rsp, %rbp
	.cfi_def_cfa_register %rbp
	subq	$32, %rsp
	movq	%rdi, -8(%rbp)
	movq	%rsi, -16(%rbp)
	movq	-16(%rbp), %rdi
	callq	_ZNKSt7__cxx1112basic_stringIcSt11char_traitsIcESaIcEE6lengthEv
                                        # kill: def $eax killed $eax killed $rax
	movl	%eax, -20(%rbp)
	movq	-8(%rbp), %rax
	movq	%rax, -32(%rbp)                 # 8-byte Spill
	movq	-16(%rbp), %rdi
	callq	_ZNKSt7__cxx1112basic_stringIcSt11char_traitsIcESaIcEE5c_strEv
	movq	-32(%rbp), %rdi                 # 8-byte Reload
	movq	%rax, %rsi
	movslq	-20(%rbp), %rcx
	xorl	%eax, %eax
	movl	%eax, %edx
	callq	_ZNKSt7__cxx1112basic_stringIcSt11char_traitsIcESaIcEE4findEPKcmm
	cmpq	$0, %rax
	sete	%al
	andb	$1, %al
	addq	$32, %rsp
	popq	%rbp
	.cfi_def_cfa %rsp, 8
	retq
.Lfunc_end8:
	.size	_Z10startsWithRKNSt7__cxx1112basic_stringIcSt11char_traitsIcESaIcEEES6_, .Lfunc_end8-_Z10startsWithRKNSt7__cxx1112basic_stringIcSt11char_traitsIcESaIcEEES6_
	.cfi_endproc
                                        # -- End function
	.section	.text._ZNSt7__cxx1112basic_stringIcSt11char_traitsIcESaIcEEC2IS3_EEPKcRKS3_,"axG",@progbits,_ZNSt7__cxx1112basic_stringIcSt11char_traitsIcESaIcEEC2IS3_EEPKcRKS3_,comdat
	.weak	_ZNSt7__cxx1112basic_stringIcSt11char_traitsIcESaIcEEC2IS3_EEPKcRKS3_ # -- Begin function _ZNSt7__cxx1112basic_stringIcSt11char_traitsIcESaIcEEC2IS3_EEPKcRKS3_
	.p2align	4
	.type	_ZNSt7__cxx1112basic_stringIcSt11char_traitsIcESaIcEEC2IS3_EEPKcRKS3_,@function
_ZNSt7__cxx1112basic_stringIcSt11char_traitsIcESaIcEEC2IS3_EEPKcRKS3_: # @_ZNSt7__cxx1112basic_stringIcSt11char_traitsIcESaIcEEC2IS3_EEPKcRKS3_
.Lfunc_begin2:
	.cfi_startproc
	.cfi_personality 155, DW.ref.__gxx_personality_v0
	.cfi_lsda 27, .Lexception2
# %bb.0:
	pushq	%rbp
	.cfi_def_cfa_offset 16
	.cfi_offset %rbp, -16
	movq	%rsp, %rbp
	.cfi_def_cfa_register %rbp
	subq	$80, %rsp
	movq	%rdi, -8(%rbp)
	movq	%rsi, -16(%rbp)
	movq	%rdx, -24(%rbp)
	movq	-8(%rbp), %rdi
	movq	%rdi, -64(%rbp)                 # 8-byte Spill
	callq	_ZNSt7__cxx1112basic_stringIcSt11char_traitsIcESaIcEE13_M_local_dataEv
	movq	-64(%rbp), %rdi                 # 8-byte Reload
	movq	%rax, %rsi
	movq	-24(%rbp), %rdx
	callq	_ZNSt7__cxx1112basic_stringIcSt11char_traitsIcESaIcEE12_Alloc_hiderC2EPcRKS3_
	cmpq	$0, -16(%rbp)
	jne	.LBB9_4
# %bb.1:
.Ltmp36:
	leaq	.L.str.98(%rip), %rdi
	callq	_ZSt19__throw_logic_errorPKc@PLT
.Ltmp37:
	jmp	.LBB9_2
.LBB9_2:
.LBB9_3:
.Ltmp38:
	movq	-64(%rbp), %rdi                 # 8-byte Reload
	movq	%rax, %rcx
	movl	%edx, %eax
	movq	%rcx, -32(%rbp)
	movl	%eax, -36(%rbp)
	callq	_ZNSt7__cxx1112basic_stringIcSt11char_traitsIcESaIcEE12_Alloc_hiderD2Ev
	jmp	.LBB9_6
.LBB9_4:
	movq	-16(%rbp), %rdi
	movq	%rdi, -72(%rbp)                 # 8-byte Spill
	callq	_ZNSt11char_traitsIcE6lengthEPKc
	movq	-64(%rbp), %rdi                 # 8-byte Reload
	movq	%rax, %rcx
	movq	-72(%rbp), %rax                 # 8-byte Reload
	addq	%rcx, %rax
	movq	%rax, -48(%rbp)
	movq	-16(%rbp), %rsi
	movq	-48(%rbp), %rdx
.Ltmp34:
	callq	_ZNSt7__cxx1112basic_stringIcSt11char_traitsIcESaIcEE12_M_constructIPKcEEvT_S8_St20forward_iterator_tag
.Ltmp35:
	jmp	.LBB9_5
.LBB9_5:
	addq	$80, %rsp
	popq	%rbp
	.cfi_def_cfa %rsp, 8
	retq
.LBB9_6:
	.cfi_def_cfa %rbp, 16
	movq	-32(%rbp), %rdi
	callq	_Unwind_Resume@PLT
.Lfunc_end9:
	.size	_ZNSt7__cxx1112basic_stringIcSt11char_traitsIcESaIcEEC2IS3_EEPKcRKS3_, .Lfunc_end9-_ZNSt7__cxx1112basic_stringIcSt11char_traitsIcESaIcEEC2IS3_EEPKcRKS3_
	.cfi_endproc
	.section	.gcc_except_table._ZNSt7__cxx1112basic_stringIcSt11char_traitsIcESaIcEEC2IS3_EEPKcRKS3_,"aG",@progbits,_ZNSt7__cxx1112basic_stringIcSt11char_traitsIcESaIcEEC2IS3_EEPKcRKS3_,comdat
	.p2align	2, 0x0
GCC_except_table9:
.Lexception2:
	.byte	255                             # @LPStart Encoding = omit
	.byte	255                             # @TType Encoding = omit
	.byte	1                               # Call site Encoding = uleb128
	.uleb128 .Lcst_end2-.Lcst_begin2
.Lcst_begin2:
	.uleb128 .Ltmp36-.Lfunc_begin2          # >> Call Site 1 <<
	.uleb128 .Ltmp35-.Ltmp36                #   Call between .Ltmp36 and .Ltmp35
	.uleb128 .Ltmp38-.Lfunc_begin2          #     jumps to .Ltmp38
	.byte	0                               #   On action: cleanup
	.uleb128 .Ltmp35-.Lfunc_begin2          # >> Call Site 2 <<
	.uleb128 .Lfunc_end9-.Ltmp35            #   Call between .Ltmp35 and .Lfunc_end9
	.byte	0                               #     has no landing pad
	.byte	0                               #   On action: cleanup
.Lcst_end2:
	.p2align	2, 0x0
                                        # -- End function
	.section	.text._ZNSt7__cxx1112basic_stringIcSt11char_traitsIcESaIcEED2Ev,"axG",@progbits,_ZNSt7__cxx1112basic_stringIcSt11char_traitsIcESaIcEED2Ev,comdat
	.weak	_ZNSt7__cxx1112basic_stringIcSt11char_traitsIcESaIcEED2Ev # -- Begin function _ZNSt7__cxx1112basic_stringIcSt11char_traitsIcESaIcEED2Ev
	.p2align	4
	.type	_ZNSt7__cxx1112basic_stringIcSt11char_traitsIcESaIcEED2Ev,@function
_ZNSt7__cxx1112basic_stringIcSt11char_traitsIcESaIcEED2Ev: # @_ZNSt7__cxx1112basic_stringIcSt11char_traitsIcESaIcEED2Ev
.Lfunc_begin3:
	.cfi_startproc
	.cfi_personality 155, DW.ref.__gxx_personality_v0
	.cfi_lsda 27, .Lexception3
# %bb.0:
	pushq	%rbp
	.cfi_def_cfa_offset 16
	.cfi_offset %rbp, -16
	movq	%rsp, %rbp
	.cfi_def_cfa_register %rbp
	subq	$16, %rsp
	movq	%rdi, -8(%rbp)
	movq	-8(%rbp), %rdi
	movq	%rdi, -16(%rbp)                 # 8-byte Spill
.Ltmp39:
	callq	_ZNSt7__cxx1112basic_stringIcSt11char_traitsIcESaIcEE10_M_disposeEv
.Ltmp40:
	jmp	.LBB10_1
.LBB10_1:
	movq	-16(%rbp), %rdi                 # 8-byte Reload
	callq	_ZNSt7__cxx1112basic_stringIcSt11char_traitsIcESaIcEE12_Alloc_hiderD2Ev
	addq	$16, %rsp
	popq	%rbp
	.cfi_def_cfa %rsp, 8
	retq
.LBB10_2:
	.cfi_def_cfa %rbp, 16
.Ltmp41:
	movq	%rax, %rdi
                                        # kill: def $eax killed $edx killed $rdx
	callq	__clang_call_terminate
.Lfunc_end10:
	.size	_ZNSt7__cxx1112basic_stringIcSt11char_traitsIcESaIcEED2Ev, .Lfunc_end10-_ZNSt7__cxx1112basic_stringIcSt11char_traitsIcESaIcEED2Ev
	.cfi_endproc
	.section	.gcc_except_table._ZNSt7__cxx1112basic_stringIcSt11char_traitsIcESaIcEED2Ev,"aG",@progbits,_ZNSt7__cxx1112basic_stringIcSt11char_traitsIcESaIcEED2Ev,comdat
	.p2align	2, 0x0
GCC_except_table10:
.Lexception3:
	.byte	255                             # @LPStart Encoding = omit
	.byte	155                             # @TType Encoding = indirect pcrel sdata4
	.uleb128 .Lttbase0-.Lttbaseref0
.Lttbaseref0:
	.byte	1                               # Call site Encoding = uleb128
	.uleb128 .Lcst_end3-.Lcst_begin3
.Lcst_begin3:
	.uleb128 .Ltmp39-.Lfunc_begin3          # >> Call Site 1 <<
	.uleb128 .Ltmp40-.Ltmp39                #   Call between .Ltmp39 and .Ltmp40
	.uleb128 .Ltmp41-.Lfunc_begin3          #     jumps to .Ltmp41
	.byte	1                               #   On action: 1
.Lcst_end3:
	.byte	1                               # >> Action Record 1 <<
                                        #   Catch TypeInfo 1
	.byte	0                               #   No further actions
	.p2align	2, 0x0
                                        # >> Catch TypeInfos <<
	.long	0                               # TypeInfo 1
.Lttbase0:
	.p2align	2, 0x0
                                        # -- End function
	.section	.text._Z11stringToIntRKNSt7__cxx1112basic_stringIcSt11char_traitsIcESaIcEEEPi,"axG",@progbits,_Z11stringToIntRKNSt7__cxx1112basic_stringIcSt11char_traitsIcESaIcEEEPi,comdat
	.weak	_Z11stringToIntRKNSt7__cxx1112basic_stringIcSt11char_traitsIcESaIcEEEPi # -- Begin function _Z11stringToIntRKNSt7__cxx1112basic_stringIcSt11char_traitsIcESaIcEEEPi
	.p2align	4
	.type	_Z11stringToIntRKNSt7__cxx1112basic_stringIcSt11char_traitsIcESaIcEEEPi,@function
_Z11stringToIntRKNSt7__cxx1112basic_stringIcSt11char_traitsIcESaIcEEEPi: # @_Z11stringToIntRKNSt7__cxx1112basic_stringIcSt11char_traitsIcESaIcEEEPi
.Lfunc_begin4:
	.cfi_startproc
	.cfi_personality 155, DW.ref.__gxx_personality_v0
	.cfi_lsda 27, .Lexception4
# %bb.0:
	pushq	%rbp
	.cfi_def_cfa_offset 16
	.cfi_offset %rbp, -16
	movq	%rsp, %rbp
	.cfi_def_cfa_register %rbp
	subq	$480, %rsp                      # imm = 0x1E0
	movq	%fs:40, %rax
	movq	%rax, -8(%rbp)
	movq	%rdi, -416(%rbp)
	movq	%rsi, -424(%rbp)
	movq	-416(%rbp), %rax
	movq	%rax, -456(%rbp)                # 8-byte Spill
	movl	$16, %edi
	movl	$8, %esi
	callq	_ZStorSt13_Ios_OpenmodeS_
	movq	-456(%rbp), %rsi                # 8-byte Reload
	movl	%eax, %edx
	leaq	-400(%rbp), %rdi
	movq	%rdi, -448(%rbp)                # 8-byte Spill
	callq	_ZNSt7__cxx1118basic_stringstreamIcSt11char_traitsIcESaIcEEC1ERKNS_12basic_stringIcS2_S3_EESt13_Ios_Openmode@PLT
	movq	-448(%rbp), %rdi                # 8-byte Reload
	movq	-424(%rbp), %rsi
.Ltmp42:
	callq	_ZNSirsERi@PLT
.Ltmp43:
	jmp	.LBB11_1
.LBB11_1:
	movq	-400(%rbp), %rax
	movq	-24(%rax), %rax
	leaq	-400(%rbp,%rax), %rdi
.Ltmp44:
	callq	_ZNKSt9basic_iosIcSt11char_traitsIcEE4failEv@PLT
.Ltmp45:
	movb	%al, -457(%rbp)                 # 1-byte Spill
	jmp	.LBB11_2
.LBB11_2:
	movb	-457(%rbp), %al                 # 1-byte Reload
	testb	$1, %al
	jne	.LBB11_5
	jmp	.LBB11_3
.LBB11_3:
	movb	$1, -401(%rbp)
	movl	$1, -440(%rbp)
	jmp	.LBB11_10
.LBB11_4:
.Ltmp50:
	movq	%rax, %rcx
	movl	%edx, %eax
	movq	%rcx, -432(%rbp)
	movl	%eax, -436(%rbp)
	leaq	-400(%rbp), %rdi
	callq	_ZNSt7__cxx1118basic_stringstreamIcSt11char_traitsIcESaIcEED1Ev@PLT
	jmp	.LBB11_12
.LBB11_5:
.Ltmp46:
	movq	_ZSt2wsIcSt11char_traitsIcEERSt13basic_istreamIT_T0_ES6_@GOTPCREL(%rip), %rsi
	leaq	-400(%rbp), %rdi
	callq	_ZNSirsEPFRSiS_E@PLT
.Ltmp47:
	jmp	.LBB11_6
.LBB11_6:
	movq	-400(%rbp), %rax
	movq	-24(%rax), %rax
	leaq	-400(%rbp,%rax), %rdi
.Ltmp48:
	callq	_ZNKSt9basic_iosIcSt11char_traitsIcEE3eofEv@PLT
.Ltmp49:
	movb	%al, -458(%rbp)                 # 1-byte Spill
	jmp	.LBB11_7
.LBB11_7:
	movb	-458(%rbp), %al                 # 1-byte Reload
	testb	$1, %al
	jne	.LBB11_8
	jmp	.LBB11_9
.LBB11_8:
	movb	$1, -401(%rbp)
	movl	$1, -440(%rbp)
	jmp	.LBB11_10
.LBB11_9:
	movb	$0, -401(%rbp)
	movl	$1, -440(%rbp)
.LBB11_10:
	leaq	-400(%rbp), %rdi
	callq	_ZNSt7__cxx1118basic_stringstreamIcSt11char_traitsIcESaIcEED1Ev@PLT
	movb	-401(%rbp), %al
	movb	%al, -459(%rbp)                 # 1-byte Spill
	movq	%fs:40, %rax
	movq	-8(%rbp), %rcx
	cmpq	%rcx, %rax
	jne	.LBB11_14
# %bb.11:
	movb	-459(%rbp), %al                 # 1-byte Reload
	andb	$1, %al
	addq	$480, %rsp                      # imm = 0x1E0
	popq	%rbp
	.cfi_def_cfa %rsp, 8
	retq
.LBB11_12:
	.cfi_def_cfa %rbp, 16
	movq	-432(%rbp), %rax
	movq	%rax, -472(%rbp)                # 8-byte Spill
	movq	%fs:40, %rax
	movq	-8(%rbp), %rcx
	cmpq	%rcx, %rax
	jne	.LBB11_14
# %bb.13:
	movq	-472(%rbp), %rdi                # 8-byte Reload
	callq	_Unwind_Resume@PLT
.LBB11_14:
	callq	__stack_chk_fail@PLT
.Lfunc_end11:
	.size	_Z11stringToIntRKNSt7__cxx1112basic_stringIcSt11char_traitsIcESaIcEEEPi, .Lfunc_end11-_Z11stringToIntRKNSt7__cxx1112basic_stringIcSt11char_traitsIcESaIcEEEPi
	.cfi_endproc
	.section	.gcc_except_table._Z11stringToIntRKNSt7__cxx1112basic_stringIcSt11char_traitsIcESaIcEEEPi,"aG",@progbits,_Z11stringToIntRKNSt7__cxx1112basic_stringIcSt11char_traitsIcESaIcEEEPi,comdat
	.p2align	2, 0x0
GCC_except_table11:
.Lexception4:
	.byte	255                             # @LPStart Encoding = omit
	.byte	255                             # @TType Encoding = omit
	.byte	1                               # Call site Encoding = uleb128
	.uleb128 .Lcst_end4-.Lcst_begin4
.Lcst_begin4:
	.uleb128 .Lfunc_begin4-.Lfunc_begin4    # >> Call Site 1 <<
	.uleb128 .Ltmp42-.Lfunc_begin4          #   Call between .Lfunc_begin4 and .Ltmp42
	.byte	0                               #     has no landing pad
	.byte	0                               #   On action: cleanup
	.uleb128 .Ltmp42-.Lfunc_begin4          # >> Call Site 2 <<
	.uleb128 .Ltmp49-.Ltmp42                #   Call between .Ltmp42 and .Ltmp49
	.uleb128 .Ltmp50-.Lfunc_begin4          #     jumps to .Ltmp50
	.byte	0                               #   On action: cleanup
	.uleb128 .Ltmp49-.Lfunc_begin4          # >> Call Site 3 <<
	.uleb128 .Lfunc_end11-.Ltmp49           #   Call between .Ltmp49 and .Lfunc_end11
	.byte	0                               #     has no landing pad
	.byte	0                               #   On action: cleanup
.Lcst_end4:
	.p2align	2, 0x0
                                        # -- End function
	.section	.text._ZNSt6vectorINSt7__cxx1112basic_stringIcSt11char_traitsIcESaIcEEESaIS5_EEixEm,"axG",@progbits,_ZNSt6vectorINSt7__cxx1112basic_stringIcSt11char_traitsIcESaIcEEESaIS5_EEixEm,comdat
	.weak	_ZNSt6vectorINSt7__cxx1112basic_stringIcSt11char_traitsIcESaIcEEESaIS5_EEixEm # -- Begin function _ZNSt6vectorINSt7__cxx1112basic_stringIcSt11char_traitsIcESaIcEEESaIS5_EEixEm
	.p2align	4
	.type	_ZNSt6vectorINSt7__cxx1112basic_stringIcSt11char_traitsIcESaIcEEESaIS5_EEixEm,@function
_ZNSt6vectorINSt7__cxx1112basic_stringIcSt11char_traitsIcESaIcEEESaIS5_EEixEm: # @_ZNSt6vectorINSt7__cxx1112basic_stringIcSt11char_traitsIcESaIcEEESaIS5_EEixEm
	.cfi_startproc
# %bb.0:
	pushq	%rbp
	.cfi_def_cfa_offset 16
	.cfi_offset %rbp, -16
	movq	%rsp, %rbp
	.cfi_def_cfa_register %rbp
	subq	$32, %rsp
	movq	%rdi, -8(%rbp)
	movq	%rsi, -16(%rbp)
	movq	-8(%rbp), %rax
	movq	%rax, -24(%rbp)                 # 8-byte Spill
# %bb.1:
	movq	-24(%rbp), %rdi                 # 8-byte Reload
	movq	-16(%rbp), %rax
	movq	%rax, -32(%rbp)                 # 8-byte Spill
	callq	_ZNKSt6vectorINSt7__cxx1112basic_stringIcSt11char_traitsIcESaIcEEESaIS5_EE4sizeEv
	movq	%rax, %rcx
	movq	-32(%rbp), %rax                 # 8-byte Reload
	cmpq	%rcx, %rax
	setb	%al
	xorb	$-1, %al
	testb	$1, %al
	jne	.LBB12_2
	jmp	.LBB12_3
.LBB12_2:
	leaq	.L.str.34(%rip), %rdi
	movl	$1263, %esi                     # imm = 0x4EF
	leaq	.L__PRETTY_FUNCTION__._ZNSt6vectorINSt7__cxx1112basic_stringIcSt11char_traitsIcESaIcEEESaIS5_EEixEm(%rip), %rdx
	leaq	.L.str.35(%rip), %rcx
	callq	_ZSt21__glibcxx_assert_failPKciS0_S0_@PLT
.LBB12_3:
	jmp	.LBB12_4
.LBB12_4:
	jmp	.LBB12_5
.LBB12_5:
	movq	-24(%rbp), %rax                 # 8-byte Reload
	movq	(%rax), %rax
	movq	-16(%rbp), %rcx
	shlq	$5, %rcx
	addq	%rcx, %rax
	addq	$32, %rsp
	popq	%rbp
	.cfi_def_cfa %rsp, 8
	retq
.Lfunc_end12:
	.size	_ZNSt6vectorINSt7__cxx1112basic_stringIcSt11char_traitsIcESaIcEEESaIS5_EEixEm, .Lfunc_end12-_ZNSt6vectorINSt7__cxx1112basic_stringIcSt11char_traitsIcESaIcEEESaIS5_EEixEm
	.cfi_endproc
                                        # -- End function
	.section	.text._ZNKSt7__cxx1112basic_stringIcSt11char_traitsIcESaIcEE4findERKS4_m,"axG",@progbits,_ZNKSt7__cxx1112basic_stringIcSt11char_traitsIcESaIcEE4findERKS4_m,comdat
	.weak	_ZNKSt7__cxx1112basic_stringIcSt11char_traitsIcESaIcEE4findERKS4_m # -- Begin function _ZNKSt7__cxx1112basic_stringIcSt11char_traitsIcESaIcEE4findERKS4_m
	.p2align	4
	.type	_ZNKSt7__cxx1112basic_stringIcSt11char_traitsIcESaIcEE4findERKS4_m,@function
_ZNKSt7__cxx1112basic_stringIcSt11char_traitsIcESaIcEE4findERKS4_m: # @_ZNKSt7__cxx1112basic_stringIcSt11char_traitsIcESaIcEE4findERKS4_m
	.cfi_startproc
# %bb.0:
	pushq	%rbp
	.cfi_def_cfa_offset 16
	.cfi_offset %rbp, -16
	movq	%rsp, %rbp
	.cfi_def_cfa_register %rbp
	subq	$48, %rsp
	movq	%rdi, -8(%rbp)
	movq	%rsi, -16(%rbp)
	movq	%rdx, -24(%rbp)
	movq	-8(%rbp), %rax
	movq	%rax, -48(%rbp)                 # 8-byte Spill
	movq	-16(%rbp), %rdi
	callq	_ZNKSt7__cxx1112basic_stringIcSt11char_traitsIcESaIcEE4dataEv
	movq	%rax, -40(%rbp)                 # 8-byte Spill
	movq	-24(%rbp), %rax
	movq	%rax, -32(%rbp)                 # 8-byte Spill
	movq	-16(%rbp), %rdi
	callq	_ZNKSt7__cxx1112basic_stringIcSt11char_traitsIcESaIcEE4sizeEv
	movq	-48(%rbp), %rdi                 # 8-byte Reload
	movq	-40(%rbp), %rsi                 # 8-byte Reload
	movq	-32(%rbp), %rdx                 # 8-byte Reload
	movq	%rax, %rcx
	callq	_ZNKSt7__cxx1112basic_stringIcSt11char_traitsIcESaIcEE4findEPKcmm
	addq	$48, %rsp
	popq	%rbp
	.cfi_def_cfa %rsp, 8
	retq
.Lfunc_end13:
	.size	_ZNKSt7__cxx1112basic_stringIcSt11char_traitsIcESaIcEE4findERKS4_m, .Lfunc_end13-_ZNKSt7__cxx1112basic_stringIcSt11char_traitsIcESaIcEE4findERKS4_m
	.cfi_endproc
                                        # -- End function
	.section	.text._ZNSt6vectorINSt7__cxx1112basic_stringIcSt11char_traitsIcESaIcEEESaIS5_EED2Ev,"axG",@progbits,_ZNSt6vectorINSt7__cxx1112basic_stringIcSt11char_traitsIcESaIcEEESaIS5_EED2Ev,comdat
	.weak	_ZNSt6vectorINSt7__cxx1112basic_stringIcSt11char_traitsIcESaIcEEESaIS5_EED2Ev # -- Begin function _ZNSt6vectorINSt7__cxx1112basic_stringIcSt11char_traitsIcESaIcEEESaIS5_EED2Ev
	.p2align	4
	.type	_ZNSt6vectorINSt7__cxx1112basic_stringIcSt11char_traitsIcESaIcEEESaIS5_EED2Ev,@function
_ZNSt6vectorINSt7__cxx1112basic_stringIcSt11char_traitsIcESaIcEEESaIS5_EED2Ev: # @_ZNSt6vectorINSt7__cxx1112basic_stringIcSt11char_traitsIcESaIcEEESaIS5_EED2Ev
.Lfunc_begin5:
	.cfi_startproc
	.cfi_personality 155, DW.ref.__gxx_personality_v0
	.cfi_lsda 27, .Lexception5
# %bb.0:
	pushq	%rbp
	.cfi_def_cfa_offset 16
	.cfi_offset %rbp, -16
	movq	%rsp, %rbp
	.cfi_def_cfa_register %rbp
	subq	$64, %rsp
	movq	%rdi, -32(%rbp)
	movq	-32(%rbp), %rdi
	movq	%rdi, -56(%rbp)                 # 8-byte Spill
	movq	(%rdi), %rax
	movq	%rax, -48(%rbp)                 # 8-byte Spill
	movq	8(%rdi), %rax
	movq	%rax, -40(%rbp)                 # 8-byte Spill
	callq	_ZNSt12_Vector_baseINSt7__cxx1112basic_stringIcSt11char_traitsIcESaIcEEESaIS5_EE19_M_get_Tp_allocatorEv
	movq	-48(%rbp), %rdx                 # 8-byte Reload
	movq	-40(%rbp), %rcx                 # 8-byte Reload
	movq	%rdx, -8(%rbp)
	movq	%rcx, -16(%rbp)
	movq	%rax, -24(%rbp)
	movq	-8(%rbp), %rdi
	movq	-16(%rbp), %rsi
.Ltmp51:
	callq	_ZSt8_DestroyIPNSt7__cxx1112basic_stringIcSt11char_traitsIcESaIcEEEEvT_S7_
.Ltmp52:
	jmp	.LBB14_1
.LBB14_1:
	jmp	.LBB14_2
.LBB14_2:
	movq	-56(%rbp), %rdi                 # 8-byte Reload
	callq	_ZNSt12_Vector_baseINSt7__cxx1112basic_stringIcSt11char_traitsIcESaIcEEESaIS5_EED2Ev
	addq	$64, %rsp
	popq	%rbp
	.cfi_def_cfa %rsp, 8
	retq
.LBB14_3:
	.cfi_def_cfa %rbp, 16
.Ltmp53:
	movq	%rax, %rdi
                                        # kill: def $eax killed $edx killed $rdx
	callq	__clang_call_terminate
.Lfunc_end14:
	.size	_ZNSt6vectorINSt7__cxx1112basic_stringIcSt11char_traitsIcESaIcEEESaIS5_EED2Ev, .Lfunc_end14-_ZNSt6vectorINSt7__cxx1112basic_stringIcSt11char_traitsIcESaIcEEESaIS5_EED2Ev
	.cfi_endproc
	.section	.gcc_except_table._ZNSt6vectorINSt7__cxx1112basic_stringIcSt11char_traitsIcESaIcEEESaIS5_EED2Ev,"aG",@progbits,_ZNSt6vectorINSt7__cxx1112basic_stringIcSt11char_traitsIcESaIcEEESaIS5_EED2Ev,comdat
	.p2align	2, 0x0
GCC_except_table14:
.Lexception5:
	.byte	255                             # @LPStart Encoding = omit
	.byte	155                             # @TType Encoding = indirect pcrel sdata4
	.uleb128 .Lttbase1-.Lttbaseref1
.Lttbaseref1:
	.byte	1                               # Call site Encoding = uleb128
	.uleb128 .Lcst_end5-.Lcst_begin5
.Lcst_begin5:
	.uleb128 .Ltmp51-.Lfunc_begin5          # >> Call Site 1 <<
	.uleb128 .Ltmp52-.Ltmp51                #   Call between .Ltmp51 and .Ltmp52
	.uleb128 .Ltmp53-.Lfunc_begin5          #     jumps to .Ltmp53
	.byte	1                               #   On action: 1
.Lcst_end5:
	.byte	1                               # >> Action Record 1 <<
                                        #   Catch TypeInfo 1
	.byte	0                               #   No further actions
	.p2align	2, 0x0
                                        # >> Catch TypeInfos <<
	.long	0                               # TypeInfo 1
.Lttbase1:
	.p2align	2, 0x0
                                        # -- End function
	.text
	.globl	_Z16DoCodeCompletionRKNSt7__cxx1112basic_stringIcSt11char_traitsIcESaIcEEES6_ii # -- Begin function _Z16DoCodeCompletionRKNSt7__cxx1112basic_stringIcSt11char_traitsIcESaIcEEES6_ii
	.p2align	4
	.type	_Z16DoCodeCompletionRKNSt7__cxx1112basic_stringIcSt11char_traitsIcESaIcEEES6_ii,@function
_Z16DoCodeCompletionRKNSt7__cxx1112basic_stringIcSt11char_traitsIcESaIcEEES6_ii: # @_Z16DoCodeCompletionRKNSt7__cxx1112basic_stringIcSt11char_traitsIcESaIcEEES6_ii
.Lfunc_begin6:
	.cfi_startproc
	.cfi_personality 155, DW.ref.__gxx_personality_v0
	.cfi_lsda 27, .Lexception6
# %bb.0:
	pushq	%rbp
	.cfi_def_cfa_offset 16
	.cfi_offset %rbp, -16
	movq	%rsp, %rbp
	.cfi_def_cfa_register %rbp
	subq	$928, %rsp                      # imm = 0x3A0
	movq	%fs:40, %rax
	movq	%rax, -8(%rbp)
	movq	%rdi, -720(%rbp)
	movq	%rsi, -728(%rbp)
	movl	%edx, -732(%rbp)
	movl	%ecx, -736(%rbp)
	leaq	-608(%rbp), %rdi
	movq	%rdi, -792(%rbp)                # 8-byte Spill
	callq	_ZSt11make_sharedIN5clang22PCHContainerOperationsEJEESt10shared_ptrINSt9enable_ifIXntsr8is_arrayIT_EE5valueES4_E4typeEEDpOT0_
	movq	-792(%rbp), %rsi                # 8-byte Reload
.Ltmp54:
	xorl	%eax, %eax
	movl	%eax, %edx
	leaq	-360(%rbp), %rdi
	callq	_ZN5clang16CompilerInstanceC1ESt10shared_ptrINS_22PCHContainerOperationsEEPNS_19InMemoryModuleCacheE@PLT
.Ltmp55:
	jmp	.LBB15_1
.LBB15_1:
	leaq	-608(%rbp), %rdi
	callq	_ZNSt10shared_ptrIN5clang22PCHContainerOperationsEED2Ev
.Ltmp57:
	leaq	-624(%rbp), %rdi
	callq	_ZSt11make_sharedIN5clang13TargetOptionsEJEESt10shared_ptrINSt9enable_ifIXntsr8is_arrayIT_EE5valueES4_E4typeEEDpOT0_
.Ltmp58:
	jmp	.LBB15_2
.LBB15_2:
	leaq	-624(%rbp), %rdi
	callq	_ZNKSt19__shared_ptr_accessIN5clang13TargetOptionsELN9__gnu_cxx12_Lock_policyE2ELb0ELb0EEptEv
	movq	%rax, %rdi
.Ltmp60:
	leaq	.L.str.17(%rip), %rsi
	callq	_ZNSt7__cxx1112basic_stringIcSt11char_traitsIcESaIcEEaSEPKc
.Ltmp61:
	jmp	.LBB15_3
.LBB15_3:
.Ltmp62:
	leaq	-360(%rbp), %rdi
	callq	_ZNK5clang16CompilerInstance14getDiagnosticsEv
.Ltmp63:
	movq	%rax, -800(%rbp)                # 8-byte Spill
	jmp	.LBB15_4
.LBB15_4:
.Ltmp64:
	movq	-800(%rbp), %rdi                # 8-byte Reload
	leaq	-624(%rbp), %rsi
	callq	_ZN5clang10TargetInfo16CreateTargetInfoERNS_17DiagnosticsEngineERKSt10shared_ptrINS_13TargetOptionsEE@PLT
.Ltmp65:
	movq	%rax, -808(%rbp)                # 8-byte Spill
	jmp	.LBB15_5
.LBB15_5:
.Ltmp66:
	movq	-808(%rbp), %rsi                # 8-byte Reload
	leaq	-360(%rbp), %rdi
	callq	_ZN5clang16CompilerInstance9setTargetEPNS_10TargetInfoE@PLT
.Ltmp67:
	jmp	.LBB15_6
.LBB15_6:
.Ltmp68:
	leaq	-360(%rbp), %rdi
	callq	_ZN5clang16CompilerInstance11getLangOptsEv
.Ltmp69:
	movq	%rax, -816(%rbp)                # 8-byte Spill
	jmp	.LBB15_7
.LBB15_7:
	movq	-816(%rbp), %rax                # 8-byte Reload
	movq	%rax, -760(%rbp)
	movq	-760(%rbp), %rax
	movq	(%rax), %rcx
	orq	$2048, %rcx                     # imm = 0x800
	movq	%rcx, (%rax)
	movq	-760(%rbp), %rax
	movq	(%rax), %rcx
	orq	$4096, %rcx                     # imm = 0x1000
	movq	%rcx, (%rax)
	movq	-760(%rbp), %rax
	movq	(%rax), %rcx
	orq	$67108864, %rcx                 # imm = 0x4000000
	movq	%rcx, (%rax)
	movq	-760(%rbp), %rax
	movq	(%rax), %rcx
	movabsq	$17179869184, %rdx              # imm = 0x400000000
	orq	%rdx, %rcx
	movq	%rcx, (%rax)
.Ltmp70:
	xorl	%eax, %eax
	movl	%eax, %esi
	leaq	-632(%rbp), %rdi
	callq	_ZN4llvm18IntrusiveRefCntPtrINS_3vfs10FileSystemEEC2EPS2_
.Ltmp71:
	jmp	.LBB15_8
.LBB15_8:
.Ltmp72:
	leaq	-360(%rbp), %rdi
	leaq	-632(%rbp), %rsi
	callq	_ZN5clang16CompilerInstance17createFileManagerEN4llvm18IntrusiveRefCntPtrINS1_3vfs10FileSystemEEE@PLT
.Ltmp73:
	jmp	.LBB15_9
.LBB15_9:
	leaq	-632(%rbp), %rdi
	callq	_ZN4llvm18IntrusiveRefCntPtrINS_3vfs10FileSystemEED2Ev
.Ltmp75:
	leaq	-360(%rbp), %rdi
	callq	_ZNK5clang16CompilerInstance14getFileManagerEv
.Ltmp76:
	movq	%rax, -824(%rbp)                # 8-byte Spill
	jmp	.LBB15_10
.LBB15_10:
.Ltmp77:
	movq	-824(%rbp), %rsi                # 8-byte Reload
	leaq	-360(%rbp), %rdi
	callq	_ZN5clang16CompilerInstance19createSourceManagerERNS_11FileManagerE@PLT
.Ltmp78:
	jmp	.LBB15_11
.LBB15_11:
.Ltmp79:
	leaq	-580(%rbp), %rdi
	callq	_ZN5clang19CodeCompleteOptionsC2Ev
.Ltmp80:
	jmp	.LBB15_12
.LBB15_12:
	movb	-580(%rbp), %al
	orb	$1, %al
	movb	%al, -580(%rbp)
	movb	-580(%rbp), %al
	orb	$2, %al
	movb	%al, -580(%rbp)
	movb	-580(%rbp), %al
	orb	$4, %al
	movb	%al, -580(%rbp)
	movb	-580(%rbp), %al
	orb	$16, %al
	movb	%al, -580(%rbp)
.Ltmp81:
	movl	$80, %edi
	callq	_Znwm@PLT
.Ltmp82:
	movq	%rax, -832(%rbp)                # 8-byte Spill
	jmp	.LBB15_13
.LBB15_13:
.Ltmp83:
	leaq	-360(%rbp), %rdi
	callq	_ZNK5clang16CompilerInstance16getSourceManagerEv
.Ltmp84:
	movq	%rax, -840(%rbp)                # 8-byte Spill
	jmp	.LBB15_14
.LBB15_14:
.Ltmp85:
	movq	-840(%rbp), %rdx                # 8-byte Reload
	movq	-832(%rbp), %rdi                # 8-byte Reload
	leaq	-580(%rbp), %rsi
	callq	_ZN26CustomCodeCompleteConsumerC2ERKN5clang19CodeCompleteOptionsERNS0_13SourceManagerE
.Ltmp86:
	jmp	.LBB15_15
.LBB15_15:
	movq	-832(%rbp), %rax                # 8-byte Reload
	movq	%rax, -768(%rbp)
	movq	-768(%rbp), %rsi
.Ltmp88:
	leaq	-360(%rbp), %rdi
	callq	_ZN5clang16CompilerInstance25setCodeCompletionConsumerEPNS_20CodeCompleteConsumerE@PLT
.Ltmp89:
	jmp	.LBB15_16
.LBB15_16:
.Ltmp90:
	leaq	-360(%rbp), %rdi
	callq	_ZN5clang16CompilerInstance15getFrontendOptsEv
.Ltmp91:
	movq	%rax, -848(%rbp)                # 8-byte Spill
	jmp	.LBB15_17
.LBB15_17:
	movq	-848(%rbp), %rax                # 8-byte Reload
	movq	%rax, -776(%rbp)
	movq	-776(%rbp), %rax
	subq	$-128, %rax
	movq	%rax, -856(%rbp)                # 8-byte Spill
	movq	-720(%rbp), %rsi
.Ltmp92:
	leaq	-648(%rbp), %rdi
	callq	_ZN4llvm9StringRefC2ERKNSt7__cxx1112basic_stringIcSt11char_traitsIcESaIcEEE
.Ltmp93:
	jmp	.LBB15_18
.LBB15_18:
.Ltmp94:
	leaq	-588(%rbp), %rdi
	xorl	%r9d, %r9d
	movl	%r9d, %esi
	movl	%r9d, %edx
	movl	%r9d, %ecx
	movl	%r9d, %r8d
	callq	_ZN5clang9InputKindC2ENS_8LanguageENS0_6FormatEbNS0_14HeaderUnitKindEb
.Ltmp95:
	jmp	.LBB15_19
.LBB15_19:
.Ltmp96:
	leaq	-588(%rbp), %rdi
	callq	_ZNK5clang9InputKind11getLanguageEv
.Ltmp97:
	movb	%al, -857(%rbp)                 # 1-byte Spill
	jmp	.LBB15_20
.LBB15_20:
.Ltmp98:
	movb	-857(%rbp), %al                 # 1-byte Reload
	movzbl	%al, %esi
	leaq	-584(%rbp), %rdi
	xorl	%r9d, %r9d
	movl	%r9d, %edx
	movl	%r9d, %ecx
	movl	%r9d, %r8d
	callq	_ZN5clang9InputKindC2ENS_8LanguageENS0_6FormatEbNS0_14HeaderUnitKindEb
.Ltmp99:
	jmp	.LBB15_21
.LBB15_21:
	movq	-648(%rbp), %rsi
	movq	-640(%rbp), %rdx
	movl	-584(%rbp), %ecx
.Ltmp100:
	leaq	-440(%rbp), %rdi
	xorl	%r8d, %r8d
	callq	_ZN5clang17FrontendInputFileC2EN4llvm9StringRefENS_9InputKindEb
.Ltmp101:
	jmp	.LBB15_22
.LBB15_22:
.Ltmp102:
	movq	-856(%rbp), %rdi                # 8-byte Reload
	leaq	-440(%rbp), %rsi
	callq	_ZN4llvm23SmallVectorTemplateBaseIN5clang17FrontendInputFileELb0EE9push_backEOS2_
.Ltmp103:
	jmp	.LBB15_23
.LBB15_23:
	leaq	-440(%rbp), %rdi
	callq	_ZN5clang17FrontendInputFileD2Ev
	movq	-720(%rbp), %rsi
	movq	-776(%rbp), %rdi
	addq	$272, %rdi                      # imm = 0x110
.Ltmp105:
	callq	_ZNSt7__cxx1112basic_stringIcSt11char_traitsIcESaIcEEaSERKS4_
.Ltmp106:
	jmp	.LBB15_24
.LBB15_24:
	movl	-732(%rbp), %ecx
	movq	-776(%rbp), %rax
	movl	%ecx, 304(%rax)
	movl	-736(%rbp), %ecx
	movq	-776(%rbp), %rax
	movl	%ecx, 308(%rax)
	movq	-728(%rbp), %rsi
.Ltmp107:
	leaq	-672(%rbp), %rdi
	callq	_ZN4llvm9StringRefC2ERKNSt7__cxx1112basic_stringIcSt11char_traitsIcESaIcEEE
.Ltmp108:
	jmp	.LBB15_25
.LBB15_25:
	movq	-720(%rbp), %rsi
.Ltmp109:
	leaq	-688(%rbp), %rdi
	callq	_ZN4llvm9StringRefC2ERKNSt7__cxx1112basic_stringIcSt11char_traitsIcESaIcEEE
.Ltmp110:
	jmp	.LBB15_26
.LBB15_26:
	movq	-672(%rbp), %rsi
	movq	-664(%rbp), %rdx
	movq	-688(%rbp), %rcx
	movq	-680(%rbp), %r8
.Ltmp111:
	leaq	-656(%rbp), %rdi
	movl	$1, %r9d
	callq	_ZN4llvm12MemoryBuffer12getMemBufferENS_9StringRefES1_b@PLT
.Ltmp112:
	jmp	.LBB15_27
.LBB15_27:
.Ltmp114:
	leaq	-360(%rbp), %rdi
	callq	_ZN5clang16CompilerInstance19getPreprocessorOptsEv
.Ltmp115:
	movq	%rax, -872(%rbp)                # 8-byte Spill
	jmp	.LBB15_28
.LBB15_28:
	movq	-872(%rbp), %rax                # 8-byte Reload
	movq	%rax, -784(%rbp)
	movq	-784(%rbp), %rdi
.Ltmp116:
	callq	_ZN5clang19PreprocessorOptions18clearRemappedFilesEv
.Ltmp117:
	jmp	.LBB15_29
.LBB15_29:
	movq	-784(%rbp), %rax
	movq	%rax, -880(%rbp)                # 8-byte Spill
	movq	-720(%rbp), %rsi
.Ltmp118:
	leaq	-704(%rbp), %rdi
	callq	_ZN4llvm9StringRefC2ERKNSt7__cxx1112basic_stringIcSt11char_traitsIcESaIcEEE
.Ltmp119:
	jmp	.LBB15_30
.LBB15_30:
	leaq	-656(%rbp), %rdi
	callq	_ZNSt10unique_ptrIN4llvm12MemoryBufferESt14default_deleteIS1_EE7releaseEv
	movq	-880(%rbp), %rdi                # 8-byte Reload
	movq	%rax, %rcx
	movq	-704(%rbp), %rsi
	movq	-696(%rbp), %rdx
.Ltmp120:
	callq	_ZN5clang19PreprocessorOptions15addRemappedFileEN4llvm9StringRefEPNS1_12MemoryBufferE
.Ltmp121:
	jmp	.LBB15_31
.LBB15_31:
.Ltmp122:
	leaq	-544(%rbp), %rdi
	callq	_ZN5clang16SyntaxOnlyActionC2Ev
.Ltmp123:
	jmp	.LBB15_32
.LBB15_32:
.Ltmp125:
	leaq	-360(%rbp), %rdi
	callq	_ZN5clang16CompilerInstance15getFrontendOptsEv
.Ltmp126:
	movq	%rax, -888(%rbp)                # 8-byte Spill
	jmp	.LBB15_33
.LBB15_33:
	movq	-888(%rbp), %rdi                # 8-byte Reload
	subq	$-128, %rdi
.Ltmp127:
	xorl	%eax, %eax
	movl	%eax, %esi
	callq	_ZN4llvm25SmallVectorTemplateCommonIN5clang17FrontendInputFileEvEixEm
.Ltmp128:
	movq	%rax, -896(%rbp)                # 8-byte Spill
	jmp	.LBB15_34
.LBB15_34:
.Ltmp129:
	movq	-896(%rbp), %rdx                # 8-byte Reload
	leaq	-544(%rbp), %rdi
	leaq	-360(%rbp), %rsi
	callq	_ZN5clang14FrontendAction15BeginSourceFileERNS_16CompilerInstanceERKNS_17FrontendInputFileE@PLT
.Ltmp130:
	movb	%al, -897(%rbp)                 # 1-byte Spill
	jmp	.LBB15_35
.LBB15_35:
	movb	-897(%rbp), %al                 # 1-byte Reload
	testb	$1, %al
	jne	.LBB15_36
	jmp	.LBB15_47
.LBB15_36:
.Ltmp131:
	leaq	-712(%rbp), %rdi
	leaq	-544(%rbp), %rsi
	callq	_ZN5clang14FrontendAction7ExecuteEv@PLT
.Ltmp132:
	jmp	.LBB15_37
.LBB15_37:
	leaq	-712(%rbp), %rdi
	callq	_ZN4llvm5ErrorD2Ev
.Ltmp133:
	leaq	-544(%rbp), %rdi
	callq	_ZN5clang14FrontendAction13EndSourceFileEv@PLT
.Ltmp134:
	jmp	.LBB15_38
.LBB15_38:
	jmp	.LBB15_47
.LBB15_39:
.Ltmp56:
	movq	%rax, %rcx
	movl	%edx, %eax
	movq	%rcx, -744(%rbp)
	movl	%eax, -748(%rbp)
	leaq	-608(%rbp), %rdi
	callq	_ZNSt10shared_ptrIN5clang22PCHContainerOperationsEED2Ev
	jmp	.LBB15_58
.LBB15_40:
.Ltmp59:
	movq	%rax, %rcx
	movl	%edx, %eax
	movq	%rcx, -744(%rbp)
	movl	%eax, -748(%rbp)
	jmp	.LBB15_57
.LBB15_41:
.Ltmp113:
	movq	%rax, %rcx
	movl	%edx, %eax
	movq	%rcx, -744(%rbp)
	movl	%eax, -748(%rbp)
	jmp	.LBB15_56
.LBB15_42:
.Ltmp74:
	movq	%rax, %rcx
	movl	%edx, %eax
	movq	%rcx, -744(%rbp)
	movl	%eax, -748(%rbp)
	leaq	-632(%rbp), %rdi
	callq	_ZN4llvm18IntrusiveRefCntPtrINS_3vfs10FileSystemEED2Ev
	jmp	.LBB15_56
.LBB15_43:
.Ltmp87:
	movq	-832(%rbp), %rdi                # 8-byte Reload
	movq	%rax, %rcx
	movl	%edx, %eax
	movq	%rcx, -744(%rbp)
	movl	%eax, -748(%rbp)
	movl	$80, %esi
	callq	_ZdlPvm@PLT
	jmp	.LBB15_56
.LBB15_44:
.Ltmp104:
	movq	%rax, %rcx
	movl	%edx, %eax
	movq	%rcx, -744(%rbp)
	movl	%eax, -748(%rbp)
	leaq	-440(%rbp), %rdi
	callq	_ZN5clang17FrontendInputFileD2Ev
	jmp	.LBB15_56
.LBB15_45:
.Ltmp124:
	movq	%rax, %rcx
	movl	%edx, %eax
	movq	%rcx, -744(%rbp)
	movl	%eax, -748(%rbp)
	jmp	.LBB15_55
.LBB15_46:
.Ltmp141:
	movq	%rax, %rcx
	movl	%edx, %eax
	movq	%rcx, -744(%rbp)
	movl	%eax, -748(%rbp)
	jmp	.LBB15_54
.LBB15_47:
.Ltmp135:
	callq	_ZN4llvm4outsEv@PLT
.Ltmp136:
	movq	%rax, -912(%rbp)                # 8-byte Spill
	jmp	.LBB15_48
.LBB15_48:
	movq	-768(%rbp), %rdi
.Ltmp137:
	callq	_ZN26CustomCodeCompleteConsumer7GetJSONB5cxx11Ev
.Ltmp138:
	movq	%rax, -920(%rbp)                # 8-byte Spill
	jmp	.LBB15_49
.LBB15_49:
.Ltmp139:
	movq	-920(%rbp), %rsi                # 8-byte Reload
	leaq	-576(%rbp), %rdi
	movl	$-1, %edx
	callq	_ZNK8nlohmann10basic_jsonISt3mapSt6vectorNSt7__cxx1112basic_stringIcSt11char_traitsIcESaIcEEEblmdSaNS_14adl_serializerEE4dumpEi
.Ltmp140:
	jmp	.LBB15_50
.LBB15_50:
.Ltmp142:
	movq	-912(%rbp), %rdi                # 8-byte Reload
	leaq	-576(%rbp), %rsi
	callq	_ZN4llvm11raw_ostreamlsERKNSt7__cxx1112basic_stringIcSt11char_traitsIcESaIcEEE
.Ltmp143:
	jmp	.LBB15_51
.LBB15_51:
	leaq	-576(%rbp), %rdi
	callq	_ZNSt7__cxx1112basic_stringIcSt11char_traitsIcESaIcEED2Ev
	leaq	-544(%rbp), %rdi
	callq	_ZN5clang16SyntaxOnlyActionD1Ev@PLT
	leaq	-656(%rbp), %rdi
	callq	_ZNSt10unique_ptrIN4llvm12MemoryBufferESt14default_deleteIS1_EED2Ev
	leaq	-624(%rbp), %rdi
	callq	_ZNSt10shared_ptrIN5clang13TargetOptionsEED2Ev
	leaq	-360(%rbp), %rdi
	callq	_ZN5clang16CompilerInstanceD1Ev@PLT
	movq	%fs:40, %rax
	movq	-8(%rbp), %rcx
	cmpq	%rcx, %rax
	jne	.LBB15_60
# %bb.52:
	addq	$928, %rsp                      # imm = 0x3A0
	popq	%rbp
	.cfi_def_cfa %rsp, 8
	retq
.LBB15_53:
	.cfi_def_cfa %rbp, 16
.Ltmp144:
	movq	%rax, %rcx
	movl	%edx, %eax
	movq	%rcx, -744(%rbp)
	movl	%eax, -748(%rbp)
	leaq	-576(%rbp), %rdi
	callq	_ZNSt7__cxx1112basic_stringIcSt11char_traitsIcESaIcEED2Ev
.LBB15_54:
	leaq	-544(%rbp), %rdi
	callq	_ZN5clang16SyntaxOnlyActionD1Ev@PLT
.LBB15_55:
	leaq	-656(%rbp), %rdi
	callq	_ZNSt10unique_ptrIN4llvm12MemoryBufferESt14default_deleteIS1_EED2Ev
.LBB15_56:
	leaq	-624(%rbp), %rdi
	callq	_ZNSt10shared_ptrIN5clang13TargetOptionsEED2Ev
.LBB15_57:
	leaq	-360(%rbp), %rdi
	callq	_ZN5clang16CompilerInstanceD1Ev@PLT
.LBB15_58:
	movq	-744(%rbp), %rax
	movq	%rax, -928(%rbp)                # 8-byte Spill
	movq	%fs:40, %rax
	movq	-8(%rbp), %rcx
	cmpq	%rcx, %rax
	jne	.LBB15_60
# %bb.59:
	movq	-928(%rbp), %rdi                # 8-byte Reload
	callq	_Unwind_Resume@PLT
.LBB15_60:
	callq	__stack_chk_fail@PLT
.Lfunc_end15:
	.size	_Z16DoCodeCompletionRKNSt7__cxx1112basic_stringIcSt11char_traitsIcESaIcEEES6_ii, .Lfunc_end15-_Z16DoCodeCompletionRKNSt7__cxx1112basic_stringIcSt11char_traitsIcESaIcEEES6_ii
	.cfi_endproc
	.section	.gcc_except_table,"a",@progbits
	.p2align	2, 0x0
GCC_except_table15:
.Lexception6:
	.byte	255                             # @LPStart Encoding = omit
	.byte	255                             # @TType Encoding = omit
	.byte	1                               # Call site Encoding = uleb128
	.uleb128 .Lcst_end6-.Lcst_begin6
.Lcst_begin6:
	.uleb128 .Lfunc_begin6-.Lfunc_begin6    # >> Call Site 1 <<
	.uleb128 .Ltmp54-.Lfunc_begin6          #   Call between .Lfunc_begin6 and .Ltmp54
	.byte	0                               #     has no landing pad
	.byte	0                               #   On action: cleanup
	.uleb128 .Ltmp54-.Lfunc_begin6          # >> Call Site 2 <<
	.uleb128 .Ltmp55-.Ltmp54                #   Call between .Ltmp54 and .Ltmp55
	.uleb128 .Ltmp56-.Lfunc_begin6          #     jumps to .Ltmp56
	.byte	0                               #   On action: cleanup
	.uleb128 .Ltmp57-.Lfunc_begin6          # >> Call Site 3 <<
	.uleb128 .Ltmp58-.Ltmp57                #   Call between .Ltmp57 and .Ltmp58
	.uleb128 .Ltmp59-.Lfunc_begin6          #     jumps to .Ltmp59
	.byte	0                               #   On action: cleanup
	.uleb128 .Ltmp60-.Lfunc_begin6          # >> Call Site 4 <<
	.uleb128 .Ltmp71-.Ltmp60                #   Call between .Ltmp60 and .Ltmp71
	.uleb128 .Ltmp113-.Lfunc_begin6         #     jumps to .Ltmp113
	.byte	0                               #   On action: cleanup
	.uleb128 .Ltmp72-.Lfunc_begin6          # >> Call Site 5 <<
	.uleb128 .Ltmp73-.Ltmp72                #   Call between .Ltmp72 and .Ltmp73
	.uleb128 .Ltmp74-.Lfunc_begin6          #     jumps to .Ltmp74
	.byte	0                               #   On action: cleanup
	.uleb128 .Ltmp75-.Lfunc_begin6          # >> Call Site 6 <<
	.uleb128 .Ltmp82-.Ltmp75                #   Call between .Ltmp75 and .Ltmp82
	.uleb128 .Ltmp113-.Lfunc_begin6         #     jumps to .Ltmp113
	.byte	0                               #   On action: cleanup
	.uleb128 .Ltmp83-.Lfunc_begin6          # >> Call Site 7 <<
	.uleb128 .Ltmp86-.Ltmp83                #   Call between .Ltmp83 and .Ltmp86
	.uleb128 .Ltmp87-.Lfunc_begin6          #     jumps to .Ltmp87
	.byte	0                               #   On action: cleanup
	.uleb128 .Ltmp88-.Lfunc_begin6          # >> Call Site 8 <<
	.uleb128 .Ltmp101-.Ltmp88               #   Call between .Ltmp88 and .Ltmp101
	.uleb128 .Ltmp113-.Lfunc_begin6         #     jumps to .Ltmp113
	.byte	0                               #   On action: cleanup
	.uleb128 .Ltmp102-.Lfunc_begin6         # >> Call Site 9 <<
	.uleb128 .Ltmp103-.Ltmp102              #   Call between .Ltmp102 and .Ltmp103
	.uleb128 .Ltmp104-.Lfunc_begin6         #     jumps to .Ltmp104
	.byte	0                               #   On action: cleanup
	.uleb128 .Ltmp105-.Lfunc_begin6         # >> Call Site 10 <<
	.uleb128 .Ltmp112-.Ltmp105              #   Call between .Ltmp105 and .Ltmp112
	.uleb128 .Ltmp113-.Lfunc_begin6         #     jumps to .Ltmp113
	.byte	0                               #   On action: cleanup
	.uleb128 .Ltmp114-.Lfunc_begin6         # >> Call Site 11 <<
	.uleb128 .Ltmp123-.Ltmp114              #   Call between .Ltmp114 and .Ltmp123
	.uleb128 .Ltmp124-.Lfunc_begin6         #     jumps to .Ltmp124
	.byte	0                               #   On action: cleanup
	.uleb128 .Ltmp125-.Lfunc_begin6         # >> Call Site 12 <<
	.uleb128 .Ltmp140-.Ltmp125              #   Call between .Ltmp125 and .Ltmp140
	.uleb128 .Ltmp141-.Lfunc_begin6         #     jumps to .Ltmp141
	.byte	0                               #   On action: cleanup
	.uleb128 .Ltmp142-.Lfunc_begin6         # >> Call Site 13 <<
	.uleb128 .Ltmp143-.Ltmp142              #   Call between .Ltmp142 and .Ltmp143
	.uleb128 .Ltmp144-.Lfunc_begin6         #     jumps to .Ltmp144
	.byte	0                               #   On action: cleanup
	.uleb128 .Ltmp143-.Lfunc_begin6         # >> Call Site 14 <<
	.uleb128 .Lfunc_end15-.Ltmp143          #   Call between .Ltmp143 and .Lfunc_end15
	.byte	0                               #     has no landing pad
	.byte	0                               #   On action: cleanup
.Lcst_end6:
	.p2align	2, 0x0
                                        # -- End function
	.section	.text._ZSt11make_sharedIN5clang22PCHContainerOperationsEJEESt10shared_ptrINSt9enable_ifIXntsr8is_arrayIT_EE5valueES4_E4typeEEDpOT0_,"axG",@progbits,_ZSt11make_sharedIN5clang22PCHContainerOperationsEJEESt10shared_ptrINSt9enable_ifIXntsr8is_arrayIT_EE5valueES4_E4typeEEDpOT0_,comdat
	.weak	_ZSt11make_sharedIN5clang22PCHContainerOperationsEJEESt10shared_ptrINSt9enable_ifIXntsr8is_arrayIT_EE5valueES4_E4typeEEDpOT0_ # -- Begin function _ZSt11make_sharedIN5clang22PCHContainerOperationsEJEESt10shared_ptrINSt9enable_ifIXntsr8is_arrayIT_EE5valueES4_E4typeEEDpOT0_
	.p2align	4
	.type	_ZSt11make_sharedIN5clang22PCHContainerOperationsEJEESt10shared_ptrINSt9enable_ifIXntsr8is_arrayIT_EE5valueES4_E4typeEEDpOT0_,@function
_ZSt11make_sharedIN5clang22PCHContainerOperationsEJEESt10shared_ptrINSt9enable_ifIXntsr8is_arrayIT_EE5valueES4_E4typeEEDpOT0_: # @_ZSt11make_sharedIN5clang22PCHContainerOperationsEJEESt10shared_ptrINSt9enable_ifIXntsr8is_arrayIT_EE5valueES4_E4typeEEDpOT0_
	.cfi_startproc
# %bb.0:
	pushq	%rbp
	.cfi_def_cfa_offset 16
	.cfi_offset %rbp, -16
	movq	%rsp, %rbp
	.cfi_def_cfa_register %rbp
	subq	$48, %rsp
	movq	%rdi, %rax
	movq	%rax, -40(%rbp)                 # 8-byte Spill
	movq	%fs:40, %rax
	movq	%rax, -8(%rbp)
	movq	%rdi, -24(%rbp)
	leaq	-9(%rbp), %rax
	movq	%rax, -32(%rbp)
	movq	-32(%rbp), %rsi
	callq	_ZNSt10shared_ptrIN5clang22PCHContainerOperationsEEC2ISaIvEJEEESt20_Sp_alloc_shared_tagIT_EDpOT0_
	movq	%fs:40, %rax
	movq	-8(%rbp), %rcx
	cmpq	%rcx, %rax
	jne	.LBB16_2
# %bb.1:
	movq	-40(%rbp), %rax                 # 8-byte Reload
	addq	$48, %rsp
	popq	%rbp
	.cfi_def_cfa %rsp, 8
	retq
.LBB16_2:
	.cfi_def_cfa %rbp, 16
	callq	__stack_chk_fail@PLT
.Lfunc_end16:
	.size	_ZSt11make_sharedIN5clang22PCHContainerOperationsEJEESt10shared_ptrINSt9enable_ifIXntsr8is_arrayIT_EE5valueES4_E4typeEEDpOT0_, .Lfunc_end16-_ZSt11make_sharedIN5clang22PCHContainerOperationsEJEESt10shared_ptrINSt9enable_ifIXntsr8is_arrayIT_EE5valueES4_E4typeEEDpOT0_
	.cfi_endproc
                                        # -- End function
	.section	.text._ZNSt10shared_ptrIN5clang22PCHContainerOperationsEED2Ev,"axG",@progbits,_ZNSt10shared_ptrIN5clang22PCHContainerOperationsEED2Ev,comdat
	.weak	_ZNSt10shared_ptrIN5clang22PCHContainerOperationsEED2Ev # -- Begin function _ZNSt10shared_ptrIN5clang22PCHContainerOperationsEED2Ev
	.p2align	4
	.type	_ZNSt10shared_ptrIN5clang22PCHContainerOperationsEED2Ev,@function
_ZNSt10shared_ptrIN5clang22PCHContainerOperationsEED2Ev: # @_ZNSt10shared_ptrIN5clang22PCHContainerOperationsEED2Ev
	.cfi_startproc
# %bb.0:
	pushq	%rbp
	.cfi_def_cfa_offset 16
	.cfi_offset %rbp, -16
	movq	%rsp, %rbp
	.cfi_def_cfa_register %rbp
	subq	$16, %rsp
	movq	%rdi, -8(%rbp)
	movq	-8(%rbp), %rdi
	callq	_ZNSt12__shared_ptrIN5clang22PCHContainerOperationsELN9__gnu_cxx12_Lock_policyE2EED2Ev
	addq	$16, %rsp
	popq	%rbp
	.cfi_def_cfa %rsp, 8
	retq
.Lfunc_end17:
	.size	_ZNSt10shared_ptrIN5clang22PCHContainerOperationsEED2Ev, .Lfunc_end17-_ZNSt10shared_ptrIN5clang22PCHContainerOperationsEED2Ev
	.cfi_endproc
                                        # -- End function
	.section	.text._ZSt11make_sharedIN5clang13TargetOptionsEJEESt10shared_ptrINSt9enable_ifIXntsr8is_arrayIT_EE5valueES4_E4typeEEDpOT0_,"axG",@progbits,_ZSt11make_sharedIN5clang13TargetOptionsEJEESt10shared_ptrINSt9enable_ifIXntsr8is_arrayIT_EE5valueES4_E4typeEEDpOT0_,comdat
	.weak	_ZSt11make_sharedIN5clang13TargetOptionsEJEESt10shared_ptrINSt9enable_ifIXntsr8is_arrayIT_EE5valueES4_E4typeEEDpOT0_ # -- Begin function _ZSt11make_sharedIN5clang13TargetOptionsEJEESt10shared_ptrINSt9enable_ifIXntsr8is_arrayIT_EE5valueES4_E4typeEEDpOT0_
	.p2align	4
	.type	_ZSt11make_sharedIN5clang13TargetOptionsEJEESt10shared_ptrINSt9enable_ifIXntsr8is_arrayIT_EE5valueES4_E4typeEEDpOT0_,@function
_ZSt11make_sharedIN5clang13TargetOptionsEJEESt10shared_ptrINSt9enable_ifIXntsr8is_arrayIT_EE5valueES4_E4typeEEDpOT0_: # @_ZSt11make_sharedIN5clang13TargetOptionsEJEESt10shared_ptrINSt9enable_ifIXntsr8is_arrayIT_EE5valueES4_E4typeEEDpOT0_
	.cfi_startproc
# %bb.0:
	pushq	%rbp
	.cfi_def_cfa_offset 16
	.cfi_offset %rbp, -16
	movq	%rsp, %rbp
	.cfi_def_cfa_register %rbp
	subq	$48, %rsp
	movq	%rdi, %rax
	movq	%rax, -40(%rbp)                 # 8-byte Spill
	movq	%fs:40, %rax
	movq	%rax, -8(%rbp)
	movq	%rdi, -24(%rbp)
	leaq	-9(%rbp), %rax
	movq	%rax, -32(%rbp)
	movq	-32(%rbp), %rsi
	callq	_ZNSt10shared_ptrIN5clang13TargetOptionsEEC2ISaIvEJEEESt20_Sp_alloc_shared_tagIT_EDpOT0_
	movq	%fs:40, %rax
	movq	-8(%rbp), %rcx
	cmpq	%rcx, %rax
	jne	.LBB18_2
# %bb.1:
	movq	-40(%rbp), %rax                 # 8-byte Reload
	addq	$48, %rsp
	popq	%rbp
	.cfi_def_cfa %rsp, 8
	retq
.LBB18_2:
	.cfi_def_cfa %rbp, 16
	callq	__stack_chk_fail@PLT
.Lfunc_end18:
	.size	_ZSt11make_sharedIN5clang13TargetOptionsEJEESt10shared_ptrINSt9enable_ifIXntsr8is_arrayIT_EE5valueES4_E4typeEEDpOT0_, .Lfunc_end18-_ZSt11make_sharedIN5clang13TargetOptionsEJEESt10shared_ptrINSt9enable_ifIXntsr8is_arrayIT_EE5valueES4_E4typeEEDpOT0_
	.cfi_endproc
                                        # -- End function
	.section	.text._ZNKSt19__shared_ptr_accessIN5clang13TargetOptionsELN9__gnu_cxx12_Lock_policyE2ELb0ELb0EEptEv,"axG",@progbits,_ZNKSt19__shared_ptr_accessIN5clang13TargetOptionsELN9__gnu_cxx12_Lock_policyE2ELb0ELb0EEptEv,comdat
	.weak	_ZNKSt19__shared_ptr_accessIN5clang13TargetOptionsELN9__gnu_cxx12_Lock_policyE2ELb0ELb0EEptEv # -- Begin function _ZNKSt19__shared_ptr_accessIN5clang13TargetOptionsELN9__gnu_cxx12_Lock_policyE2ELb0ELb0EEptEv
	.p2align	4
	.type	_ZNKSt19__shared_ptr_accessIN5clang13TargetOptionsELN9__gnu_cxx12_Lock_policyE2ELb0ELb0EEptEv,@function
_ZNKSt19__shared_ptr_accessIN5clang13TargetOptionsELN9__gnu_cxx12_Lock_policyE2ELb0ELb0EEptEv: # @_ZNKSt19__shared_ptr_accessIN5clang13TargetOptionsELN9__gnu_cxx12_Lock_policyE2ELb0ELb0EEptEv
	.cfi_startproc
# %bb.0:
	pushq	%rbp
	.cfi_def_cfa_offset 16
	.cfi_offset %rbp, -16
	movq	%rsp, %rbp
	.cfi_def_cfa_register %rbp
	subq	$16, %rsp
	movq	%rdi, -8(%rbp)
	movq	-8(%rbp), %rdi
	callq	_ZNKSt19__shared_ptr_accessIN5clang13TargetOptionsELN9__gnu_cxx12_Lock_policyE2ELb0ELb0EE6_M_getEv
	addq	$16, %rsp
	popq	%rbp
	.cfi_def_cfa %rsp, 8
	retq
.Lfunc_end19:
	.size	_ZNKSt19__shared_ptr_accessIN5clang13TargetOptionsELN9__gnu_cxx12_Lock_policyE2ELb0ELb0EEptEv, .Lfunc_end19-_ZNKSt19__shared_ptr_accessIN5clang13TargetOptionsELN9__gnu_cxx12_Lock_policyE2ELb0ELb0EEptEv
	.cfi_endproc
                                        # -- End function
	.section	.text._ZNSt7__cxx1112basic_stringIcSt11char_traitsIcESaIcEEaSEPKc,"axG",@progbits,_ZNSt7__cxx1112basic_stringIcSt11char_traitsIcESaIcEEaSEPKc,comdat
	.weak	_ZNSt7__cxx1112basic_stringIcSt11char_traitsIcESaIcEEaSEPKc # -- Begin function _ZNSt7__cxx1112basic_stringIcSt11char_traitsIcESaIcEEaSEPKc
	.p2align	4
	.type	_ZNSt7__cxx1112basic_stringIcSt11char_traitsIcESaIcEEaSEPKc,@function
_ZNSt7__cxx1112basic_stringIcSt11char_traitsIcESaIcEEaSEPKc: # @_ZNSt7__cxx1112basic_stringIcSt11char_traitsIcESaIcEEaSEPKc
	.cfi_startproc
# %bb.0:
	pushq	%rbp
	.cfi_def_cfa_offset 16
	.cfi_offset %rbp, -16
	movq	%rsp, %rbp
	.cfi_def_cfa_register %rbp
	subq	$16, %rsp
	movq	%rdi, -8(%rbp)
	movq	%rsi, -16(%rbp)
	movq	-8(%rbp), %rdi
	movq	-16(%rbp), %rsi
	callq	_ZNSt7__cxx1112basic_stringIcSt11char_traitsIcESaIcEE6assignEPKc
	addq	$16, %rsp
	popq	%rbp
	.cfi_def_cfa %rsp, 8
	retq
.Lfunc_end20:
	.size	_ZNSt7__cxx1112basic_stringIcSt11char_traitsIcESaIcEEaSEPKc, .Lfunc_end20-_ZNSt7__cxx1112basic_stringIcSt11char_traitsIcESaIcEEaSEPKc
	.cfi_endproc
                                        # -- End function
	.section	.text._ZNK5clang16CompilerInstance14getDiagnosticsEv,"axG",@progbits,_ZNK5clang16CompilerInstance14getDiagnosticsEv,comdat
	.weak	_ZNK5clang16CompilerInstance14getDiagnosticsEv # -- Begin function _ZNK5clang16CompilerInstance14getDiagnosticsEv
	.p2align	4
	.type	_ZNK5clang16CompilerInstance14getDiagnosticsEv,@function
_ZNK5clang16CompilerInstance14getDiagnosticsEv: # @_ZNK5clang16CompilerInstance14getDiagnosticsEv
	.cfi_startproc
# %bb.0:
	pushq	%rbp
	.cfi_def_cfa_offset 16
	.cfi_offset %rbp, -16
	movq	%rsp, %rbp
	.cfi_def_cfa_register %rbp
	subq	$32, %rsp
	movq	%rdi, -8(%rbp)
	movq	-8(%rbp), %rdi
	movq	%rdi, -24(%rbp)                 # 8-byte Spill
	addq	$32, %rdi
	callq	_ZNK4llvm18IntrusiveRefCntPtrIN5clang17DiagnosticsEngineEEcvbEv
	movb	%al, %cl
	xorl	%eax, %eax
                                        # kill: def $al killed $al killed $eax
	testb	$1, %cl
	movb	%al, -9(%rbp)                   # 1-byte Spill
	jne	.LBB21_1
	jmp	.LBB21_2
.LBB21_1:
	movb	$1, %al
	movb	%al, -9(%rbp)                   # 1-byte Spill
	jmp	.LBB21_2
.LBB21_2:
	movb	-9(%rbp), %al                   # 1-byte Reload
	testb	$1, %al
	jne	.LBB21_3
	jmp	.LBB21_4
.LBB21_3:
	jmp	.LBB21_5
.LBB21_4:
	leaq	.L.str.21(%rip), %rdi
	leaq	.L.str.22(%rip), %rsi
	movl	$369, %edx                      # imm = 0x171
	leaq	.L__PRETTY_FUNCTION__._ZNK5clang16CompilerInstance14getDiagnosticsEv(%rip), %rcx
	callq	__assert_fail@PLT
.LBB21_5:
	movq	-24(%rbp), %rdi                 # 8-byte Reload
	addq	$32, %rdi
	callq	_ZNK4llvm18IntrusiveRefCntPtrIN5clang17DiagnosticsEngineEEdeEv
	addq	$32, %rsp
	popq	%rbp
	.cfi_def_cfa %rsp, 8
	retq
.Lfunc_end21:
	.size	_ZNK5clang16CompilerInstance14getDiagnosticsEv, .Lfunc_end21-_ZNK5clang16CompilerInstance14getDiagnosticsEv
	.cfi_endproc
                                        # -- End function
	.section	.text._ZN5clang16CompilerInstance11getLangOptsEv,"axG",@progbits,_ZN5clang16CompilerInstance11getLangOptsEv,comdat
	.weak	_ZN5clang16CompilerInstance11getLangOptsEv # -- Begin function _ZN5clang16CompilerInstance11getLangOptsEv
	.p2align	4
	.type	_ZN5clang16CompilerInstance11getLangOptsEv,@function
_ZN5clang16CompilerInstance11getLangOptsEv: # @_ZN5clang16CompilerInstance11getLangOptsEv
	.cfi_startproc
# %bb.0:
	pushq	%rbp
	.cfi_def_cfa_offset 16
	.cfi_offset %rbp, -16
	movq	%rsp, %rbp
	.cfi_def_cfa_register %rbp
	subq	$16, %rsp
	movq	%rdi, -8(%rbp)
	movq	-8(%rbp), %rdi
	addq	$16, %rdi
	callq	_ZNKSt19__shared_ptr_accessIN5clang18CompilerInvocationELN9__gnu_cxx12_Lock_policyE2ELb0ELb0EEptEv
	movq	%rax, %rdi
	callq	_ZN5clang18CompilerInvocation11getLangOptsEv
	addq	$16, %rsp
	popq	%rbp
	.cfi_def_cfa %rsp, 8
	retq
.Lfunc_end22:
	.size	_ZN5clang16CompilerInstance11getLangOptsEv, .Lfunc_end22-_ZN5clang16CompilerInstance11getLangOptsEv
	.cfi_endproc
                                        # -- End function
	.section	.text._ZN4llvm18IntrusiveRefCntPtrINS_3vfs10FileSystemEEC2EPS2_,"axG",@progbits,_ZN4llvm18IntrusiveRefCntPtrINS_3vfs10FileSystemEEC2EPS2_,comdat
	.weak	_ZN4llvm18IntrusiveRefCntPtrINS_3vfs10FileSystemEEC2EPS2_ # -- Begin function _ZN4llvm18IntrusiveRefCntPtrINS_3vfs10FileSystemEEC2EPS2_
	.p2align	4
	.type	_ZN4llvm18IntrusiveRefCntPtrINS_3vfs10FileSystemEEC2EPS2_,@function
_ZN4llvm18IntrusiveRefCntPtrINS_3vfs10FileSystemEEC2EPS2_: # @_ZN4llvm18IntrusiveRefCntPtrINS_3vfs10FileSystemEEC2EPS2_
	.cfi_startproc
# %bb.0:
	pushq	%rbp
	.cfi_def_cfa_offset 16
	.cfi_offset %rbp, -16
	movq	%rsp, %rbp
	.cfi_def_cfa_register %rbp
	subq	$16, %rsp
	movq	%rdi, -8(%rbp)
	movq	%rsi, -16(%rbp)
	movq	-8(%rbp), %rdi
	movq	-16(%rbp), %rax
	movq	%rax, (%rdi)
	callq	_ZN4llvm18IntrusiveRefCntPtrINS_3vfs10FileSystemEE6retainEv
	addq	$16, %rsp
	popq	%rbp
	.cfi_def_cfa %rsp, 8
	retq
.Lfunc_end23:
	.size	_ZN4llvm18IntrusiveRefCntPtrINS_3vfs10FileSystemEEC2EPS2_, .Lfunc_end23-_ZN4llvm18IntrusiveRefCntPtrINS_3vfs10FileSystemEEC2EPS2_
	.cfi_endproc
                                        # -- End function
	.section	.text._ZN4llvm18IntrusiveRefCntPtrINS_3vfs10FileSystemEED2Ev,"axG",@progbits,_ZN4llvm18IntrusiveRefCntPtrINS_3vfs10FileSystemEED2Ev,comdat
	.weak	_ZN4llvm18IntrusiveRefCntPtrINS_3vfs10FileSystemEED2Ev # -- Begin function _ZN4llvm18IntrusiveRefCntPtrINS_3vfs10FileSystemEED2Ev
	.p2align	4
	.type	_ZN4llvm18IntrusiveRefCntPtrINS_3vfs10FileSystemEED2Ev,@function
_ZN4llvm18IntrusiveRefCntPtrINS_3vfs10FileSystemEED2Ev: # @_ZN4llvm18IntrusiveRefCntPtrINS_3vfs10FileSystemEED2Ev
.Lfunc_begin7:
	.cfi_startproc
	.cfi_personality 155, DW.ref.__gxx_personality_v0
	.cfi_lsda 27, .Lexception7
# %bb.0:
	pushq	%rbp
	.cfi_def_cfa_offset 16
	.cfi_offset %rbp, -16
	movq	%rsp, %rbp
	.cfi_def_cfa_register %rbp
	subq	$16, %rsp
	movq	%rdi, -8(%rbp)
	movq	-8(%rbp), %rdi
.Ltmp145:
	callq	_ZN4llvm18IntrusiveRefCntPtrINS_3vfs10FileSystemEE7releaseEv
.Ltmp146:
	jmp	.LBB24_1
.LBB24_1:
	addq	$16, %rsp
	popq	%rbp
	.cfi_def_cfa %rsp, 8
	retq
.LBB24_2:
	.cfi_def_cfa %rbp, 16
.Ltmp147:
	movq	%rax, %rdi
                                        # kill: def $eax killed $edx killed $rdx
	callq	__clang_call_terminate
.Lfunc_end24:
	.size	_ZN4llvm18IntrusiveRefCntPtrINS_3vfs10FileSystemEED2Ev, .Lfunc_end24-_ZN4llvm18IntrusiveRefCntPtrINS_3vfs10FileSystemEED2Ev
	.cfi_endproc
	.section	.gcc_except_table._ZN4llvm18IntrusiveRefCntPtrINS_3vfs10FileSystemEED2Ev,"aG",@progbits,_ZN4llvm18IntrusiveRefCntPtrINS_3vfs10FileSystemEED2Ev,comdat
	.p2align	2, 0x0
GCC_except_table24:
.Lexception7:
	.byte	255                             # @LPStart Encoding = omit
	.byte	155                             # @TType Encoding = indirect pcrel sdata4
	.uleb128 .Lttbase2-.Lttbaseref2
.Lttbaseref2:
	.byte	1                               # Call site Encoding = uleb128
	.uleb128 .Lcst_end7-.Lcst_begin7
.Lcst_begin7:
	.uleb128 .Ltmp145-.Lfunc_begin7         # >> Call Site 1 <<
	.uleb128 .Ltmp146-.Ltmp145              #   Call between .Ltmp145 and .Ltmp146
	.uleb128 .Ltmp147-.Lfunc_begin7         #     jumps to .Ltmp147
	.byte	1                               #   On action: 1
.Lcst_end7:
	.byte	1                               # >> Action Record 1 <<
                                        #   Catch TypeInfo 1
	.byte	0                               #   No further actions
	.p2align	2, 0x0
                                        # >> Catch TypeInfos <<
	.long	0                               # TypeInfo 1
.Lttbase2:
	.p2align	2, 0x0
                                        # -- End function
	.section	.text._ZNK5clang16CompilerInstance14getFileManagerEv,"axG",@progbits,_ZNK5clang16CompilerInstance14getFileManagerEv,comdat
	.weak	_ZNK5clang16CompilerInstance14getFileManagerEv # -- Begin function _ZNK5clang16CompilerInstance14getFileManagerEv
	.p2align	4
	.type	_ZNK5clang16CompilerInstance14getFileManagerEv,@function
_ZNK5clang16CompilerInstance14getFileManagerEv: # @_ZNK5clang16CompilerInstance14getFileManagerEv
	.cfi_startproc
# %bb.0:
	pushq	%rbp
	.cfi_def_cfa_offset 16
	.cfi_offset %rbp, -16
	movq	%rsp, %rbp
	.cfi_def_cfa_register %rbp
	subq	$32, %rsp
	movq	%rdi, -8(%rbp)
	movq	-8(%rbp), %rdi
	movq	%rdi, -24(%rbp)                 # 8-byte Spill
	addq	$56, %rdi
	callq	_ZNK4llvm18IntrusiveRefCntPtrIN5clang11FileManagerEEcvbEv
	movb	%al, %cl
	xorl	%eax, %eax
                                        # kill: def $al killed $al killed $eax
	testb	$1, %cl
	movb	%al, -9(%rbp)                   # 1-byte Spill
	jne	.LBB25_1
	jmp	.LBB25_2
.LBB25_1:
	movb	$1, %al
	movb	%al, -9(%rbp)                   # 1-byte Spill
	jmp	.LBB25_2
.LBB25_2:
	movb	-9(%rbp), %al                   # 1-byte Reload
	testb	$1, %al
	jne	.LBB25_3
	jmp	.LBB25_4
.LBB25_3:
	jmp	.LBB25_5
.LBB25_4:
	leaq	.L.str.26(%rip), %rdi
	leaq	.L.str.22(%rip), %rsi
	movl	$447, %edx                      # imm = 0x1BF
	leaq	.L__PRETTY_FUNCTION__._ZNK5clang16CompilerInstance14getFileManagerEv(%rip), %rcx
	callq	__assert_fail@PLT
.LBB25_5:
	movq	-24(%rbp), %rdi                 # 8-byte Reload
	addq	$56, %rdi
	callq	_ZNK4llvm18IntrusiveRefCntPtrIN5clang11FileManagerEEdeEv
	addq	$32, %rsp
	popq	%rbp
	.cfi_def_cfa %rsp, 8
	retq
.Lfunc_end25:
	.size	_ZNK5clang16CompilerInstance14getFileManagerEv, .Lfunc_end25-_ZNK5clang16CompilerInstance14getFileManagerEv
	.cfi_endproc
                                        # -- End function
	.section	.text._ZN5clang19CodeCompleteOptionsC2Ev,"axG",@progbits,_ZN5clang19CodeCompleteOptionsC2Ev,comdat
	.weak	_ZN5clang19CodeCompleteOptionsC2Ev # -- Begin function _ZN5clang19CodeCompleteOptionsC2Ev
	.p2align	4
	.type	_ZN5clang19CodeCompleteOptionsC2Ev,@function
_ZN5clang19CodeCompleteOptionsC2Ev:     # @_ZN5clang19CodeCompleteOptionsC2Ev
	.cfi_startproc
# %bb.0:
	pushq	%rbp
	.cfi_def_cfa_offset 16
	.cfi_offset %rbp, -16
	movq	%rsp, %rbp
	.cfi_def_cfa_register %rbp
	movq	%rdi, -8(%rbp)
	movq	-8(%rbp), %rax
	movb	(%rax), %cl
	andb	$-2, %cl
	orb	$0, %cl
	movb	%cl, (%rax)
	movb	(%rax), %cl
	andb	$-3, %cl
	orb	$0, %cl
	movb	%cl, (%rax)
	movb	(%rax), %cl
	andb	$-5, %cl
	orb	$4, %cl
	movb	%cl, (%rax)
	movb	(%rax), %cl
	andb	$-9, %cl
	orb	$8, %cl
	movb	%cl, (%rax)
	movb	(%rax), %cl
	andb	$-17, %cl
	orb	$0, %cl
	movb	%cl, (%rax)
	movb	(%rax), %cl
	andb	$-33, %cl
	orb	$32, %cl
	movb	%cl, (%rax)
	movb	(%rax), %cl
	andb	$-65, %cl
	orb	$0, %cl
	movb	%cl, (%rax)
	popq	%rbp
	.cfi_def_cfa %rsp, 8
	retq
.Lfunc_end26:
	.size	_ZN5clang19CodeCompleteOptionsC2Ev, .Lfunc_end26-_ZN5clang19CodeCompleteOptionsC2Ev
	.cfi_endproc
                                        # -- End function
	.section	.text._ZNK5clang16CompilerInstance16getSourceManagerEv,"axG",@progbits,_ZNK5clang16CompilerInstance16getSourceManagerEv,comdat
	.weak	_ZNK5clang16CompilerInstance16getSourceManagerEv # -- Begin function _ZNK5clang16CompilerInstance16getSourceManagerEv
	.p2align	4
	.type	_ZNK5clang16CompilerInstance16getSourceManagerEv,@function
_ZNK5clang16CompilerInstance16getSourceManagerEv: # @_ZNK5clang16CompilerInstance16getSourceManagerEv
	.cfi_startproc
# %bb.0:
	pushq	%rbp
	.cfi_def_cfa_offset 16
	.cfi_offset %rbp, -16
	movq	%rsp, %rbp
	.cfi_def_cfa_register %rbp
	subq	$32, %rsp
	movq	%rdi, -8(%rbp)
	movq	-8(%rbp), %rdi
	movq	%rdi, -24(%rbp)                 # 8-byte Spill
	addq	$64, %rdi
	callq	_ZNK4llvm18IntrusiveRefCntPtrIN5clang13SourceManagerEEcvbEv
	movb	%al, %cl
	xorl	%eax, %eax
                                        # kill: def $al killed $al killed $eax
	testb	$1, %cl
	movb	%al, -9(%rbp)                   # 1-byte Spill
	jne	.LBB27_1
	jmp	.LBB27_2
.LBB27_1:
	movb	$1, %al
	movb	%al, -9(%rbp)                   # 1-byte Spill
	jmp	.LBB27_2
.LBB27_2:
	movb	-9(%rbp), %al                   # 1-byte Reload
	testb	$1, %al
	jne	.LBB27_3
	jmp	.LBB27_4
.LBB27_3:
	jmp	.LBB27_5
.LBB27_4:
	leaq	.L.str.28(%rip), %rdi
	leaq	.L.str.22(%rip), %rsi
	movl	$472, %edx                      # imm = 0x1D8
	leaq	.L__PRETTY_FUNCTION__._ZNK5clang16CompilerInstance16getSourceManagerEv(%rip), %rcx
	callq	__assert_fail@PLT
.LBB27_5:
	movq	-24(%rbp), %rdi                 # 8-byte Reload
	addq	$64, %rdi
	callq	_ZNK4llvm18IntrusiveRefCntPtrIN5clang13SourceManagerEEdeEv
	addq	$32, %rsp
	popq	%rbp
	.cfi_def_cfa %rsp, 8
	retq
.Lfunc_end27:
	.size	_ZNK5clang16CompilerInstance16getSourceManagerEv, .Lfunc_end27-_ZNK5clang16CompilerInstance16getSourceManagerEv
	.cfi_endproc
                                        # -- End function
	.section	.text._ZN26CustomCodeCompleteConsumerC2ERKN5clang19CodeCompleteOptionsERNS0_13SourceManagerE,"axG",@progbits,_ZN26CustomCodeCompleteConsumerC2ERKN5clang19CodeCompleteOptionsERNS0_13SourceManagerE,comdat
	.weak	_ZN26CustomCodeCompleteConsumerC2ERKN5clang19CodeCompleteOptionsERNS0_13SourceManagerE # -- Begin function _ZN26CustomCodeCompleteConsumerC2ERKN5clang19CodeCompleteOptionsERNS0_13SourceManagerE
	.p2align	4
	.type	_ZN26CustomCodeCompleteConsumerC2ERKN5clang19CodeCompleteOptionsERNS0_13SourceManagerE,@function
_ZN26CustomCodeCompleteConsumerC2ERKN5clang19CodeCompleteOptionsERNS0_13SourceManagerE: # @_ZN26CustomCodeCompleteConsumerC2ERKN5clang19CodeCompleteOptionsERNS0_13SourceManagerE
.Lfunc_begin8:
	.cfi_startproc
	.cfi_personality 155, DW.ref.__gxx_personality_v0
	.cfi_lsda 27, .Lexception8
# %bb.0:
	pushq	%rbp
	.cfi_def_cfa_offset 16
	.cfi_offset %rbp, -16
	movq	%rsp, %rbp
	.cfi_def_cfa_register %rbp
	subq	$112, %rsp
	movq	%fs:40, %rax
	movq	%rax, -8(%rbp)
	movq	%rdi, -48(%rbp)
	movq	%rsi, -56(%rbp)
	movq	%rdx, -64(%rbp)
	movq	-48(%rbp), %rdi
	movq	%rdi, -96(%rbp)                 # 8-byte Spill
	movq	-56(%rbp), %rsi
	callq	_ZN5clang20CodeCompleteConsumerC2ERKNS_19CodeCompleteOptionsE
	movq	-96(%rbp), %rax                 # 8-byte Reload
	leaq	_ZTV26CustomCodeCompleteConsumer+16(%rip), %rcx
	movq	%rcx, (%rax)
	addq	$16, %rax
	movq	%rax, -88(%rbp)                 # 8-byte Spill
.Ltmp148:
	leaq	-24(%rbp), %rdi
	callq	_ZSt11make_sharedIN5clang29GlobalCodeCompletionAllocatorEJEESt10shared_ptrINSt9enable_ifIXntsr8is_arrayIT_EE5valueES4_E4typeEEDpOT0_
.Ltmp149:
	jmp	.LBB28_1
.LBB28_1:
.Ltmp151:
	movq	-88(%rbp), %rdi                 # 8-byte Reload
	leaq	-24(%rbp), %rsi
	callq	_ZN5clang20CodeCompletionTUInfoC2ESt10shared_ptrINS_29GlobalCodeCompletionAllocatorEE
.Ltmp152:
	jmp	.LBB28_2
.LBB28_2:
	leaq	-24(%rbp), %rdi
	callq	_ZNSt10shared_ptrIN5clang29GlobalCodeCompletionAllocatorEED2Ev
	movq	-96(%rbp), %rax                 # 8-byte Reload
	addq	$56, %rax
	movq	%rax, -104(%rbp)                # 8-byte Spill
	leaq	-40(%rbp), %rdi
	callq	_ZNSt16initializer_listIN8nlohmann10basic_jsonISt3mapSt6vectorNSt7__cxx1112basic_stringIcSt11char_traitsIcESaIcEEEblmdSaNS0_14adl_serializerEEEEC2Ev
	movq	-104(%rbp), %rdi                # 8-byte Reload
	movq	-40(%rbp), %rsi
	movq	-32(%rbp), %rdx
.Ltmp154:
	callq	_ZN8nlohmann10basic_jsonISt3mapSt6vectorNSt7__cxx1112basic_stringIcSt11char_traitsIcESaIcEEEblmdSaNS_14adl_serializerEE5arrayESt16initializer_listISA_E
.Ltmp155:
	jmp	.LBB28_3
.LBB28_3:
	movq	-96(%rbp), %rax                 # 8-byte Reload
	movq	-64(%rbp), %rcx
	movq	%rcx, 72(%rax)
	movq	%fs:40, %rax
	movq	-8(%rbp), %rcx
	cmpq	%rcx, %rax
	jne	.LBB28_11
# %bb.4:
	addq	$112, %rsp
	popq	%rbp
	.cfi_def_cfa %rsp, 8
	retq
.LBB28_5:
	.cfi_def_cfa %rbp, 16
.Ltmp150:
	movq	%rax, %rcx
	movl	%edx, %eax
	movq	%rcx, -72(%rbp)
	movl	%eax, -76(%rbp)
	jmp	.LBB28_8
.LBB28_6:
.Ltmp153:
	movq	%rax, %rcx
	movl	%edx, %eax
	movq	%rcx, -72(%rbp)
	movl	%eax, -76(%rbp)
	leaq	-24(%rbp), %rdi
	callq	_ZNSt10shared_ptrIN5clang29GlobalCodeCompletionAllocatorEED2Ev
	jmp	.LBB28_8
.LBB28_7:
.Ltmp156:
	movq	-88(%rbp), %rdi                 # 8-byte Reload
	movq	%rax, %rcx
	movl	%edx, %eax
	movq	%rcx, -72(%rbp)
	movl	%eax, -76(%rbp)
	callq	_ZN5clang20CodeCompletionTUInfoD2Ev
.LBB28_8:
	movq	-96(%rbp), %rdi                 # 8-byte Reload
	callq	_ZN5clang20CodeCompleteConsumerD2Ev@PLT
# %bb.9:
	movq	-72(%rbp), %rax
	movq	%rax, -112(%rbp)                # 8-byte Spill
	movq	%fs:40, %rax
	movq	-8(%rbp), %rcx
	cmpq	%rcx, %rax
	jne	.LBB28_11
# %bb.10:
	movq	-112(%rbp), %rdi                # 8-byte Reload
	callq	_Unwind_Resume@PLT
.LBB28_11:
	callq	__stack_chk_fail@PLT
.Lfunc_end28:
	.size	_ZN26CustomCodeCompleteConsumerC2ERKN5clang19CodeCompleteOptionsERNS0_13SourceManagerE, .Lfunc_end28-_ZN26CustomCodeCompleteConsumerC2ERKN5clang19CodeCompleteOptionsERNS0_13SourceManagerE
	.cfi_endproc
	.section	.gcc_except_table._ZN26CustomCodeCompleteConsumerC2ERKN5clang19CodeCompleteOptionsERNS0_13SourceManagerE,"aG",@progbits,_ZN26CustomCodeCompleteConsumerC2ERKN5clang19CodeCompleteOptionsERNS0_13SourceManagerE,comdat
	.p2align	2, 0x0
GCC_except_table28:
.Lexception8:
	.byte	255                             # @LPStart Encoding = omit
	.byte	255                             # @TType Encoding = omit
	.byte	1                               # Call site Encoding = uleb128
	.uleb128 .Lcst_end8-.Lcst_begin8
.Lcst_begin8:
	.uleb128 .Ltmp148-.Lfunc_begin8         # >> Call Site 1 <<
	.uleb128 .Ltmp149-.Ltmp148              #   Call between .Ltmp148 and .Ltmp149
	.uleb128 .Ltmp150-.Lfunc_begin8         #     jumps to .Ltmp150
	.byte	0                               #   On action: cleanup
	.uleb128 .Ltmp151-.Lfunc_begin8         # >> Call Site 2 <<
	.uleb128 .Ltmp152-.Ltmp151              #   Call between .Ltmp151 and .Ltmp152
	.uleb128 .Ltmp153-.Lfunc_begin8         #     jumps to .Ltmp153
	.byte	0                               #   On action: cleanup
	.uleb128 .Ltmp154-.Lfunc_begin8         # >> Call Site 3 <<
	.uleb128 .Ltmp155-.Ltmp154              #   Call between .Ltmp154 and .Ltmp155
	.uleb128 .Ltmp156-.Lfunc_begin8         #     jumps to .Ltmp156
	.byte	0                               #   On action: cleanup
	.uleb128 .Ltmp155-.Lfunc_begin8         # >> Call Site 4 <<
	.uleb128 .Lfunc_end28-.Ltmp155          #   Call between .Ltmp155 and .Lfunc_end28
	.byte	0                               #     has no landing pad
	.byte	0                               #   On action: cleanup
.Lcst_end8:
	.p2align	2, 0x0
                                        # -- End function
	.section	.text._ZN5clang16CompilerInstance15getFrontendOptsEv,"axG",@progbits,_ZN5clang16CompilerInstance15getFrontendOptsEv,comdat
	.weak	_ZN5clang16CompilerInstance15getFrontendOptsEv # -- Begin function _ZN5clang16CompilerInstance15getFrontendOptsEv
	.p2align	4
	.type	_ZN5clang16CompilerInstance15getFrontendOptsEv,@function
_ZN5clang16CompilerInstance15getFrontendOptsEv: # @_ZN5clang16CompilerInstance15getFrontendOptsEv
	.cfi_startproc
# %bb.0:
	pushq	%rbp
	.cfi_def_cfa_offset 16
	.cfi_offset %rbp, -16
	movq	%rsp, %rbp
	.cfi_def_cfa_register %rbp
	subq	$16, %rsp
	movq	%rdi, -8(%rbp)
	movq	-8(%rbp), %rdi
	addq	$16, %rdi
	callq	_ZNKSt19__shared_ptr_accessIN5clang18CompilerInvocationELN9__gnu_cxx12_Lock_policyE2ELb0ELb0EEptEv
	movq	%rax, %rdi
	callq	_ZN5clang18CompilerInvocation15getFrontendOptsEv
	addq	$16, %rsp
	popq	%rbp
	.cfi_def_cfa %rsp, 8
	retq
.Lfunc_end29:
	.size	_ZN5clang16CompilerInstance15getFrontendOptsEv, .Lfunc_end29-_ZN5clang16CompilerInstance15getFrontendOptsEv
	.cfi_endproc
                                        # -- End function
	.section	.text._ZN4llvm23SmallVectorTemplateBaseIN5clang17FrontendInputFileELb0EE9push_backEOS2_,"axG",@progbits,_ZN4llvm23SmallVectorTemplateBaseIN5clang17FrontendInputFileELb0EE9push_backEOS2_,comdat
	.weak	_ZN4llvm23SmallVectorTemplateBaseIN5clang17FrontendInputFileELb0EE9push_backEOS2_ # -- Begin function _ZN4llvm23SmallVectorTemplateBaseIN5clang17FrontendInputFileELb0EE9push_backEOS2_
	.p2align	4
	.type	_ZN4llvm23SmallVectorTemplateBaseIN5clang17FrontendInputFileELb0EE9push_backEOS2_,@function
_ZN4llvm23SmallVectorTemplateBaseIN5clang17FrontendInputFileELb0EE9push_backEOS2_: # @_ZN4llvm23SmallVectorTemplateBaseIN5clang17FrontendInputFileELb0EE9push_backEOS2_
	.cfi_startproc
# %bb.0:
	pushq	%rbp
	.cfi_def_cfa_offset 16
	.cfi_offset %rbp, -16
	movq	%rsp, %rbp
	.cfi_def_cfa_register %rbp
	subq	$32, %rsp
	movq	%rdi, -8(%rbp)
	movq	%rsi, -16(%rbp)
	movq	-8(%rbp), %rdi
	movq	%rdi, -32(%rbp)                 # 8-byte Spill
	movq	-16(%rbp), %rsi
	movl	$1, %edx
	callq	_ZN4llvm23SmallVectorTemplateBaseIN5clang17FrontendInputFileELb0EE28reserveForParamAndGetAddressERS2_m
	movq	-32(%rbp), %rdi                 # 8-byte Reload
	movq	%rax, -24(%rbp)
	callq	_ZN4llvm25SmallVectorTemplateCommonIN5clang17FrontendInputFileEvE3endEv
	movq	%rax, %rdi
	movq	-24(%rbp), %rsi
	callq	_ZN5clang17FrontendInputFileC2EOS0_
	movq	-32(%rbp), %rdi                 # 8-byte Reload
	callq	_ZNK4llvm15SmallVectorBaseIjE4sizeEv@PLT
	movq	-32(%rbp), %rdi                 # 8-byte Reload
	movq	%rax, %rsi
	addq	$1, %rsi
	callq	_ZN4llvm15SmallVectorBaseIjE8set_sizeEm@PLT
	addq	$32, %rsp
	popq	%rbp
	.cfi_def_cfa %rsp, 8
	retq
.Lfunc_end30:
	.size	_ZN4llvm23SmallVectorTemplateBaseIN5clang17FrontendInputFileELb0EE9push_backEOS2_, .Lfunc_end30-_ZN4llvm23SmallVectorTemplateBaseIN5clang17FrontendInputFileELb0EE9push_backEOS2_
	.cfi_endproc
                                        # -- End function
	.section	.text._ZN4llvm9StringRefC2ERKNSt7__cxx1112basic_stringIcSt11char_traitsIcESaIcEEE,"axG",@progbits,_ZN4llvm9StringRefC2ERKNSt7__cxx1112basic_stringIcSt11char_traitsIcESaIcEEE,comdat
	.weak	_ZN4llvm9StringRefC2ERKNSt7__cxx1112basic_stringIcSt11char_traitsIcESaIcEEE # -- Begin function _ZN4llvm9StringRefC2ERKNSt7__cxx1112basic_stringIcSt11char_traitsIcESaIcEEE
	.p2align	4
	.type	_ZN4llvm9StringRefC2ERKNSt7__cxx1112basic_stringIcSt11char_traitsIcESaIcEEE,@function
_ZN4llvm9StringRefC2ERKNSt7__cxx1112basic_stringIcSt11char_traitsIcESaIcEEE: # @_ZN4llvm9StringRefC2ERKNSt7__cxx1112basic_stringIcSt11char_traitsIcESaIcEEE
	.cfi_startproc
# %bb.0:
	pushq	%rbp
	.cfi_def_cfa_offset 16
	.cfi_offset %rbp, -16
	movq	%rsp, %rbp
	.cfi_def_cfa_register %rbp
	subq	$32, %rsp
	movq	%rdi, -8(%rbp)
	movq	%rsi, -16(%rbp)
	movq	-8(%rbp), %rax
	movq	%rax, -24(%rbp)                 # 8-byte Spill
	movq	-16(%rbp), %rdi
	callq	_ZNKSt7__cxx1112basic_stringIcSt11char_traitsIcESaIcEE4dataEv
	movq	%rax, %rcx
	movq	-24(%rbp), %rax                 # 8-byte Reload
	movq	%rcx, (%rax)
	movq	-16(%rbp), %rdi
	callq	_ZNKSt7__cxx1112basic_stringIcSt11char_traitsIcESaIcEE6lengthEv
	movq	%rax, %rcx
	movq	-24(%rbp), %rax                 # 8-byte Reload
	movq	%rcx, 8(%rax)
	addq	$32, %rsp
	popq	%rbp
	.cfi_def_cfa %rsp, 8
	retq
.Lfunc_end31:
	.size	_ZN4llvm9StringRefC2ERKNSt7__cxx1112basic_stringIcSt11char_traitsIcESaIcEEE, .Lfunc_end31-_ZN4llvm9StringRefC2ERKNSt7__cxx1112basic_stringIcSt11char_traitsIcESaIcEEE
	.cfi_endproc
                                        # -- End function
	.section	.text._ZN5clang9InputKindC2ENS_8LanguageENS0_6FormatEbNS0_14HeaderUnitKindEb,"axG",@progbits,_ZN5clang9InputKindC2ENS_8LanguageENS0_6FormatEbNS0_14HeaderUnitKindEb,comdat
	.weak	_ZN5clang9InputKindC2ENS_8LanguageENS0_6FormatEbNS0_14HeaderUnitKindEb # -- Begin function _ZN5clang9InputKindC2ENS_8LanguageENS0_6FormatEbNS0_14HeaderUnitKindEb
	.p2align	4
	.type	_ZN5clang9InputKindC2ENS_8LanguageENS0_6FormatEbNS0_14HeaderUnitKindEb,@function
_ZN5clang9InputKindC2ENS_8LanguageENS0_6FormatEbNS0_14HeaderUnitKindEb: # @_ZN5clang9InputKindC2ENS_8LanguageENS0_6FormatEbNS0_14HeaderUnitKindEb
	.cfi_startproc
# %bb.0:
	pushq	%rbp
	.cfi_def_cfa_offset 16
	.cfi_offset %rbp, -16
	movq	%rsp, %rbp
	.cfi_def_cfa_register %rbp
	movb	%r9b, %al
                                        # kill: def $cl killed $cl killed $ecx
                                        # kill: def $sil killed $sil killed $esi
	movq	%rdi, -8(%rbp)
	movb	%sil, -9(%rbp)
	movl	%edx, -16(%rbp)
	andb	$1, %cl
	movb	%cl, -17(%rbp)
	movl	%r8d, -24(%rbp)
	andb	$1, %al
	movb	%al, -25(%rbp)
	movq	-8(%rbp), %rax
	movb	-9(%rbp), %cl
	movb	%cl, (%rax)
	movl	-16(%rbp), %ecx
	movb	%cl, %dl
	movb	1(%rax), %cl
	andb	$7, %dl
	andb	$-8, %cl
	orb	%dl, %cl
	movb	%cl, 1(%rax)
	movb	-17(%rbp), %cl
	andb	$1, %cl
	movzbl	%cl, %ecx
	movb	%cl, %dl
	movb	1(%rax), %cl
	andb	$1, %dl
	shlb	$3, %dl
	andb	$-9, %cl
	orb	%dl, %cl
	movb	%cl, 1(%rax)
	movl	-24(%rbp), %ecx
	movb	%cl, %dl
	movb	1(%rax), %cl
	andb	$7, %dl
	shlb	$4, %dl
	andb	$-113, %cl
	orb	%dl, %cl
	movb	%cl, 1(%rax)
	movb	-25(%rbp), %cl
	andb	$1, %cl
	movzbl	%cl, %ecx
	movb	%cl, %dl
	movb	1(%rax), %cl
	andb	$1, %dl
	shlb	$7, %dl
	andb	$127, %cl
	orb	%dl, %cl
	movb	%cl, 1(%rax)
	popq	%rbp
	.cfi_def_cfa %rsp, 8
	retq
.Lfunc_end32:
	.size	_ZN5clang9InputKindC2ENS_8LanguageENS0_6FormatEbNS0_14HeaderUnitKindEb, .Lfunc_end32-_ZN5clang9InputKindC2ENS_8LanguageENS0_6FormatEbNS0_14HeaderUnitKindEb
	.cfi_endproc
                                        # -- End function
	.section	.text._ZNK5clang9InputKind11getLanguageEv,"axG",@progbits,_ZNK5clang9InputKind11getLanguageEv,comdat
	.weak	_ZNK5clang9InputKind11getLanguageEv # -- Begin function _ZNK5clang9InputKind11getLanguageEv
	.p2align	4
	.type	_ZNK5clang9InputKind11getLanguageEv,@function
_ZNK5clang9InputKind11getLanguageEv:    # @_ZNK5clang9InputKind11getLanguageEv
	.cfi_startproc
# %bb.0:
	pushq	%rbp
	.cfi_def_cfa_offset 16
	.cfi_offset %rbp, -16
	movq	%rsp, %rbp
	.cfi_def_cfa_register %rbp
	movq	%rdi, -8(%rbp)
	movq	-8(%rbp), %rax
	movb	(%rax), %al
	popq	%rbp
	.cfi_def_cfa %rsp, 8
	retq
.Lfunc_end33:
	.size	_ZNK5clang9InputKind11getLanguageEv, .Lfunc_end33-_ZNK5clang9InputKind11getLanguageEv
	.cfi_endproc
                                        # -- End function
	.section	.text._ZN5clang17FrontendInputFileC2EN4llvm9StringRefENS_9InputKindEb,"axG",@progbits,_ZN5clang17FrontendInputFileC2EN4llvm9StringRefENS_9InputKindEb,comdat
	.weak	_ZN5clang17FrontendInputFileC2EN4llvm9StringRefENS_9InputKindEb # -- Begin function _ZN5clang17FrontendInputFileC2EN4llvm9StringRefENS_9InputKindEb
	.p2align	4
	.type	_ZN5clang17FrontendInputFileC2EN4llvm9StringRefENS_9InputKindEb,@function
_ZN5clang17FrontendInputFileC2EN4llvm9StringRefENS_9InputKindEb: # @_ZN5clang17FrontendInputFileC2EN4llvm9StringRefENS_9InputKindEb
	.cfi_startproc
# %bb.0:
	pushq	%rbp
	.cfi_def_cfa_offset 16
	.cfi_offset %rbp, -16
	movq	%rsp, %rbp
	.cfi_def_cfa_register %rbp
	subq	$64, %rsp
	movb	%r8b, %al
	movq	%fs:40, %r8
	movq	%r8, -8(%rbp)
	movq	%rsi, -32(%rbp)
	movq	%rdx, -24(%rbp)
	movl	%ecx, -12(%rbp)
	movq	%rdi, -40(%rbp)
	andb	$1, %al
	movb	%al, -41(%rbp)
	movq	-40(%rbp), %rdi
	movq	%rdi, -56(%rbp)                 # 8-byte Spill
	leaq	-32(%rbp), %rsi
	callq	_ZNK4llvm9StringRef3strB5cxx11Ev
	movq	-56(%rbp), %rdi                 # 8-byte Reload
	addq	$32, %rdi
	callq	_ZNSt8optionalIN4llvm15MemoryBufferRefEEC2Ev
	movq	-56(%rbp), %rax                 # 8-byte Reload
	movl	-12(%rbp), %ecx
	movl	%ecx, 72(%rax)
	movb	-41(%rbp), %cl
	andb	$1, %cl
	movb	%cl, 76(%rax)
	movq	%fs:40, %rax
	movq	-8(%rbp), %rcx
	cmpq	%rcx, %rax
	jne	.LBB34_2
# %bb.1:
	addq	$64, %rsp
	popq	%rbp
	.cfi_def_cfa %rsp, 8
	retq
.LBB34_2:
	.cfi_def_cfa %rbp, 16
	callq	__stack_chk_fail@PLT
.Lfunc_end34:
	.size	_ZN5clang17FrontendInputFileC2EN4llvm9StringRefENS_9InputKindEb, .Lfunc_end34-_ZN5clang17FrontendInputFileC2EN4llvm9StringRefENS_9InputKindEb
	.cfi_endproc
                                        # -- End function
	.section	.text._ZN5clang17FrontendInputFileD2Ev,"axG",@progbits,_ZN5clang17FrontendInputFileD2Ev,comdat
	.weak	_ZN5clang17FrontendInputFileD2Ev # -- Begin function _ZN5clang17FrontendInputFileD2Ev
	.p2align	4
	.type	_ZN5clang17FrontendInputFileD2Ev,@function
_ZN5clang17FrontendInputFileD2Ev:       # @_ZN5clang17FrontendInputFileD2Ev
	.cfi_startproc
# %bb.0:
	pushq	%rbp
	.cfi_def_cfa_offset 16
	.cfi_offset %rbp, -16
	movq	%rsp, %rbp
	.cfi_def_cfa_register %rbp
	subq	$16, %rsp
	movq	%rdi, -8(%rbp)
	movq	-8(%rbp), %rdi
	callq	_ZNSt7__cxx1112basic_stringIcSt11char_traitsIcESaIcEED2Ev
	addq	$16, %rsp
	popq	%rbp
	.cfi_def_cfa %rsp, 8
	retq
.Lfunc_end35:
	.size	_ZN5clang17FrontendInputFileD2Ev, .Lfunc_end35-_ZN5clang17FrontendInputFileD2Ev
	.cfi_endproc
                                        # -- End function
	.section	.text._ZNSt7__cxx1112basic_stringIcSt11char_traitsIcESaIcEEaSERKS4_,"axG",@progbits,_ZNSt7__cxx1112basic_stringIcSt11char_traitsIcESaIcEEaSERKS4_,comdat
	.weak	_ZNSt7__cxx1112basic_stringIcSt11char_traitsIcESaIcEEaSERKS4_ # -- Begin function _ZNSt7__cxx1112basic_stringIcSt11char_traitsIcESaIcEEaSERKS4_
	.p2align	4
	.type	_ZNSt7__cxx1112basic_stringIcSt11char_traitsIcESaIcEEaSERKS4_,@function
_ZNSt7__cxx1112basic_stringIcSt11char_traitsIcESaIcEEaSERKS4_: # @_ZNSt7__cxx1112basic_stringIcSt11char_traitsIcESaIcEEaSERKS4_
	.cfi_startproc
# %bb.0:
	pushq	%rbp
	.cfi_def_cfa_offset 16
	.cfi_offset %rbp, -16
	movq	%rsp, %rbp
	.cfi_def_cfa_register %rbp
	subq	$16, %rsp
	movq	%rdi, -8(%rbp)
	movq	%rsi, -16(%rbp)
	movq	-8(%rbp), %rdi
	movq	-16(%rbp), %rsi
	callq	_ZNSt7__cxx1112basic_stringIcSt11char_traitsIcESaIcEE6assignERKS4_
	addq	$16, %rsp
	popq	%rbp
	.cfi_def_cfa %rsp, 8
	retq
.Lfunc_end36:
	.size	_ZNSt7__cxx1112basic_stringIcSt11char_traitsIcESaIcEEaSERKS4_, .Lfunc_end36-_ZNSt7__cxx1112basic_stringIcSt11char_traitsIcESaIcEEaSERKS4_
	.cfi_endproc
                                        # -- End function
	.section	.text._ZN5clang16CompilerInstance19getPreprocessorOptsEv,"axG",@progbits,_ZN5clang16CompilerInstance19getPreprocessorOptsEv,comdat
	.weak	_ZN5clang16CompilerInstance19getPreprocessorOptsEv # -- Begin function _ZN5clang16CompilerInstance19getPreprocessorOptsEv
	.p2align	4
	.type	_ZN5clang16CompilerInstance19getPreprocessorOptsEv,@function
_ZN5clang16CompilerInstance19getPreprocessorOptsEv: # @_ZN5clang16CompilerInstance19getPreprocessorOptsEv
	.cfi_startproc
# %bb.0:
	pushq	%rbp
	.cfi_def_cfa_offset 16
	.cfi_offset %rbp, -16
	movq	%rsp, %rbp
	.cfi_def_cfa_register %rbp
	subq	$16, %rsp
	movq	%rdi, -8(%rbp)
	movq	-8(%rbp), %rdi
	addq	$16, %rdi
	callq	_ZNKSt19__shared_ptr_accessIN5clang18CompilerInvocationELN9__gnu_cxx12_Lock_policyE2ELb0ELb0EEptEv
	movq	%rax, %rdi
	callq	_ZN5clang18CompilerInvocation19getPreprocessorOptsEv
	addq	$16, %rsp
	popq	%rbp
	.cfi_def_cfa %rsp, 8
	retq
.Lfunc_end37:
	.size	_ZN5clang16CompilerInstance19getPreprocessorOptsEv, .Lfunc_end37-_ZN5clang16CompilerInstance19getPreprocessorOptsEv
	.cfi_endproc
                                        # -- End function
	.section	.text._ZN5clang19PreprocessorOptions18clearRemappedFilesEv,"axG",@progbits,_ZN5clang19PreprocessorOptions18clearRemappedFilesEv,comdat
	.weak	_ZN5clang19PreprocessorOptions18clearRemappedFilesEv # -- Begin function _ZN5clang19PreprocessorOptions18clearRemappedFilesEv
	.p2align	4
	.type	_ZN5clang19PreprocessorOptions18clearRemappedFilesEv,@function
_ZN5clang19PreprocessorOptions18clearRemappedFilesEv: # @_ZN5clang19PreprocessorOptions18clearRemappedFilesEv
	.cfi_startproc
# %bb.0:
	pushq	%rbp
	.cfi_def_cfa_offset 16
	.cfi_offset %rbp, -16
	movq	%rsp, %rbp
	.cfi_def_cfa_register %rbp
	subq	$16, %rsp
	movq	%rdi, -8(%rbp)
	movq	-8(%rbp), %rdi
	movq	%rdi, -16(%rbp)                 # 8-byte Spill
	addq	$240, %rdi
	callq	_ZNSt6vectorISt4pairINSt7__cxx1112basic_stringIcSt11char_traitsIcESaIcEEES6_ESaIS7_EE5clearEv
	movq	-16(%rbp), %rdi                 # 8-byte Reload
	addq	$264, %rdi                      # imm = 0x108
	callq	_ZNSt6vectorISt4pairINSt7__cxx1112basic_stringIcSt11char_traitsIcESaIcEEEPN4llvm12MemoryBufferEESaISA_EE5clearEv
	addq	$16, %rsp
	popq	%rbp
	.cfi_def_cfa %rsp, 8
	retq
.Lfunc_end38:
	.size	_ZN5clang19PreprocessorOptions18clearRemappedFilesEv, .Lfunc_end38-_ZN5clang19PreprocessorOptions18clearRemappedFilesEv
	.cfi_endproc
                                        # -- End function
	.section	.text._ZN5clang19PreprocessorOptions15addRemappedFileEN4llvm9StringRefEPNS1_12MemoryBufferE,"axG",@progbits,_ZN5clang19PreprocessorOptions15addRemappedFileEN4llvm9StringRefEPNS1_12MemoryBufferE,comdat
	.weak	_ZN5clang19PreprocessorOptions15addRemappedFileEN4llvm9StringRefEPNS1_12MemoryBufferE # -- Begin function _ZN5clang19PreprocessorOptions15addRemappedFileEN4llvm9StringRefEPNS1_12MemoryBufferE
	.p2align	4
	.type	_ZN5clang19PreprocessorOptions15addRemappedFileEN4llvm9StringRefEPNS1_12MemoryBufferE,@function
_ZN5clang19PreprocessorOptions15addRemappedFileEN4llvm9StringRefEPNS1_12MemoryBufferE: # @_ZN5clang19PreprocessorOptions15addRemappedFileEN4llvm9StringRefEPNS1_12MemoryBufferE
.Lfunc_begin9:
	.cfi_startproc
	.cfi_personality 155, DW.ref.__gxx_personality_v0
	.cfi_lsda 27, .Lexception9
# %bb.0:
	pushq	%rbp
	.cfi_def_cfa_offset 16
	.cfi_offset %rbp, -16
	movq	%rsp, %rbp
	.cfi_def_cfa_register %rbp
	subq	$144, %rsp
	movq	%fs:40, %rax
	movq	%rax, -8(%rbp)
	movq	%rsi, -56(%rbp)
	movq	%rdx, -48(%rbp)
	movq	%rdi, -112(%rbp)
	movq	%rcx, -64(%rbp)
	movq	-112(%rbp), %rax
	addq	$264, %rax                      # imm = 0x108
	movq	%rax, -136(%rbp)                # 8-byte Spill
	leaq	-65(%rbp), %rdx
	movq	%rdx, -104(%rbp)
	movq	-104(%rbp), %rax
	movq	%rax, -80(%rbp)
.Ltmp157:
	leaq	-40(%rbp), %rdi
	leaq	-56(%rbp), %rsi
	callq	_ZNSt7__cxx1112basic_stringIcSt11char_traitsIcESaIcEEC2IN4llvm9StringRefEvEERKT_RKS3_
.Ltmp158:
	jmp	.LBB39_1
.LBB39_1:
.Ltmp160:
	movq	-136(%rbp), %rdi                # 8-byte Reload
	leaq	-40(%rbp), %rsi
	leaq	-64(%rbp), %rdx
	callq	_ZNSt6vectorISt4pairINSt7__cxx1112basic_stringIcSt11char_traitsIcESaIcEEEPN4llvm12MemoryBufferEESaISA_EE12emplace_backIJS6_RS9_EEERSA_DpOT_
.Ltmp161:
	jmp	.LBB39_2
.LBB39_2:
	leaq	-40(%rbp), %rdi
	callq	_ZNSt7__cxx1112basic_stringIcSt11char_traitsIcESaIcEED2Ev
	leaq	-65(%rbp), %rax
	movq	%rax, -96(%rbp)
	movq	-96(%rbp), %rdi
	callq	_ZNSt15__new_allocatorIcED2Ev
	movq	%fs:40, %rax
	movq	-8(%rbp), %rcx
	cmpq	%rcx, %rax
	jne	.LBB39_9
# %bb.3:
	addq	$144, %rsp
	popq	%rbp
	.cfi_def_cfa %rsp, 8
	retq
.LBB39_4:
	.cfi_def_cfa %rbp, 16
.Ltmp159:
	movq	%rax, %rcx
	movl	%edx, %eax
	movq	%rcx, -120(%rbp)
	movl	%eax, -124(%rbp)
	jmp	.LBB39_6
.LBB39_5:
.Ltmp162:
	movq	%rax, %rcx
	movl	%edx, %eax
	movq	%rcx, -120(%rbp)
	movl	%eax, -124(%rbp)
	leaq	-40(%rbp), %rdi
	callq	_ZNSt7__cxx1112basic_stringIcSt11char_traitsIcESaIcEED2Ev
.LBB39_6:
	leaq	-65(%rbp), %rax
	movq	%rax, -88(%rbp)
	movq	-88(%rbp), %rdi
	callq	_ZNSt15__new_allocatorIcED2Ev
# %bb.7:
	movq	-120(%rbp), %rax
	movq	%rax, -144(%rbp)                # 8-byte Spill
	movq	%fs:40, %rax
	movq	-8(%rbp), %rcx
	cmpq	%rcx, %rax
	jne	.LBB39_9
# %bb.8:
	movq	-144(%rbp), %rdi                # 8-byte Reload
	callq	_Unwind_Resume@PLT
.LBB39_9:
	callq	__stack_chk_fail@PLT
.Lfunc_end39:
	.size	_ZN5clang19PreprocessorOptions15addRemappedFileEN4llvm9StringRefEPNS1_12MemoryBufferE, .Lfunc_end39-_ZN5clang19PreprocessorOptions15addRemappedFileEN4llvm9StringRefEPNS1_12MemoryBufferE
	.cfi_endproc
	.section	.gcc_except_table._ZN5clang19PreprocessorOptions15addRemappedFileEN4llvm9StringRefEPNS1_12MemoryBufferE,"aG",@progbits,_ZN5clang19PreprocessorOptions15addRemappedFileEN4llvm9StringRefEPNS1_12MemoryBufferE,comdat
	.p2align	2, 0x0
GCC_except_table39:
.Lexception9:
	.byte	255                             # @LPStart Encoding = omit
	.byte	255                             # @TType Encoding = omit
	.byte	1                               # Call site Encoding = uleb128
	.uleb128 .Lcst_end9-.Lcst_begin9
.Lcst_begin9:
	.uleb128 .Ltmp157-.Lfunc_begin9         # >> Call Site 1 <<
	.uleb128 .Ltmp158-.Ltmp157              #   Call between .Ltmp157 and .Ltmp158
	.uleb128 .Ltmp159-.Lfunc_begin9         #     jumps to .Ltmp159
	.byte	0                               #   On action: cleanup
	.uleb128 .Ltmp160-.Lfunc_begin9         # >> Call Site 2 <<
	.uleb128 .Ltmp161-.Ltmp160              #   Call between .Ltmp160 and .Ltmp161
	.uleb128 .Ltmp162-.Lfunc_begin9         #     jumps to .Ltmp162
	.byte	0                               #   On action: cleanup
	.uleb128 .Ltmp161-.Lfunc_begin9         # >> Call Site 3 <<
	.uleb128 .Lfunc_end39-.Ltmp161          #   Call between .Ltmp161 and .Lfunc_end39
	.byte	0                               #     has no landing pad
	.byte	0                               #   On action: cleanup
.Lcst_end9:
	.p2align	2, 0x0
                                        # -- End function
	.section	.text._ZNSt10unique_ptrIN4llvm12MemoryBufferESt14default_deleteIS1_EE7releaseEv,"axG",@progbits,_ZNSt10unique_ptrIN4llvm12MemoryBufferESt14default_deleteIS1_EE7releaseEv,comdat
	.weak	_ZNSt10unique_ptrIN4llvm12MemoryBufferESt14default_deleteIS1_EE7releaseEv # -- Begin function _ZNSt10unique_ptrIN4llvm12MemoryBufferESt14default_deleteIS1_EE7releaseEv
	.p2align	4
	.type	_ZNSt10unique_ptrIN4llvm12MemoryBufferESt14default_deleteIS1_EE7releaseEv,@function
_ZNSt10unique_ptrIN4llvm12MemoryBufferESt14default_deleteIS1_EE7releaseEv: # @_ZNSt10unique_ptrIN4llvm12MemoryBufferESt14default_deleteIS1_EE7releaseEv
	.cfi_startproc
# %bb.0:
	pushq	%rbp
	.cfi_def_cfa_offset 16
	.cfi_offset %rbp, -16
	movq	%rsp, %rbp
	.cfi_def_cfa_register %rbp
	subq	$16, %rsp
	movq	%rdi, -8(%rbp)
	movq	-8(%rbp), %rdi
	callq	_ZNSt15__uniq_ptr_implIN4llvm12MemoryBufferESt14default_deleteIS1_EE7releaseEv
	addq	$16, %rsp
	popq	%rbp
	.cfi_def_cfa %rsp, 8
	retq
.Lfunc_end40:
	.size	_ZNSt10unique_ptrIN4llvm12MemoryBufferESt14default_deleteIS1_EE7releaseEv, .Lfunc_end40-_ZNSt10unique_ptrIN4llvm12MemoryBufferESt14default_deleteIS1_EE7releaseEv
	.cfi_endproc
                                        # -- End function
	.section	.text._ZN5clang16SyntaxOnlyActionC2Ev,"axG",@progbits,_ZN5clang16SyntaxOnlyActionC2Ev,comdat
	.weak	_ZN5clang16SyntaxOnlyActionC2Ev # -- Begin function _ZN5clang16SyntaxOnlyActionC2Ev
	.p2align	4
	.type	_ZN5clang16SyntaxOnlyActionC2Ev,@function
_ZN5clang16SyntaxOnlyActionC2Ev:        # @_ZN5clang16SyntaxOnlyActionC2Ev
	.cfi_startproc
# %bb.0:
	pushq	%rbp
	.cfi_def_cfa_offset 16
	.cfi_offset %rbp, -16
	movq	%rsp, %rbp
	.cfi_def_cfa_register %rbp
	subq	$16, %rsp
	movq	%rdi, -8(%rbp)
	movq	-8(%rbp), %rdi
	movq	%rdi, -16(%rbp)                 # 8-byte Spill
	callq	_ZN5clang17ASTFrontendActionC2Ev
	movq	-16(%rbp), %rax                 # 8-byte Reload
	movq	_ZTVN5clang16SyntaxOnlyActionE@GOTPCREL(%rip), %rcx
	addq	$16, %rcx
	movq	%rcx, (%rax)
	addq	$16, %rsp
	popq	%rbp
	.cfi_def_cfa %rsp, 8
	retq
.Lfunc_end41:
	.size	_ZN5clang16SyntaxOnlyActionC2Ev, .Lfunc_end41-_ZN5clang16SyntaxOnlyActionC2Ev
	.cfi_endproc
                                        # -- End function
	.section	.text._ZN4llvm25SmallVectorTemplateCommonIN5clang17FrontendInputFileEvEixEm,"axG",@progbits,_ZN4llvm25SmallVectorTemplateCommonIN5clang17FrontendInputFileEvEixEm,comdat
	.weak	_ZN4llvm25SmallVectorTemplateCommonIN5clang17FrontendInputFileEvEixEm # -- Begin function _ZN4llvm25SmallVectorTemplateCommonIN5clang17FrontendInputFileEvEixEm
	.p2align	4
	.type	_ZN4llvm25SmallVectorTemplateCommonIN5clang17FrontendInputFileEvEixEm,@function
_ZN4llvm25SmallVectorTemplateCommonIN5clang17FrontendInputFileEvEixEm: # @_ZN4llvm25SmallVectorTemplateCommonIN5clang17FrontendInputFileEvEixEm
	.cfi_startproc
# %bb.0:
	pushq	%rbp
	.cfi_def_cfa_offset 16
	.cfi_offset %rbp, -16
	movq	%rsp, %rbp
	.cfi_def_cfa_register %rbp
	subq	$32, %rsp
	movq	%rdi, -8(%rbp)
	movq	%rsi, -16(%rbp)
	movq	-8(%rbp), %rdi
	movq	%rdi, -32(%rbp)                 # 8-byte Spill
	movq	-16(%rbp), %rax
	movq	%rax, -24(%rbp)                 # 8-byte Spill
	callq	_ZNK4llvm15SmallVectorBaseIjE4sizeEv@PLT
	movq	%rax, %rcx
	movq	-24(%rbp), %rax                 # 8-byte Reload
	cmpq	%rcx, %rax
	jae	.LBB42_2
# %bb.1:
	jmp	.LBB42_3
.LBB42_2:
	leaq	.L.str.124(%rip), %rdi
	leaq	.L.str.125(%rip), %rsi
	movl	$291, %edx                      # imm = 0x123
	leaq	.L__PRETTY_FUNCTION__._ZN4llvm25SmallVectorTemplateCommonIN5clang17FrontendInputFileEvEixEm(%rip), %rcx
	callq	__assert_fail@PLT
.LBB42_3:
	movq	-32(%rbp), %rdi                 # 8-byte Reload
	callq	_ZN4llvm25SmallVectorTemplateCommonIN5clang17FrontendInputFileEvE5beginEv
	imulq	$80, -16(%rbp), %rcx
	addq	%rcx, %rax
	addq	$32, %rsp
	popq	%rbp
	.cfi_def_cfa %rsp, 8
	retq
.Lfunc_end42:
	.size	_ZN4llvm25SmallVectorTemplateCommonIN5clang17FrontendInputFileEvEixEm, .Lfunc_end42-_ZN4llvm25SmallVectorTemplateCommonIN5clang17FrontendInputFileEvEixEm
	.cfi_endproc
                                        # -- End function
	.section	.text._ZN4llvm5ErrorD2Ev,"axG",@progbits,_ZN4llvm5ErrorD2Ev,comdat
	.weak	_ZN4llvm5ErrorD2Ev              # -- Begin function _ZN4llvm5ErrorD2Ev
	.p2align	4
	.type	_ZN4llvm5ErrorD2Ev,@function
_ZN4llvm5ErrorD2Ev:                     # @_ZN4llvm5ErrorD2Ev
.Lfunc_begin10:
	.cfi_startproc
	.cfi_personality 155, DW.ref.__gxx_personality_v0
	.cfi_lsda 27, .Lexception10
# %bb.0:
	pushq	%rbp
	.cfi_def_cfa_offset 16
	.cfi_offset %rbp, -16
	movq	%rsp, %rbp
	.cfi_def_cfa_register %rbp
	subq	$32, %rsp
	movq	%rdi, -8(%rbp)
	movq	-8(%rbp), %rdi
	movq	%rdi, -16(%rbp)                 # 8-byte Spill
.Ltmp163:
	callq	_ZN4llvm5Error15assertIsCheckedEv
.Ltmp164:
	jmp	.LBB43_1
.LBB43_1:
.Ltmp165:
	movq	-16(%rbp), %rdi                 # 8-byte Reload
	callq	_ZNK4llvm5Error6getPtrEv
.Ltmp166:
	movq	%rax, -24(%rbp)                 # 8-byte Spill
	jmp	.LBB43_2
.LBB43_2:
	movq	-24(%rbp), %rax                 # 8-byte Reload
	cmpq	$0, %rax
	je	.LBB43_4
# %bb.3:
	movq	-24(%rbp), %rdi                 # 8-byte Reload
	movq	(%rdi), %rax
	callq	*8(%rax)
.LBB43_4:
	addq	$32, %rsp
	popq	%rbp
	.cfi_def_cfa %rsp, 8
	retq
.LBB43_5:
	.cfi_def_cfa %rbp, 16
.Ltmp167:
	movq	%rax, %rdi
                                        # kill: def $eax killed $edx killed $rdx
	callq	__clang_call_terminate
.Lfunc_end43:
	.size	_ZN4llvm5ErrorD2Ev, .Lfunc_end43-_ZN4llvm5ErrorD2Ev
	.cfi_endproc
	.section	.gcc_except_table._ZN4llvm5ErrorD2Ev,"aG",@progbits,_ZN4llvm5ErrorD2Ev,comdat
	.p2align	2, 0x0
GCC_except_table43:
.Lexception10:
	.byte	255                             # @LPStart Encoding = omit
	.byte	155                             # @TType Encoding = indirect pcrel sdata4
	.uleb128 .Lttbase3-.Lttbaseref3
.Lttbaseref3:
	.byte	1                               # Call site Encoding = uleb128
	.uleb128 .Lcst_end10-.Lcst_begin10
.Lcst_begin10:
	.uleb128 .Ltmp163-.Lfunc_begin10        # >> Call Site 1 <<
	.uleb128 .Ltmp166-.Ltmp163              #   Call between .Ltmp163 and .Ltmp166
	.uleb128 .Ltmp167-.Lfunc_begin10        #     jumps to .Ltmp167
	.byte	1                               #   On action: 1
	.uleb128 .Ltmp166-.Lfunc_begin10        # >> Call Site 2 <<
	.uleb128 .Lfunc_end43-.Ltmp166          #   Call between .Ltmp166 and .Lfunc_end43
	.byte	0                               #     has no landing pad
	.byte	0                               #   On action: cleanup
.Lcst_end10:
	.byte	1                               # >> Action Record 1 <<
                                        #   Catch TypeInfo 1
	.byte	0                               #   No further actions
	.p2align	2, 0x0
                                        # >> Catch TypeInfos <<
	.long	0                               # TypeInfo 1
.Lttbase3:
	.p2align	2, 0x0
                                        # -- End function
	.section	.text._ZN4llvm11raw_ostreamlsERKNSt7__cxx1112basic_stringIcSt11char_traitsIcESaIcEEE,"axG",@progbits,_ZN4llvm11raw_ostreamlsERKNSt7__cxx1112basic_stringIcSt11char_traitsIcESaIcEEE,comdat
	.weak	_ZN4llvm11raw_ostreamlsERKNSt7__cxx1112basic_stringIcSt11char_traitsIcESaIcEEE # -- Begin function _ZN4llvm11raw_ostreamlsERKNSt7__cxx1112basic_stringIcSt11char_traitsIcESaIcEEE
	.p2align	4
	.type	_ZN4llvm11raw_ostreamlsERKNSt7__cxx1112basic_stringIcSt11char_traitsIcESaIcEEE,@function
_ZN4llvm11raw_ostreamlsERKNSt7__cxx1112basic_stringIcSt11char_traitsIcESaIcEEE: # @_ZN4llvm11raw_ostreamlsERKNSt7__cxx1112basic_stringIcSt11char_traitsIcESaIcEEE
	.cfi_startproc
# %bb.0:
	pushq	%rbp
	.cfi_def_cfa_offset 16
	.cfi_offset %rbp, -16
	movq	%rsp, %rbp
	.cfi_def_cfa_register %rbp
	subq	$32, %rsp
	movq	%rdi, -8(%rbp)
	movq	%rsi, -16(%rbp)
	movq	-8(%rbp), %rax
	movq	%rax, -32(%rbp)                 # 8-byte Spill
	movq	-16(%rbp), %rdi
	callq	_ZNKSt7__cxx1112basic_stringIcSt11char_traitsIcESaIcEE4dataEv
	movq	%rax, -24(%rbp)                 # 8-byte Spill
	movq	-16(%rbp), %rdi
	callq	_ZNKSt7__cxx1112basic_stringIcSt11char_traitsIcESaIcEE6lengthEv
	movq	-32(%rbp), %rdi                 # 8-byte Reload
	movq	-24(%rbp), %rsi                 # 8-byte Reload
	movq	%rax, %rdx
	callq	_ZN4llvm11raw_ostream5writeEPKcm@PLT
	addq	$32, %rsp
	popq	%rbp
	.cfi_def_cfa %rsp, 8
	retq
.Lfunc_end44:
	.size	_ZN4llvm11raw_ostreamlsERKNSt7__cxx1112basic_stringIcSt11char_traitsIcESaIcEEE, .Lfunc_end44-_ZN4llvm11raw_ostreamlsERKNSt7__cxx1112basic_stringIcSt11char_traitsIcESaIcEEE
	.cfi_endproc
                                        # -- End function
	.section	.text._ZN26CustomCodeCompleteConsumer7GetJSONB5cxx11Ev,"axG",@progbits,_ZN26CustomCodeCompleteConsumer7GetJSONB5cxx11Ev,comdat
	.weak	_ZN26CustomCodeCompleteConsumer7GetJSONB5cxx11Ev # -- Begin function _ZN26CustomCodeCompleteConsumer7GetJSONB5cxx11Ev
	.p2align	4
	.type	_ZN26CustomCodeCompleteConsumer7GetJSONB5cxx11Ev,@function
_ZN26CustomCodeCompleteConsumer7GetJSONB5cxx11Ev: # @_ZN26CustomCodeCompleteConsumer7GetJSONB5cxx11Ev
	.cfi_startproc
# %bb.0:
	pushq	%rbp
	.cfi_def_cfa_offset 16
	.cfi_offset %rbp, -16
	movq	%rsp, %rbp
	.cfi_def_cfa_register %rbp
	movq	%rdi, -8(%rbp)
	movq	-8(%rbp), %rax
	addq	$56, %rax
	popq	%rbp
	.cfi_def_cfa %rsp, 8
	retq
.Lfunc_end45:
	.size	_ZN26CustomCodeCompleteConsumer7GetJSONB5cxx11Ev, .Lfunc_end45-_ZN26CustomCodeCompleteConsumer7GetJSONB5cxx11Ev
	.cfi_endproc
                                        # -- End function
	.section	.text._ZNK8nlohmann10basic_jsonISt3mapSt6vectorNSt7__cxx1112basic_stringIcSt11char_traitsIcESaIcEEEblmdSaNS_14adl_serializerEE4dumpEi,"axG",@progbits,_ZNK8nlohmann10basic_jsonISt3mapSt6vectorNSt7__cxx1112basic_stringIcSt11char_traitsIcESaIcEEEblmdSaNS_14adl_serializerEE4dumpEi,comdat
	.weak	_ZNK8nlohmann10basic_jsonISt3mapSt6vectorNSt7__cxx1112basic_stringIcSt11char_traitsIcESaIcEEEblmdSaNS_14adl_serializerEE4dumpEi # -- Begin function _ZNK8nlohmann10basic_jsonISt3mapSt6vectorNSt7__cxx1112basic_stringIcSt11char_traitsIcESaIcEEEblmdSaNS_14adl_serializerEE4dumpEi
	.p2align	4
	.type	_ZNK8nlohmann10basic_jsonISt3mapSt6vectorNSt7__cxx1112basic_stringIcSt11char_traitsIcESaIcEEEblmdSaNS_14adl_serializerEE4dumpEi,@function
_ZNK8nlohmann10basic_jsonISt3mapSt6vectorNSt7__cxx1112basic_stringIcSt11char_traitsIcESaIcEEEblmdSaNS_14adl_serializerEE4dumpEi: # @_ZNK8nlohmann10basic_jsonISt3mapSt6vectorNSt7__cxx1112basic_stringIcSt11char_traitsIcESaIcEEEblmdSaNS_14adl_serializerEE4dumpEi
.Lfunc_begin11:
	.cfi_startproc
	.cfi_personality 155, DW.ref.__gxx_personality_v0
	.cfi_lsda 27, .Lexception11
# %bb.0:
	pushq	%rbp
	.cfi_def_cfa_offset 16
	.cfi_offset %rbp, -16
	movq	%rsp, %rbp
	.cfi_def_cfa_register %rbp
	subq	$480, %rsp                      # imm = 0x1E0
	movq	%rdi, -464(%rbp)                # 8-byte Spill
	movq	%rdi, %rax
	movq	%rax, -456(%rbp)                # 8-byte Spill
	movq	%fs:40, %rax
	movq	%rax, -8(%rbp)
	movq	%rdi, -408(%rbp)
	movq	%rsi, -416(%rbp)
	movl	%edx, -420(%rbp)
	movq	-416(%rbp), %rax
	movq	%rax, -448(%rbp)                # 8-byte Spill
	leaq	-400(%rbp), %rdi
	callq	_ZNSt7__cxx1118basic_stringstreamIcSt11char_traitsIcESaIcEEC1Ev@PLT
	cmpl	$0, -420(%rbp)
	jl	.LBB46_4
# %bb.1:
	movq	-448(%rbp), %rdi                # 8-byte Reload
	leaq	-384(%rbp), %rsi
	movl	-420(%rbp), %ecx
.Ltmp170:
	movl	$1, %edx
	xorl	%r8d, %r8d
	callq	_ZNK8nlohmann10basic_jsonISt3mapSt6vectorNSt7__cxx1112basic_stringIcSt11char_traitsIcESaIcEEEblmdSaNS_14adl_serializerEE4dumpERSobjj
.Ltmp171:
	jmp	.LBB46_2
.LBB46_2:
	jmp	.LBB46_6
.LBB46_3:
.Ltmp174:
	movq	%rax, %rcx
	movl	%edx, %eax
	movq	%rcx, -432(%rbp)
	movl	%eax, -436(%rbp)
	leaq	-400(%rbp), %rdi
	callq	_ZNSt7__cxx1118basic_stringstreamIcSt11char_traitsIcESaIcEED1Ev@PLT
	jmp	.LBB46_9
.LBB46_4:
	movq	-448(%rbp), %rdi                # 8-byte Reload
	leaq	-384(%rbp), %rsi
.Ltmp168:
	xorl	%r8d, %r8d
	movl	%r8d, %edx
	movl	%r8d, %ecx
	callq	_ZNK8nlohmann10basic_jsonISt3mapSt6vectorNSt7__cxx1112basic_stringIcSt11char_traitsIcESaIcEEEblmdSaNS_14adl_serializerEE4dumpERSobjj
.Ltmp169:
	jmp	.LBB46_5
.LBB46_5:
	jmp	.LBB46_6
.LBB46_6:
.Ltmp172:
	movq	-464(%rbp), %rdi                # 8-byte Reload
	leaq	-400(%rbp), %rsi
	callq	_ZNKSt7__cxx1118basic_stringstreamIcSt11char_traitsIcESaIcEE3strEv@PLT
.Ltmp173:
	jmp	.LBB46_7
.LBB46_7:
	leaq	-400(%rbp), %rdi
	callq	_ZNSt7__cxx1118basic_stringstreamIcSt11char_traitsIcESaIcEED1Ev@PLT
	movq	%fs:40, %rax
	movq	-8(%rbp), %rcx
	cmpq	%rcx, %rax
	jne	.LBB46_11
# %bb.8:
	movq	-456(%rbp), %rax                # 8-byte Reload
	addq	$480, %rsp                      # imm = 0x1E0
	popq	%rbp
	.cfi_def_cfa %rsp, 8
	retq
.LBB46_9:
	.cfi_def_cfa %rbp, 16
	movq	-432(%rbp), %rax
	movq	%rax, -472(%rbp)                # 8-byte Spill
	movq	%fs:40, %rax
	movq	-8(%rbp), %rcx
	cmpq	%rcx, %rax
	jne	.LBB46_11
# %bb.10:
	movq	-472(%rbp), %rdi                # 8-byte Reload
	callq	_Unwind_Resume@PLT
.LBB46_11:
	callq	__stack_chk_fail@PLT
.Lfunc_end46:
	.size	_ZNK8nlohmann10basic_jsonISt3mapSt6vectorNSt7__cxx1112basic_stringIcSt11char_traitsIcESaIcEEEblmdSaNS_14adl_serializerEE4dumpEi, .Lfunc_end46-_ZNK8nlohmann10basic_jsonISt3mapSt6vectorNSt7__cxx1112basic_stringIcSt11char_traitsIcESaIcEEEblmdSaNS_14adl_serializerEE4dumpEi
	.cfi_endproc
	.section	.gcc_except_table._ZNK8nlohmann10basic_jsonISt3mapSt6vectorNSt7__cxx1112basic_stringIcSt11char_traitsIcESaIcEEEblmdSaNS_14adl_serializerEE4dumpEi,"aG",@progbits,_ZNK8nlohmann10basic_jsonISt3mapSt6vectorNSt7__cxx1112basic_stringIcSt11char_traitsIcESaIcEEEblmdSaNS_14adl_serializerEE4dumpEi,comdat
	.p2align	2, 0x0
GCC_except_table46:
.Lexception11:
	.byte	255                             # @LPStart Encoding = omit
	.byte	255                             # @TType Encoding = omit
	.byte	1                               # Call site Encoding = uleb128
	.uleb128 .Lcst_end11-.Lcst_begin11
.Lcst_begin11:
	.uleb128 .Lfunc_begin11-.Lfunc_begin11  # >> Call Site 1 <<
	.uleb128 .Ltmp170-.Lfunc_begin11        #   Call between .Lfunc_begin11 and .Ltmp170
	.byte	0                               #     has no landing pad
	.byte	0                               #   On action: cleanup
	.uleb128 .Ltmp170-.Lfunc_begin11        # >> Call Site 2 <<
	.uleb128 .Ltmp173-.Ltmp170              #   Call between .Ltmp170 and .Ltmp173
	.uleb128 .Ltmp174-.Lfunc_begin11        #     jumps to .Ltmp174
	.byte	0                               #   On action: cleanup
	.uleb128 .Ltmp173-.Lfunc_begin11        # >> Call Site 3 <<
	.uleb128 .Lfunc_end46-.Ltmp173          #   Call between .Ltmp173 and .Lfunc_end46
	.byte	0                               #     has no landing pad
	.byte	0                               #   On action: cleanup
.Lcst_end11:
	.p2align	2, 0x0
                                        # -- End function
	.section	.text._ZNSt10unique_ptrIN4llvm12MemoryBufferESt14default_deleteIS1_EED2Ev,"axG",@progbits,_ZNSt10unique_ptrIN4llvm12MemoryBufferESt14default_deleteIS1_EED2Ev,comdat
	.weak	_ZNSt10unique_ptrIN4llvm12MemoryBufferESt14default_deleteIS1_EED2Ev # -- Begin function _ZNSt10unique_ptrIN4llvm12MemoryBufferESt14default_deleteIS1_EED2Ev
	.p2align	4
	.type	_ZNSt10unique_ptrIN4llvm12MemoryBufferESt14default_deleteIS1_EED2Ev,@function
_ZNSt10unique_ptrIN4llvm12MemoryBufferESt14default_deleteIS1_EED2Ev: # @_ZNSt10unique_ptrIN4llvm12MemoryBufferESt14default_deleteIS1_EED2Ev
.Lfunc_begin12:
	.cfi_startproc
	.cfi_personality 155, DW.ref.__gxx_personality_v0
	.cfi_lsda 27, .Lexception12
# %bb.0:
	pushq	%rbp
	.cfi_def_cfa_offset 16
	.cfi_offset %rbp, -16
	movq	%rsp, %rbp
	.cfi_def_cfa_register %rbp
	subq	$32, %rsp
	movq	%rdi, -8(%rbp)
	movq	-8(%rbp), %rdi
	movq	%rdi, -24(%rbp)                 # 8-byte Spill
	callq	_ZNSt15__uniq_ptr_implIN4llvm12MemoryBufferESt14default_deleteIS1_EE6_M_ptrEv
	movq	%rax, -16(%rbp)
	movq	-16(%rbp), %rax
	cmpq	$0, (%rax)
	je	.LBB47_3
# %bb.1:
	movq	-24(%rbp), %rdi                 # 8-byte Reload
	callq	_ZNSt10unique_ptrIN4llvm12MemoryBufferESt14default_deleteIS1_EE11get_deleterEv
	movq	%rax, %rdi
	movq	-16(%rbp), %rax
	movq	(%rax), %rsi
.Ltmp175:
	callq	_ZNKSt14default_deleteIN4llvm12MemoryBufferEEclEPS1_
.Ltmp176:
	jmp	.LBB47_2
.LBB47_2:
	jmp	.LBB47_3
.LBB47_3:
	movq	-16(%rbp), %rax
	movq	$0, (%rax)
	addq	$32, %rsp
	popq	%rbp
	.cfi_def_cfa %rsp, 8
	retq
.LBB47_4:
	.cfi_def_cfa %rbp, 16
.Ltmp177:
	movq	%rax, %rdi
                                        # kill: def $eax killed $edx killed $rdx
	callq	__clang_call_terminate
.Lfunc_end47:
	.size	_ZNSt10unique_ptrIN4llvm12MemoryBufferESt14default_deleteIS1_EED2Ev, .Lfunc_end47-_ZNSt10unique_ptrIN4llvm12MemoryBufferESt14default_deleteIS1_EED2Ev
	.cfi_endproc
	.section	.gcc_except_table._ZNSt10unique_ptrIN4llvm12MemoryBufferESt14default_deleteIS1_EED2Ev,"aG",@progbits,_ZNSt10unique_ptrIN4llvm12MemoryBufferESt14default_deleteIS1_EED2Ev,comdat
	.p2align	2, 0x0
GCC_except_table47:
.Lexception12:
	.byte	255                             # @LPStart Encoding = omit
	.byte	155                             # @TType Encoding = indirect pcrel sdata4
	.uleb128 .Lttbase4-.Lttbaseref4
.Lttbaseref4:
	.byte	1                               # Call site Encoding = uleb128
	.uleb128 .Lcst_end12-.Lcst_begin12
.Lcst_begin12:
	.uleb128 .Ltmp175-.Lfunc_begin12        # >> Call Site 1 <<
	.uleb128 .Ltmp176-.Ltmp175              #   Call between .Ltmp175 and .Ltmp176
	.uleb128 .Ltmp177-.Lfunc_begin12        #     jumps to .Ltmp177
	.byte	1                               #   On action: 1
.Lcst_end12:
	.byte	1                               # >> Action Record 1 <<
                                        #   Catch TypeInfo 1
	.byte	0                               #   No further actions
	.p2align	2, 0x0
                                        # >> Catch TypeInfos <<
	.long	0                               # TypeInfo 1
.Lttbase4:
	.p2align	2, 0x0
                                        # -- End function
	.section	.text._ZNSt10shared_ptrIN5clang13TargetOptionsEED2Ev,"axG",@progbits,_ZNSt10shared_ptrIN5clang13TargetOptionsEED2Ev,comdat
	.weak	_ZNSt10shared_ptrIN5clang13TargetOptionsEED2Ev # -- Begin function _ZNSt10shared_ptrIN5clang13TargetOptionsEED2Ev
	.p2align	4
	.type	_ZNSt10shared_ptrIN5clang13TargetOptionsEED2Ev,@function
_ZNSt10shared_ptrIN5clang13TargetOptionsEED2Ev: # @_ZNSt10shared_ptrIN5clang13TargetOptionsEED2Ev
	.cfi_startproc
# %bb.0:
	pushq	%rbp
	.cfi_def_cfa_offset 16
	.cfi_offset %rbp, -16
	movq	%rsp, %rbp
	.cfi_def_cfa_register %rbp
	subq	$16, %rsp
	movq	%rdi, -8(%rbp)
	movq	-8(%rbp), %rdi
	callq	_ZNSt12__shared_ptrIN5clang13TargetOptionsELN9__gnu_cxx12_Lock_policyE2EED2Ev
	addq	$16, %rsp
	popq	%rbp
	.cfi_def_cfa %rsp, 8
	retq
.Lfunc_end48:
	.size	_ZNSt10shared_ptrIN5clang13TargetOptionsEED2Ev, .Lfunc_end48-_ZNSt10shared_ptrIN5clang13TargetOptionsEED2Ev
	.cfi_endproc
                                        # -- End function
	.section	.text._ZNSt11char_traitsIcE6lengthEPKc,"axG",@progbits,_ZNSt11char_traitsIcE6lengthEPKc,comdat
	.weak	_ZNSt11char_traitsIcE6lengthEPKc # -- Begin function _ZNSt11char_traitsIcE6lengthEPKc
	.p2align	4
	.type	_ZNSt11char_traitsIcE6lengthEPKc,@function
_ZNSt11char_traitsIcE6lengthEPKc:       # @_ZNSt11char_traitsIcE6lengthEPKc
	.cfi_startproc
# %bb.0:
	pushq	%rbp
	.cfi_def_cfa_offset 16
	.cfi_offset %rbp, -16
	movq	%rsp, %rbp
	.cfi_def_cfa_register %rbp
	subq	$16, %rsp
	movq	%rdi, -8(%rbp)
	movq	-8(%rbp), %rdi
	callq	strlen@PLT
	addq	$16, %rsp
	popq	%rbp
	.cfi_def_cfa %rsp, 8
	retq
.Lfunc_end49:
	.size	_ZNSt11char_traitsIcE6lengthEPKc, .Lfunc_end49-_ZNSt11char_traitsIcE6lengthEPKc
	.cfi_endproc
                                        # -- End function
	.section	.text._ZNSt6vectorINSt7__cxx1112basic_stringIcSt11char_traitsIcESaIcEEESaIS5_EEC2Ev,"axG",@progbits,_ZNSt6vectorINSt7__cxx1112basic_stringIcSt11char_traitsIcESaIcEEESaIS5_EEC2Ev,comdat
	.weak	_ZNSt6vectorINSt7__cxx1112basic_stringIcSt11char_traitsIcESaIcEEESaIS5_EEC2Ev # -- Begin function _ZNSt6vectorINSt7__cxx1112basic_stringIcSt11char_traitsIcESaIcEEESaIS5_EEC2Ev
	.p2align	4
	.type	_ZNSt6vectorINSt7__cxx1112basic_stringIcSt11char_traitsIcESaIcEEESaIS5_EEC2Ev,@function
_ZNSt6vectorINSt7__cxx1112basic_stringIcSt11char_traitsIcESaIcEEESaIS5_EEC2Ev: # @_ZNSt6vectorINSt7__cxx1112basic_stringIcSt11char_traitsIcESaIcEEESaIS5_EEC2Ev
	.cfi_startproc
# %bb.0:
	pushq	%rbp
	.cfi_def_cfa_offset 16
	.cfi_offset %rbp, -16
	movq	%rsp, %rbp
	.cfi_def_cfa_register %rbp
	subq	$16, %rsp
	movq	%rdi, -8(%rbp)
	movq	-8(%rbp), %rdi
	callq	_ZNSt12_Vector_baseINSt7__cxx1112basic_stringIcSt11char_traitsIcESaIcEEESaIS5_EEC2Ev
	addq	$16, %rsp
	popq	%rbp
	.cfi_def_cfa %rsp, 8
	retq
.Lfunc_end50:
	.size	_ZNSt6vectorINSt7__cxx1112basic_stringIcSt11char_traitsIcESaIcEEESaIS5_EEC2Ev, .Lfunc_end50-_ZNSt6vectorINSt7__cxx1112basic_stringIcSt11char_traitsIcESaIcEEESaIS5_EEC2Ev
	.cfi_endproc
                                        # -- End function
	.section	.text._ZNSt7__cxx1112basic_stringIcSt11char_traitsIcESaIcEEC2Ev,"axG",@progbits,_ZNSt7__cxx1112basic_stringIcSt11char_traitsIcESaIcEEC2Ev,comdat
	.weak	_ZNSt7__cxx1112basic_stringIcSt11char_traitsIcESaIcEEC2Ev # -- Begin function _ZNSt7__cxx1112basic_stringIcSt11char_traitsIcESaIcEEC2Ev
	.p2align	4
	.type	_ZNSt7__cxx1112basic_stringIcSt11char_traitsIcESaIcEEC2Ev,@function
_ZNSt7__cxx1112basic_stringIcSt11char_traitsIcESaIcEEC2Ev: # @_ZNSt7__cxx1112basic_stringIcSt11char_traitsIcESaIcEEC2Ev
.Lfunc_begin13:
	.cfi_startproc
	.cfi_personality 155, DW.ref.__gxx_personality_v0
	.cfi_lsda 27, .Lexception13
# %bb.0:
	pushq	%rbp
	.cfi_def_cfa_offset 16
	.cfi_offset %rbp, -16
	movq	%rsp, %rbp
	.cfi_def_cfa_register %rbp
	subq	$80, %rsp
	movq	%fs:40, %rax
	movq	%rax, -8(%rbp)
	movq	%rdi, -56(%rbp)
	movq	-56(%rbp), %rdi
	movq	%rdi, -80(%rbp)                 # 8-byte Spill
	movq	%rdi, %rax
	movq	%rax, -72(%rbp)                 # 8-byte Spill
.Ltmp178:
	callq	_ZNSt7__cxx1112basic_stringIcSt11char_traitsIcESaIcEE13_M_local_dataEv
.Ltmp179:
	movq	%rax, -64(%rbp)                 # 8-byte Spill
	jmp	.LBB51_1
.LBB51_1:
	movq	-64(%rbp), %rsi                 # 8-byte Reload
	movq	-80(%rbp), %rdi                 # 8-byte Reload
	leaq	-9(%rbp), %rdx
	movq	%rdx, -48(%rbp)
	movq	-48(%rbp), %rax
	movq	%rax, -24(%rbp)
.Ltmp180:
	callq	_ZNSt7__cxx1112basic_stringIcSt11char_traitsIcESaIcEE12_Alloc_hiderC2EPcOS3_
.Ltmp181:
	jmp	.LBB51_2
.LBB51_2:
	leaq	-9(%rbp), %rax
	movq	%rax, -40(%rbp)
	movq	-40(%rbp), %rdi
	callq	_ZNSt15__new_allocatorIcED2Ev
	movq	-72(%rbp), %rdi                 # 8-byte Reload
	movq	%rdi, -32(%rbp)
.Ltmp182:
	xorl	%eax, %eax
	movl	%eax, %esi
	callq	_ZNSt7__cxx1112basic_stringIcSt11char_traitsIcESaIcEE13_M_set_lengthEm
.Ltmp183:
	jmp	.LBB51_3
.LBB51_3:
	movq	%fs:40, %rax
	movq	-8(%rbp), %rcx
	cmpq	%rcx, %rax
	jne	.LBB51_6
# %bb.4:
	addq	$80, %rsp
	popq	%rbp
	.cfi_def_cfa %rsp, 8
	retq
.LBB51_5:
	.cfi_def_cfa %rbp, 16
.Ltmp184:
	movq	%rax, %rdi
                                        # kill: def $eax killed $edx killed $rdx
	callq	__clang_call_terminate
.LBB51_6:
	callq	__stack_chk_fail@PLT
.Lfunc_end51:
	.size	_ZNSt7__cxx1112basic_stringIcSt11char_traitsIcESaIcEEC2Ev, .Lfunc_end51-_ZNSt7__cxx1112basic_stringIcSt11char_traitsIcESaIcEEC2Ev
	.cfi_endproc
	.section	.gcc_except_table._ZNSt7__cxx1112basic_stringIcSt11char_traitsIcESaIcEEC2Ev,"aG",@progbits,_ZNSt7__cxx1112basic_stringIcSt11char_traitsIcESaIcEEC2Ev,comdat
	.p2align	2, 0x0
GCC_except_table51:
.Lexception13:
	.byte	255                             # @LPStart Encoding = omit
	.byte	155                             # @TType Encoding = indirect pcrel sdata4
	.uleb128 .Lttbase5-.Lttbaseref5
.Lttbaseref5:
	.byte	1                               # Call site Encoding = uleb128
	.uleb128 .Lcst_end13-.Lcst_begin13
.Lcst_begin13:
	.uleb128 .Ltmp178-.Lfunc_begin13        # >> Call Site 1 <<
	.uleb128 .Ltmp183-.Ltmp178              #   Call between .Ltmp178 and .Ltmp183
	.uleb128 .Ltmp184-.Lfunc_begin13        #     jumps to .Ltmp184
	.byte	1                               #   On action: 1
	.uleb128 .Ltmp183-.Lfunc_begin13        # >> Call Site 2 <<
	.uleb128 .Lfunc_end51-.Ltmp183          #   Call between .Ltmp183 and .Lfunc_end51
	.byte	0                               #     has no landing pad
	.byte	0                               #   On action: cleanup
.Lcst_end13:
	.byte	1                               # >> Action Record 1 <<
                                        #   Catch TypeInfo 1
	.byte	0                               #   No further actions
	.p2align	2, 0x0
                                        # >> Catch TypeInfos <<
	.long	0                               # TypeInfo 1
.Lttbase5:
	.p2align	2, 0x0
                                        # -- End function
	.section	.text._ZNSt6vectorINSt7__cxx1112basic_stringIcSt11char_traitsIcESaIcEEESaIS5_EE9push_backERKS5_,"axG",@progbits,_ZNSt6vectorINSt7__cxx1112basic_stringIcSt11char_traitsIcESaIcEEESaIS5_EE9push_backERKS5_,comdat
	.weak	_ZNSt6vectorINSt7__cxx1112basic_stringIcSt11char_traitsIcESaIcEEESaIS5_EE9push_backERKS5_ # -- Begin function _ZNSt6vectorINSt7__cxx1112basic_stringIcSt11char_traitsIcESaIcEEESaIS5_EE9push_backERKS5_
	.p2align	4
	.type	_ZNSt6vectorINSt7__cxx1112basic_stringIcSt11char_traitsIcESaIcEEESaIS5_EE9push_backERKS5_,@function
_ZNSt6vectorINSt7__cxx1112basic_stringIcSt11char_traitsIcESaIcEEESaIS5_EE9push_backERKS5_: # @_ZNSt6vectorINSt7__cxx1112basic_stringIcSt11char_traitsIcESaIcEEESaIS5_EE9push_backERKS5_
	.cfi_startproc
# %bb.0:
	pushq	%rbp
	.cfi_def_cfa_offset 16
	.cfi_offset %rbp, -16
	movq	%rsp, %rbp
	.cfi_def_cfa_register %rbp
	subq	$80, %rsp
	movq	%rdi, -56(%rbp)
	movq	%rsi, -64(%rbp)
	movq	-56(%rbp), %rcx
	movq	%rcx, -72(%rbp)                 # 8-byte Spill
	movq	8(%rcx), %rax
	cmpq	16(%rcx), %rax
	je	.LBB52_2
# %bb.1:
	movq	-72(%rbp), %rdx                 # 8-byte Reload
	movq	8(%rdx), %rcx
	movq	-64(%rbp), %rax
	movq	%rdx, -32(%rbp)
	movq	%rcx, -40(%rbp)
	movq	%rax, -48(%rbp)
	movq	-32(%rbp), %rdx
	movq	-40(%rbp), %rcx
	movq	-48(%rbp), %rax
	movq	%rdx, -8(%rbp)
	movq	%rcx, -16(%rbp)
	movq	%rax, -24(%rbp)
	movq	-16(%rbp), %rdi
	movq	-24(%rbp), %rsi
	callq	_ZNSt7__cxx1112basic_stringIcSt11char_traitsIcESaIcEEC2ERKS4_
	movq	-72(%rbp), %rax                 # 8-byte Reload
	movq	8(%rax), %rcx
	addq	$32, %rcx
	movq	%rcx, 8(%rax)
	jmp	.LBB52_3
.LBB52_2:
	movq	-72(%rbp), %rdi                 # 8-byte Reload
	movq	-64(%rbp), %rsi
	callq	_ZNSt6vectorINSt7__cxx1112basic_stringIcSt11char_traitsIcESaIcEEESaIS5_EE17_M_realloc_appendIJRKS5_EEEvDpOT_
.LBB52_3:
	addq	$80, %rsp
	popq	%rbp
	.cfi_def_cfa %rsp, 8
	retq
.Lfunc_end52:
	.size	_ZNSt6vectorINSt7__cxx1112basic_stringIcSt11char_traitsIcESaIcEEESaIS5_EE9push_backERKS5_, .Lfunc_end52-_ZNSt6vectorINSt7__cxx1112basic_stringIcSt11char_traitsIcESaIcEEESaIS5_EE9push_backERKS5_
	.cfi_endproc
                                        # -- End function
	.section	.text._ZNSt12_Vector_baseINSt7__cxx1112basic_stringIcSt11char_traitsIcESaIcEEESaIS5_EEC2Ev,"axG",@progbits,_ZNSt12_Vector_baseINSt7__cxx1112basic_stringIcSt11char_traitsIcESaIcEEESaIS5_EEC2Ev,comdat
	.weak	_ZNSt12_Vector_baseINSt7__cxx1112basic_stringIcSt11char_traitsIcESaIcEEESaIS5_EEC2Ev # -- Begin function _ZNSt12_Vector_baseINSt7__cxx1112basic_stringIcSt11char_traitsIcESaIcEEESaIS5_EEC2Ev
	.p2align	4
	.type	_ZNSt12_Vector_baseINSt7__cxx1112basic_stringIcSt11char_traitsIcESaIcEEESaIS5_EEC2Ev,@function
_ZNSt12_Vector_baseINSt7__cxx1112basic_stringIcSt11char_traitsIcESaIcEEESaIS5_EEC2Ev: # @_ZNSt12_Vector_baseINSt7__cxx1112basic_stringIcSt11char_traitsIcESaIcEEESaIS5_EEC2Ev
	.cfi_startproc
# %bb.0:
	pushq	%rbp
	.cfi_def_cfa_offset 16
	.cfi_offset %rbp, -16
	movq	%rsp, %rbp
	.cfi_def_cfa_register %rbp
	subq	$16, %rsp
	movq	%rdi, -8(%rbp)
	movq	-8(%rbp), %rdi
	callq	_ZNSt12_Vector_baseINSt7__cxx1112basic_stringIcSt11char_traitsIcESaIcEEESaIS5_EE12_Vector_implC2Ev
	addq	$16, %rsp
	popq	%rbp
	.cfi_def_cfa %rsp, 8
	retq
.Lfunc_end53:
	.size	_ZNSt12_Vector_baseINSt7__cxx1112basic_stringIcSt11char_traitsIcESaIcEEESaIS5_EEC2Ev, .Lfunc_end53-_ZNSt12_Vector_baseINSt7__cxx1112basic_stringIcSt11char_traitsIcESaIcEEESaIS5_EEC2Ev
	.cfi_endproc
                                        # -- End function
	.section	.text._ZNSt12_Vector_baseINSt7__cxx1112basic_stringIcSt11char_traitsIcESaIcEEESaIS5_EE12_Vector_implC2Ev,"axG",@progbits,_ZNSt12_Vector_baseINSt7__cxx1112basic_stringIcSt11char_traitsIcESaIcEEESaIS5_EE12_Vector_implC2Ev,comdat
	.weak	_ZNSt12_Vector_baseINSt7__cxx1112basic_stringIcSt11char_traitsIcESaIcEEESaIS5_EE12_Vector_implC2Ev # -- Begin function _ZNSt12_Vector_baseINSt7__cxx1112basic_stringIcSt11char_traitsIcESaIcEEESaIS5_EE12_Vector_implC2Ev
	.p2align	4
	.type	_ZNSt12_Vector_baseINSt7__cxx1112basic_stringIcSt11char_traitsIcESaIcEEESaIS5_EE12_Vector_implC2Ev,@function
_ZNSt12_Vector_baseINSt7__cxx1112basic_stringIcSt11char_traitsIcESaIcEEESaIS5_EE12_Vector_implC2Ev: # @_ZNSt12_Vector_baseINSt7__cxx1112basic_stringIcSt11char_traitsIcESaIcEEESaIS5_EE12_Vector_implC2Ev
	.cfi_startproc
# %bb.0:
	pushq	%rbp
	.cfi_def_cfa_offset 16
	.cfi_offset %rbp, -16
	movq	%rsp, %rbp
	.cfi_def_cfa_register %rbp
	subq	$32, %rsp
	movq	%rdi, -24(%rbp)
	movq	-24(%rbp), %rdi
	movq	%rdi, -16(%rbp)
	movq	-16(%rbp), %rax
	movq	%rax, -8(%rbp)
	callq	_ZNSt12_Vector_baseINSt7__cxx1112basic_stringIcSt11char_traitsIcESaIcEEESaIS5_EE17_Vector_impl_dataC2Ev
	addq	$32, %rsp
	popq	%rbp
	.cfi_def_cfa %rsp, 8
	retq
.Lfunc_end54:
	.size	_ZNSt12_Vector_baseINSt7__cxx1112basic_stringIcSt11char_traitsIcESaIcEEESaIS5_EE12_Vector_implC2Ev, .Lfunc_end54-_ZNSt12_Vector_baseINSt7__cxx1112basic_stringIcSt11char_traitsIcESaIcEEESaIS5_EE12_Vector_implC2Ev
	.cfi_endproc
                                        # -- End function
	.section	.text._ZNSt12_Vector_baseINSt7__cxx1112basic_stringIcSt11char_traitsIcESaIcEEESaIS5_EE17_Vector_impl_dataC2Ev,"axG",@progbits,_ZNSt12_Vector_baseINSt7__cxx1112basic_stringIcSt11char_traitsIcESaIcEEESaIS5_EE17_Vector_impl_dataC2Ev,comdat
	.weak	_ZNSt12_Vector_baseINSt7__cxx1112basic_stringIcSt11char_traitsIcESaIcEEESaIS5_EE17_Vector_impl_dataC2Ev # -- Begin function _ZNSt12_Vector_baseINSt7__cxx1112basic_stringIcSt11char_traitsIcESaIcEEESaIS5_EE17_Vector_impl_dataC2Ev
	.p2align	4
	.type	_ZNSt12_Vector_baseINSt7__cxx1112basic_stringIcSt11char_traitsIcESaIcEEESaIS5_EE17_Vector_impl_dataC2Ev,@function
_ZNSt12_Vector_baseINSt7__cxx1112basic_stringIcSt11char_traitsIcESaIcEEESaIS5_EE17_Vector_impl_dataC2Ev: # @_ZNSt12_Vector_baseINSt7__cxx1112basic_stringIcSt11char_traitsIcESaIcEEESaIS5_EE17_Vector_impl_dataC2Ev
	.cfi_startproc
# %bb.0:
	pushq	%rbp
	.cfi_def_cfa_offset 16
	.cfi_offset %rbp, -16
	movq	%rsp, %rbp
	.cfi_def_cfa_register %rbp
	movq	%rdi, -8(%rbp)
	movq	-8(%rbp), %rax
	movq	$0, (%rax)
	movq	$0, 8(%rax)
	movq	$0, 16(%rax)
	popq	%rbp
	.cfi_def_cfa %rsp, 8
	retq
.Lfunc_end55:
	.size	_ZNSt12_Vector_baseINSt7__cxx1112basic_stringIcSt11char_traitsIcESaIcEEESaIS5_EE17_Vector_impl_dataC2Ev, .Lfunc_end55-_ZNSt12_Vector_baseINSt7__cxx1112basic_stringIcSt11char_traitsIcESaIcEEESaIS5_EE17_Vector_impl_dataC2Ev
	.cfi_endproc
                                        # -- End function
	.section	.text._ZNSt7__cxx1112basic_stringIcSt11char_traitsIcESaIcEE13_M_local_dataEv,"axG",@progbits,_ZNSt7__cxx1112basic_stringIcSt11char_traitsIcESaIcEE13_M_local_dataEv,comdat
	.weak	_ZNSt7__cxx1112basic_stringIcSt11char_traitsIcESaIcEE13_M_local_dataEv # -- Begin function _ZNSt7__cxx1112basic_stringIcSt11char_traitsIcESaIcEE13_M_local_dataEv
	.p2align	4
	.type	_ZNSt7__cxx1112basic_stringIcSt11char_traitsIcESaIcEE13_M_local_dataEv,@function
_ZNSt7__cxx1112basic_stringIcSt11char_traitsIcESaIcEE13_M_local_dataEv: # @_ZNSt7__cxx1112basic_stringIcSt11char_traitsIcESaIcEE13_M_local_dataEv
	.cfi_startproc
# %bb.0:
	pushq	%rbp
	.cfi_def_cfa_offset 16
	.cfi_offset %rbp, -16
	movq	%rsp, %rbp
	.cfi_def_cfa_register %rbp
	subq	$16, %rsp
	movq	%rdi, -8(%rbp)
	movq	-8(%rbp), %rdi
	addq	$16, %rdi
	callq	_ZNSt19__ptr_traits_ptr_toIPccLb0EE10pointer_toERc
	addq	$16, %rsp
	popq	%rbp
	.cfi_def_cfa %rsp, 8
	retq
.Lfunc_end56:
	.size	_ZNSt7__cxx1112basic_stringIcSt11char_traitsIcESaIcEE13_M_local_dataEv, .Lfunc_end56-_ZNSt7__cxx1112basic_stringIcSt11char_traitsIcESaIcEE13_M_local_dataEv
	.cfi_endproc
                                        # -- End function
	.section	.text.__clang_call_terminate,"axG",@progbits,__clang_call_terminate,comdat
	.hidden	__clang_call_terminate          # -- Begin function __clang_call_terminate
	.weak	__clang_call_terminate
	.p2align	4
	.type	__clang_call_terminate,@function
__clang_call_terminate:                 # @__clang_call_terminate
	.cfi_startproc
# %bb.0:
	pushq	%rbp
	.cfi_def_cfa_offset 16
	.cfi_offset %rbp, -16
	movq	%rsp, %rbp
	.cfi_def_cfa_register %rbp
	callq	__cxa_begin_catch@PLT
	callq	_ZSt9terminatev@PLT
.Lfunc_end57:
	.size	__clang_call_terminate, .Lfunc_end57-__clang_call_terminate
	.cfi_endproc
                                        # -- End function
	.section	.text._ZNSt7__cxx1112basic_stringIcSt11char_traitsIcESaIcEE12_Alloc_hiderC2EPcOS3_,"axG",@progbits,_ZNSt7__cxx1112basic_stringIcSt11char_traitsIcESaIcEE12_Alloc_hiderC2EPcOS3_,comdat
	.weak	_ZNSt7__cxx1112basic_stringIcSt11char_traitsIcESaIcEE12_Alloc_hiderC2EPcOS3_ # -- Begin function _ZNSt7__cxx1112basic_stringIcSt11char_traitsIcESaIcEE12_Alloc_hiderC2EPcOS3_
	.p2align	4
	.type	_ZNSt7__cxx1112basic_stringIcSt11char_traitsIcESaIcEE12_Alloc_hiderC2EPcOS3_,@function
_ZNSt7__cxx1112basic_stringIcSt11char_traitsIcESaIcEE12_Alloc_hiderC2EPcOS3_: # @_ZNSt7__cxx1112basic_stringIcSt11char_traitsIcESaIcEE12_Alloc_hiderC2EPcOS3_
	.cfi_startproc
# %bb.0:
	pushq	%rbp
	.cfi_def_cfa_offset 16
	.cfi_offset %rbp, -16
	movq	%rsp, %rbp
	.cfi_def_cfa_register %rbp
	movq	%rdi, -40(%rbp)
	movq	%rsi, -48(%rbp)
	movq	%rdx, -56(%rbp)
	movq	-40(%rbp), %rax
	movq	-56(%rbp), %rcx
	movq	%rax, -24(%rbp)
	movq	%rcx, -32(%rbp)
	movq	-24(%rbp), %rdx
	movq	-32(%rbp), %rcx
	movq	%rdx, -8(%rbp)
	movq	%rcx, -16(%rbp)
	movq	-48(%rbp), %rcx
	movq	%rcx, (%rax)
	popq	%rbp
	.cfi_def_cfa %rsp, 8
	retq
.Lfunc_end58:
	.size	_ZNSt7__cxx1112basic_stringIcSt11char_traitsIcESaIcEE12_Alloc_hiderC2EPcOS3_, .Lfunc_end58-_ZNSt7__cxx1112basic_stringIcSt11char_traitsIcESaIcEE12_Alloc_hiderC2EPcOS3_
	.cfi_endproc
                                        # -- End function
	.section	.text._ZNSt7__cxx1112basic_stringIcSt11char_traitsIcESaIcEE13_M_set_lengthEm,"axG",@progbits,_ZNSt7__cxx1112basic_stringIcSt11char_traitsIcESaIcEE13_M_set_lengthEm,comdat
	.weak	_ZNSt7__cxx1112basic_stringIcSt11char_traitsIcESaIcEE13_M_set_lengthEm # -- Begin function _ZNSt7__cxx1112basic_stringIcSt11char_traitsIcESaIcEE13_M_set_lengthEm
	.p2align	4
	.type	_ZNSt7__cxx1112basic_stringIcSt11char_traitsIcESaIcEE13_M_set_lengthEm,@function
_ZNSt7__cxx1112basic_stringIcSt11char_traitsIcESaIcEE13_M_set_lengthEm: # @_ZNSt7__cxx1112basic_stringIcSt11char_traitsIcESaIcEE13_M_set_lengthEm
	.cfi_startproc
# %bb.0:
	pushq	%rbp
	.cfi_def_cfa_offset 16
	.cfi_offset %rbp, -16
	movq	%rsp, %rbp
	.cfi_def_cfa_register %rbp
	subq	$48, %rsp
	movq	%fs:40, %rax
	movq	%rax, -8(%rbp)
	movq	%rdi, -24(%rbp)
	movq	%rsi, -32(%rbp)
	movq	-24(%rbp), %rdi
	movq	%rdi, -40(%rbp)                 # 8-byte Spill
	movq	-32(%rbp), %rsi
	callq	_ZNSt7__cxx1112basic_stringIcSt11char_traitsIcESaIcEE9_M_lengthEm
	movq	-40(%rbp), %rdi                 # 8-byte Reload
	callq	_ZNKSt7__cxx1112basic_stringIcSt11char_traitsIcESaIcEE7_M_dataEv
	movq	%rax, %rdi
	movq	-32(%rbp), %rax
	addq	%rax, %rdi
	movb	$0, -9(%rbp)
	leaq	-9(%rbp), %rsi
	callq	_ZNSt11char_traitsIcE6assignERcRKc
	movq	%fs:40, %rax
	movq	-8(%rbp), %rcx
	cmpq	%rcx, %rax
	jne	.LBB59_2
# %bb.1:
	addq	$48, %rsp
	popq	%rbp
	.cfi_def_cfa %rsp, 8
	retq
.LBB59_2:
	.cfi_def_cfa %rbp, 16
	callq	__stack_chk_fail@PLT
.Lfunc_end59:
	.size	_ZNSt7__cxx1112basic_stringIcSt11char_traitsIcESaIcEE13_M_set_lengthEm, .Lfunc_end59-_ZNSt7__cxx1112basic_stringIcSt11char_traitsIcESaIcEE13_M_set_lengthEm
	.cfi_endproc
                                        # -- End function
	.section	.text._ZNSt19__ptr_traits_ptr_toIPccLb0EE10pointer_toERc,"axG",@progbits,_ZNSt19__ptr_traits_ptr_toIPccLb0EE10pointer_toERc,comdat
	.weak	_ZNSt19__ptr_traits_ptr_toIPccLb0EE10pointer_toERc # -- Begin function _ZNSt19__ptr_traits_ptr_toIPccLb0EE10pointer_toERc
	.p2align	4
	.type	_ZNSt19__ptr_traits_ptr_toIPccLb0EE10pointer_toERc,@function
_ZNSt19__ptr_traits_ptr_toIPccLb0EE10pointer_toERc: # @_ZNSt19__ptr_traits_ptr_toIPccLb0EE10pointer_toERc
	.cfi_startproc
# %bb.0:
	pushq	%rbp
	.cfi_def_cfa_offset 16
	.cfi_offset %rbp, -16
	movq	%rsp, %rbp
	.cfi_def_cfa_register %rbp
	movq	%rdi, -8(%rbp)
	movq	-8(%rbp), %rax
	popq	%rbp
	.cfi_def_cfa %rsp, 8
	retq
.Lfunc_end60:
	.size	_ZNSt19__ptr_traits_ptr_toIPccLb0EE10pointer_toERc, .Lfunc_end60-_ZNSt19__ptr_traits_ptr_toIPccLb0EE10pointer_toERc
	.cfi_endproc
                                        # -- End function
	.section	.text._ZNSt7__cxx1112basic_stringIcSt11char_traitsIcESaIcEE9_M_lengthEm,"axG",@progbits,_ZNSt7__cxx1112basic_stringIcSt11char_traitsIcESaIcEE9_M_lengthEm,comdat
	.weak	_ZNSt7__cxx1112basic_stringIcSt11char_traitsIcESaIcEE9_M_lengthEm # -- Begin function _ZNSt7__cxx1112basic_stringIcSt11char_traitsIcESaIcEE9_M_lengthEm
	.p2align	4
	.type	_ZNSt7__cxx1112basic_stringIcSt11char_traitsIcESaIcEE9_M_lengthEm,@function
_ZNSt7__cxx1112basic_stringIcSt11char_traitsIcESaIcEE9_M_lengthEm: # @_ZNSt7__cxx1112basic_stringIcSt11char_traitsIcESaIcEE9_M_lengthEm
	.cfi_startproc
# %bb.0:
	pushq	%rbp
	.cfi_def_cfa_offset 16
	.cfi_offset %rbp, -16
	movq	%rsp, %rbp
	.cfi_def_cfa_register %rbp
	movq	%rdi, -8(%rbp)
	movq	%rsi, -16(%rbp)
	movq	-8(%rbp), %rax
	movq	-16(%rbp), %rcx
	movq	%rcx, 8(%rax)
	popq	%rbp
	.cfi_def_cfa %rsp, 8
	retq
.Lfunc_end61:
	.size	_ZNSt7__cxx1112basic_stringIcSt11char_traitsIcESaIcEE9_M_lengthEm, .Lfunc_end61-_ZNSt7__cxx1112basic_stringIcSt11char_traitsIcESaIcEE9_M_lengthEm
	.cfi_endproc
                                        # -- End function
	.section	.text._ZNSt11char_traitsIcE6assignERcRKc,"axG",@progbits,_ZNSt11char_traitsIcE6assignERcRKc,comdat
	.weak	_ZNSt11char_traitsIcE6assignERcRKc # -- Begin function _ZNSt11char_traitsIcE6assignERcRKc
	.p2align	4
	.type	_ZNSt11char_traitsIcE6assignERcRKc,@function
_ZNSt11char_traitsIcE6assignERcRKc:     # @_ZNSt11char_traitsIcE6assignERcRKc
	.cfi_startproc
# %bb.0:
	pushq	%rbp
	.cfi_def_cfa_offset 16
	.cfi_offset %rbp, -16
	movq	%rsp, %rbp
	.cfi_def_cfa_register %rbp
	movq	%rdi, -8(%rbp)
	movq	%rsi, -16(%rbp)
	movq	-16(%rbp), %rax
	movb	(%rax), %cl
	movq	-8(%rbp), %rax
	movb	%cl, (%rax)
	popq	%rbp
	.cfi_def_cfa %rsp, 8
	retq
.Lfunc_end62:
	.size	_ZNSt11char_traitsIcE6assignERcRKc, .Lfunc_end62-_ZNSt11char_traitsIcE6assignERcRKc
	.cfi_endproc
                                        # -- End function
	.section	.text._ZNKSt7__cxx1112basic_stringIcSt11char_traitsIcESaIcEE7_M_dataEv,"axG",@progbits,_ZNKSt7__cxx1112basic_stringIcSt11char_traitsIcESaIcEE7_M_dataEv,comdat
	.weak	_ZNKSt7__cxx1112basic_stringIcSt11char_traitsIcESaIcEE7_M_dataEv # -- Begin function _ZNKSt7__cxx1112basic_stringIcSt11char_traitsIcESaIcEE7_M_dataEv
	.p2align	4
	.type	_ZNKSt7__cxx1112basic_stringIcSt11char_traitsIcESaIcEE7_M_dataEv,@function
_ZNKSt7__cxx1112basic_stringIcSt11char_traitsIcESaIcEE7_M_dataEv: # @_ZNKSt7__cxx1112basic_stringIcSt11char_traitsIcESaIcEE7_M_dataEv
	.cfi_startproc
# %bb.0:
	pushq	%rbp
	.cfi_def_cfa_offset 16
	.cfi_offset %rbp, -16
	movq	%rsp, %rbp
	.cfi_def_cfa_register %rbp
	movq	%rdi, -8(%rbp)
	movq	-8(%rbp), %rax
	movq	(%rax), %rax
	popq	%rbp
	.cfi_def_cfa %rsp, 8
	retq
.Lfunc_end63:
	.size	_ZNKSt7__cxx1112basic_stringIcSt11char_traitsIcESaIcEE7_M_dataEv, .Lfunc_end63-_ZNKSt7__cxx1112basic_stringIcSt11char_traitsIcESaIcEE7_M_dataEv
	.cfi_endproc
                                        # -- End function
	.section	.text._ZNSt6vectorINSt7__cxx1112basic_stringIcSt11char_traitsIcESaIcEEESaIS5_EE17_M_realloc_appendIJRKS5_EEEvDpOT_,"axG",@progbits,_ZNSt6vectorINSt7__cxx1112basic_stringIcSt11char_traitsIcESaIcEEESaIS5_EE17_M_realloc_appendIJRKS5_EEEvDpOT_,comdat
	.weak	_ZNSt6vectorINSt7__cxx1112basic_stringIcSt11char_traitsIcESaIcEEESaIS5_EE17_M_realloc_appendIJRKS5_EEEvDpOT_ # -- Begin function _ZNSt6vectorINSt7__cxx1112basic_stringIcSt11char_traitsIcESaIcEEESaIS5_EE17_M_realloc_appendIJRKS5_EEEvDpOT_
	.p2align	4
	.type	_ZNSt6vectorINSt7__cxx1112basic_stringIcSt11char_traitsIcESaIcEEESaIS5_EE17_M_realloc_appendIJRKS5_EEEvDpOT_,@function
_ZNSt6vectorINSt7__cxx1112basic_stringIcSt11char_traitsIcESaIcEEESaIS5_EE17_M_realloc_appendIJRKS5_EEEvDpOT_: # @_ZNSt6vectorINSt7__cxx1112basic_stringIcSt11char_traitsIcESaIcEEESaIS5_EE17_M_realloc_appendIJRKS5_EEEvDpOT_
.Lfunc_begin14:
	.cfi_startproc
	.cfi_personality 155, DW.ref.__gxx_personality_v0
	.cfi_lsda 27, .Lexception14
# %bb.0:
	pushq	%rbp
	.cfi_def_cfa_offset 16
	.cfi_offset %rbp, -16
	movq	%rsp, %rbp
	.cfi_def_cfa_register %rbp
	subq	$256, %rsp                      # imm = 0x100
	movq	%fs:40, %rax
	movq	%rax, -8(%rbp)
	movq	%rdi, -144(%rbp)
	movq	%rsi, -152(%rbp)
	movq	-144(%rbp), %rdi
	movq	%rdi, -224(%rbp)                # 8-byte Spill
	movl	$1, %esi
	leaq	.L.str.19(%rip), %rdx
	callq	_ZNKSt6vectorINSt7__cxx1112basic_stringIcSt11char_traitsIcESaIcEEESaIS5_EE12_M_check_lenEmPKc
	movq	%rax, -160(%rbp)
	cmpq	$0, -160(%rbp)
	ja	.LBB64_2
# %bb.1:
.LBB64_2:
	movq	-224(%rbp), %rdi                # 8-byte Reload
	movq	(%rdi), %rax
	movq	%rax, -168(%rbp)
	movq	8(%rdi), %rax
	movq	%rax, -176(%rbp)
	callq	_ZNSt6vectorINSt7__cxx1112basic_stringIcSt11char_traitsIcESaIcEEESaIS5_EE3endEv
	movq	-224(%rbp), %rdi                # 8-byte Reload
	movq	%rax, -16(%rbp)
	callq	_ZNSt6vectorINSt7__cxx1112basic_stringIcSt11char_traitsIcESaIcEEESaIS5_EE5beginEv
	movq	-224(%rbp), %rdi                # 8-byte Reload
	movq	%rax, -24(%rbp)
	leaq	-16(%rbp), %rax
	movq	%rax, -80(%rbp)
	leaq	-24(%rbp), %rax
	movq	%rax, -88(%rbp)
	movq	-80(%rbp), %rax
	movq	%rax, -56(%rbp)
	movq	-56(%rbp), %rax
	movq	(%rax), %rax
	movq	-88(%rbp), %rcx
	movq	%rcx, -64(%rbp)
	movq	-64(%rbp), %rcx
	movq	(%rcx), %rcx
	subq	%rcx, %rax
	sarq	$5, %rax
	movq	%rax, -184(%rbp)
	movq	-160(%rbp), %rsi
	callq	_ZNSt12_Vector_baseINSt7__cxx1112basic_stringIcSt11char_traitsIcESaIcEEESaIS5_EE11_M_allocateEm
	movq	-224(%rbp), %rcx                # 8-byte Reload
	movq	%rax, -192(%rbp)
	movq	-192(%rbp), %rax
	movq	%rax, -200(%rbp)
	movq	-192(%rbp), %rsi
	movq	-160(%rbp), %rdx
	leaq	-48(%rbp), %rdi
	callq	_ZNSt6vectorINSt7__cxx1112basic_stringIcSt11char_traitsIcESaIcEEESaIS5_EE12_Guard_allocC2EPS5_mRSt12_Vector_baseIS5_S6_E
	movq	-224(%rbp), %rdx                # 8-byte Reload
	movq	-192(%rbp), %rax
	movq	-184(%rbp), %rcx
	shlq	$5, %rcx
	addq	%rcx, %rax
	movq	%rax, -72(%rbp)
	movq	-72(%rbp), %rcx
	movq	-152(%rbp), %rax
	movq	%rdx, -120(%rbp)
	movq	%rcx, -128(%rbp)
	movq	%rax, -136(%rbp)
	movq	-120(%rbp), %rdx
	movq	-128(%rbp), %rcx
	movq	-136(%rbp), %rax
	movq	%rdx, -96(%rbp)
	movq	%rcx, -104(%rbp)
	movq	%rax, -112(%rbp)
	movq	-104(%rbp), %rdi
	movq	-112(%rbp), %rsi
.Ltmp185:
	callq	_ZNSt7__cxx1112basic_stringIcSt11char_traitsIcESaIcEEC2ERKS4_
.Ltmp186:
	jmp	.LBB64_3
.LBB64_3:
	jmp	.LBB64_4
.LBB64_4:
	jmp	.LBB64_5
.LBB64_5:
	movq	-224(%rbp), %rdi                # 8-byte Reload
	movq	-168(%rbp), %rax
	movq	%rax, -248(%rbp)                # 8-byte Spill
	movq	-176(%rbp), %rax
	movq	%rax, -240(%rbp)                # 8-byte Spill
	movq	-192(%rbp), %rax
	movq	%rax, -232(%rbp)                # 8-byte Spill
	callq	_ZNSt12_Vector_baseINSt7__cxx1112basic_stringIcSt11char_traitsIcESaIcEEESaIS5_EE19_M_get_Tp_allocatorEv
	movq	-248(%rbp), %rdi                # 8-byte Reload
	movq	-240(%rbp), %rsi                # 8-byte Reload
	movq	-232(%rbp), %rdx                # 8-byte Reload
	movq	%rax, %rcx
	callq	_ZNSt6vectorINSt7__cxx1112basic_stringIcSt11char_traitsIcESaIcEEESaIS5_EE11_S_relocateEPS5_S8_S8_RS6_
	movq	%rax, %rcx
	movq	-224(%rbp), %rax                # 8-byte Reload
	movq	%rcx, -200(%rbp)
	movq	-200(%rbp), %rcx
	addq	$32, %rcx
	movq	%rcx, -200(%rbp)
	movq	-168(%rbp), %rcx
	movq	%rcx, -48(%rbp)
	movq	16(%rax), %rax
	movq	-168(%rbp), %rcx
	subq	%rcx, %rax
	sarq	$5, %rax
	movq	%rax, -40(%rbp)
	leaq	-48(%rbp), %rdi
	callq	_ZNSt6vectorINSt7__cxx1112basic_stringIcSt11char_traitsIcESaIcEEESaIS5_EE12_Guard_allocD2Ev
	movq	-224(%rbp), %rax                # 8-byte Reload
	movq	-192(%rbp), %rcx
	movq	%rcx, (%rax)
	movq	-200(%rbp), %rcx
	movq	%rcx, 8(%rax)
	movq	-192(%rbp), %rcx
	movq	-160(%rbp), %rdx
	shlq	$5, %rdx
	addq	%rdx, %rcx
	movq	%rcx, 16(%rax)
	movq	%fs:40, %rax
	movq	-8(%rbp), %rcx
	cmpq	%rcx, %rax
	jne	.LBB64_10
# %bb.6:
	addq	$256, %rsp                      # imm = 0x100
	popq	%rbp
	.cfi_def_cfa %rsp, 8
	retq
.LBB64_7:
	.cfi_def_cfa %rbp, 16
.Ltmp187:
	movq	%rax, %rcx
	movl	%edx, %eax
	movq	%rcx, -208(%rbp)
	movl	%eax, -212(%rbp)
	leaq	-48(%rbp), %rdi
	callq	_ZNSt6vectorINSt7__cxx1112basic_stringIcSt11char_traitsIcESaIcEEESaIS5_EE12_Guard_allocD2Ev
# %bb.8:
	movq	-208(%rbp), %rax
	movq	%rax, -256(%rbp)                # 8-byte Spill
	movq	%fs:40, %rax
	movq	-8(%rbp), %rcx
	cmpq	%rcx, %rax
	jne	.LBB64_10
# %bb.9:
	movq	-256(%rbp), %rdi                # 8-byte Reload
	callq	_Unwind_Resume@PLT
.LBB64_10:
	callq	__stack_chk_fail@PLT
.Lfunc_end64:
	.size	_ZNSt6vectorINSt7__cxx1112basic_stringIcSt11char_traitsIcESaIcEEESaIS5_EE17_M_realloc_appendIJRKS5_EEEvDpOT_, .Lfunc_end64-_ZNSt6vectorINSt7__cxx1112basic_stringIcSt11char_traitsIcESaIcEEESaIS5_EE17_M_realloc_appendIJRKS5_EEEvDpOT_
	.cfi_endproc
	.section	.gcc_except_table._ZNSt6vectorINSt7__cxx1112basic_stringIcSt11char_traitsIcESaIcEEESaIS5_EE17_M_realloc_appendIJRKS5_EEEvDpOT_,"aG",@progbits,_ZNSt6vectorINSt7__cxx1112basic_stringIcSt11char_traitsIcESaIcEEESaIS5_EE17_M_realloc_appendIJRKS5_EEEvDpOT_,comdat
	.p2align	2, 0x0
GCC_except_table64:
.Lexception14:
	.byte	255                             # @LPStart Encoding = omit
	.byte	255                             # @TType Encoding = omit
	.byte	1                               # Call site Encoding = uleb128
	.uleb128 .Lcst_end14-.Lcst_begin14
.Lcst_begin14:
	.uleb128 .Lfunc_begin14-.Lfunc_begin14  # >> Call Site 1 <<
	.uleb128 .Ltmp185-.Lfunc_begin14        #   Call between .Lfunc_begin14 and .Ltmp185
	.byte	0                               #     has no landing pad
	.byte	0                               #   On action: cleanup
	.uleb128 .Ltmp185-.Lfunc_begin14        # >> Call Site 2 <<
	.uleb128 .Ltmp186-.Ltmp185              #   Call between .Ltmp185 and .Ltmp186
	.uleb128 .Ltmp187-.Lfunc_begin14        #     jumps to .Ltmp187
	.byte	0                               #   On action: cleanup
	.uleb128 .Ltmp186-.Lfunc_begin14        # >> Call Site 3 <<
	.uleb128 .Lfunc_end64-.Ltmp186          #   Call between .Ltmp186 and .Lfunc_end64
	.byte	0                               #     has no landing pad
	.byte	0                               #   On action: cleanup
.Lcst_end14:
	.p2align	2, 0x0
                                        # -- End function
	.section	.text._ZNSt7__cxx1112basic_stringIcSt11char_traitsIcESaIcEEC2ERKS4_,"axG",@progbits,_ZNSt7__cxx1112basic_stringIcSt11char_traitsIcESaIcEEC2ERKS4_,comdat
	.weak	_ZNSt7__cxx1112basic_stringIcSt11char_traitsIcESaIcEEC2ERKS4_ # -- Begin function _ZNSt7__cxx1112basic_stringIcSt11char_traitsIcESaIcEEC2ERKS4_
	.p2align	4
	.type	_ZNSt7__cxx1112basic_stringIcSt11char_traitsIcESaIcEEC2ERKS4_,@function
_ZNSt7__cxx1112basic_stringIcSt11char_traitsIcESaIcEEC2ERKS4_: # @_ZNSt7__cxx1112basic_stringIcSt11char_traitsIcESaIcEEC2ERKS4_
.Lfunc_begin15:
	.cfi_startproc
	.cfi_personality 155, DW.ref.__gxx_personality_v0
	.cfi_lsda 27, .Lexception15
# %bb.0:
	pushq	%rbp
	.cfi_def_cfa_offset 16
	.cfi_offset %rbp, -16
	movq	%rsp, %rbp
	.cfi_def_cfa_register %rbp
	subq	$176, %rsp
	movq	%fs:40, %rax
	movq	%rax, -8(%rbp)
	movq	%rdi, -104(%rbp)
	movq	%rsi, -112(%rbp)
	movq	-104(%rbp), %rdi
	movq	%rdi, -144(%rbp)                # 8-byte Spill
	movq	%rdi, %rax
	movq	%rax, -152(%rbp)                # 8-byte Spill
	callq	_ZNSt7__cxx1112basic_stringIcSt11char_traitsIcESaIcEE13_M_local_dataEv
	movq	%rax, -136(%rbp)                # 8-byte Spill
	movq	-112(%rbp), %rdi
	callq	_ZNKSt7__cxx1112basic_stringIcSt11char_traitsIcESaIcEE16_M_get_allocatorEv
	movq	-144(%rbp), %rdi                # 8-byte Reload
	movq	-136(%rbp), %rsi                # 8-byte Reload
	leaq	-9(%rbp), %rdx
	movq	%rdx, -72(%rbp)
	movq	%rax, -80(%rbp)
	movq	-80(%rbp), %rax
	movq	%rdx, -56(%rbp)
	movq	%rax, -64(%rbp)
	movq	-64(%rbp), %rax
	movq	%rdx, -40(%rbp)
	movq	%rax, -48(%rbp)
	movq	-40(%rbp), %rcx
	movq	-48(%rbp), %rax
	movq	%rcx, -24(%rbp)
	movq	%rax, -32(%rbp)
.Ltmp188:
	callq	_ZNSt7__cxx1112basic_stringIcSt11char_traitsIcESaIcEE12_Alloc_hiderC2EPcOS3_
.Ltmp189:
	jmp	.LBB65_1
.LBB65_1:
	leaq	-9(%rbp), %rax
	movq	%rax, -96(%rbp)
	movq	-96(%rbp), %rdi
	callq	_ZNSt15__new_allocatorIcED2Ev
	movq	-112(%rbp), %rdi
	callq	_ZNKSt7__cxx1112basic_stringIcSt11char_traitsIcESaIcEE7_M_dataEv
	movq	%rax, -160(%rbp)                # 8-byte Spill
	movq	-112(%rbp), %rdi
	callq	_ZNKSt7__cxx1112basic_stringIcSt11char_traitsIcESaIcEE6lengthEv
	movq	-152(%rbp), %rdi                # 8-byte Reload
	movq	-160(%rbp), %rsi                # 8-byte Reload
	movq	%rax, %rdx
.Ltmp191:
	callq	_ZNSt7__cxx1112basic_stringIcSt11char_traitsIcESaIcEE12_M_constructILb1EEEvPKcm
.Ltmp192:
	jmp	.LBB65_2
.LBB65_2:
	movq	%fs:40, %rax
	movq	-8(%rbp), %rcx
	cmpq	%rcx, %rax
	jne	.LBB65_8
# %bb.3:
	addq	$176, %rsp
	popq	%rbp
	.cfi_def_cfa %rsp, 8
	retq
.LBB65_4:
	.cfi_def_cfa %rbp, 16
.Ltmp190:
	movq	%rax, %rcx
	movl	%edx, %eax
	movq	%rcx, -120(%rbp)
	movl	%eax, -124(%rbp)
	leaq	-9(%rbp), %rax
	movq	%rax, -88(%rbp)
	movq	-88(%rbp), %rdi
	callq	_ZNSt15__new_allocatorIcED2Ev
	jmp	.LBB65_6
.LBB65_5:
.Ltmp193:
	movq	-144(%rbp), %rdi                # 8-byte Reload
	movq	%rax, %rcx
	movl	%edx, %eax
	movq	%rcx, -120(%rbp)
	movl	%eax, -124(%rbp)
	callq	_ZNSt7__cxx1112basic_stringIcSt11char_traitsIcESaIcEE12_Alloc_hiderD2Ev
.LBB65_6:
	movq	-120(%rbp), %rax
	movq	%rax, -168(%rbp)                # 8-byte Spill
	movq	%fs:40, %rax
	movq	-8(%rbp), %rcx
	cmpq	%rcx, %rax
	jne	.LBB65_8
# %bb.7:
	movq	-168(%rbp), %rdi                # 8-byte Reload
	callq	_Unwind_Resume@PLT
.LBB65_8:
	callq	__stack_chk_fail@PLT
.Lfunc_end65:
	.size	_ZNSt7__cxx1112basic_stringIcSt11char_traitsIcESaIcEEC2ERKS4_, .Lfunc_end65-_ZNSt7__cxx1112basic_stringIcSt11char_traitsIcESaIcEEC2ERKS4_
	.cfi_endproc
	.section	.gcc_except_table._ZNSt7__cxx1112basic_stringIcSt11char_traitsIcESaIcEEC2ERKS4_,"aG",@progbits,_ZNSt7__cxx1112basic_stringIcSt11char_traitsIcESaIcEEC2ERKS4_,comdat
	.p2align	2, 0x0
GCC_except_table65:
.Lexception15:
	.byte	255                             # @LPStart Encoding = omit
	.byte	255                             # @TType Encoding = omit
	.byte	1                               # Call site Encoding = uleb128
	.uleb128 .Lcst_end15-.Lcst_begin15
.Lcst_begin15:
	.uleb128 .Ltmp188-.Lfunc_begin15        # >> Call Site 1 <<
	.uleb128 .Ltmp189-.Ltmp188              #   Call between .Ltmp188 and .Ltmp189
	.uleb128 .Ltmp190-.Lfunc_begin15        #     jumps to .Ltmp190
	.byte	0                               #   On action: cleanup
	.uleb128 .Ltmp191-.Lfunc_begin15        # >> Call Site 2 <<
	.uleb128 .Ltmp192-.Ltmp191              #   Call between .Ltmp191 and .Ltmp192
	.uleb128 .Ltmp193-.Lfunc_begin15        #     jumps to .Ltmp193
	.byte	0                               #   On action: cleanup
	.uleb128 .Ltmp192-.Lfunc_begin15        # >> Call Site 3 <<
	.uleb128 .Lfunc_end65-.Ltmp192          #   Call between .Ltmp192 and .Lfunc_end65
	.byte	0                               #     has no landing pad
	.byte	0                               #   On action: cleanup
.Lcst_end15:
	.p2align	2, 0x0
                                        # -- End function
	.section	.text._ZNKSt7__cxx1112basic_stringIcSt11char_traitsIcESaIcEE16_M_get_allocatorEv,"axG",@progbits,_ZNKSt7__cxx1112basic_stringIcSt11char_traitsIcESaIcEE16_M_get_allocatorEv,comdat
	.weak	_ZNKSt7__cxx1112basic_stringIcSt11char_traitsIcESaIcEE16_M_get_allocatorEv # -- Begin function _ZNKSt7__cxx1112basic_stringIcSt11char_traitsIcESaIcEE16_M_get_allocatorEv
	.p2align	4
	.type	_ZNKSt7__cxx1112basic_stringIcSt11char_traitsIcESaIcEE16_M_get_allocatorEv,@function
_ZNKSt7__cxx1112basic_stringIcSt11char_traitsIcESaIcEE16_M_get_allocatorEv: # @_ZNKSt7__cxx1112basic_stringIcSt11char_traitsIcESaIcEE16_M_get_allocatorEv
	.cfi_startproc
# %bb.0:
	pushq	%rbp
	.cfi_def_cfa_offset 16
	.cfi_offset %rbp, -16
	movq	%rsp, %rbp
	.cfi_def_cfa_register %rbp
	movq	%rdi, -8(%rbp)
	movq	-8(%rbp), %rax
	popq	%rbp
	.cfi_def_cfa %rsp, 8
	retq
.Lfunc_end66:
	.size	_ZNKSt7__cxx1112basic_stringIcSt11char_traitsIcESaIcEE16_M_get_allocatorEv, .Lfunc_end66-_ZNKSt7__cxx1112basic_stringIcSt11char_traitsIcESaIcEE16_M_get_allocatorEv
	.cfi_endproc
                                        # -- End function
	.section	.text._ZNSt7__cxx1112basic_stringIcSt11char_traitsIcESaIcEE12_M_constructILb1EEEvPKcm,"axG",@progbits,_ZNSt7__cxx1112basic_stringIcSt11char_traitsIcESaIcEE12_M_constructILb1EEEvPKcm,comdat
	.weak	_ZNSt7__cxx1112basic_stringIcSt11char_traitsIcESaIcEE12_M_constructILb1EEEvPKcm # -- Begin function _ZNSt7__cxx1112basic_stringIcSt11char_traitsIcESaIcEE12_M_constructILb1EEEvPKcm
	.p2align	4
	.type	_ZNSt7__cxx1112basic_stringIcSt11char_traitsIcESaIcEE12_M_constructILb1EEEvPKcm,@function
_ZNSt7__cxx1112basic_stringIcSt11char_traitsIcESaIcEE12_M_constructILb1EEEvPKcm: # @_ZNSt7__cxx1112basic_stringIcSt11char_traitsIcESaIcEE12_M_constructILb1EEEvPKcm
	.cfi_startproc
# %bb.0:
	pushq	%rbp
	.cfi_def_cfa_offset 16
	.cfi_offset %rbp, -16
	movq	%rsp, %rbp
	.cfi_def_cfa_register %rbp
	subq	$48, %rsp
	movq	%fs:40, %rax
	movq	%rax, -8(%rbp)
	movq	%rdi, -32(%rbp)
	movq	%rsi, -40(%rbp)
	movq	%rdx, -16(%rbp)
	movq	-32(%rbp), %rax
	movq	%rax, -48(%rbp)                 # 8-byte Spill
	cmpq	$15, -16(%rbp)
	jbe	.LBB67_2
# %bb.1:
	movq	-48(%rbp), %rdi                 # 8-byte Reload
	leaq	-16(%rbp), %rsi
	xorl	%eax, %eax
	movl	%eax, %edx
	callq	_ZNSt7__cxx1112basic_stringIcSt11char_traitsIcESaIcEE9_M_createERmm
	movq	-48(%rbp), %rdi                 # 8-byte Reload
	movq	%rax, %rsi
	callq	_ZNSt7__cxx1112basic_stringIcSt11char_traitsIcESaIcEE7_M_dataEPc
	movq	-48(%rbp), %rdi                 # 8-byte Reload
	movq	-16(%rbp), %rsi
	callq	_ZNSt7__cxx1112basic_stringIcSt11char_traitsIcESaIcEE11_M_capacityEm
	jmp	.LBB67_3
.LBB67_2:
	movq	-48(%rbp), %rax                 # 8-byte Reload
	movq	%rax, -24(%rbp)
.LBB67_3:
	cmpq	$0, -16(%rbp)
	jne	.LBB67_5
# %bb.4:
	movb	$1, %al
	testb	$1, %al
	jne	.LBB67_5
	jmp	.LBB67_6
.LBB67_5:
	movq	-48(%rbp), %rdi                 # 8-byte Reload
	callq	_ZNKSt7__cxx1112basic_stringIcSt11char_traitsIcESaIcEE7_M_dataEv
	movq	%rax, %rdi
	movq	-40(%rbp), %rsi
	movq	-16(%rbp), %rdx
	addq	$1, %rdx
	callq	_ZNSt7__cxx1112basic_stringIcSt11char_traitsIcESaIcEE7_S_copyEPcPKcm
.LBB67_6:
	movq	-48(%rbp), %rdi                 # 8-byte Reload
	movq	-16(%rbp), %rsi
	callq	_ZNSt7__cxx1112basic_stringIcSt11char_traitsIcESaIcEE9_M_lengthEm
	movq	%fs:40, %rax
	movq	-8(%rbp), %rcx
	cmpq	%rcx, %rax
	jne	.LBB67_8
# %bb.7:
	addq	$48, %rsp
	popq	%rbp
	.cfi_def_cfa %rsp, 8
	retq
.LBB67_8:
	.cfi_def_cfa %rbp, 16
	callq	__stack_chk_fail@PLT
.Lfunc_end67:
	.size	_ZNSt7__cxx1112basic_stringIcSt11char_traitsIcESaIcEE12_M_constructILb1EEEvPKcm, .Lfunc_end67-_ZNSt7__cxx1112basic_stringIcSt11char_traitsIcESaIcEE12_M_constructILb1EEEvPKcm
	.cfi_endproc
                                        # -- End function
	.section	.text._ZNKSt7__cxx1112basic_stringIcSt11char_traitsIcESaIcEE6lengthEv,"axG",@progbits,_ZNKSt7__cxx1112basic_stringIcSt11char_traitsIcESaIcEE6lengthEv,comdat
	.weak	_ZNKSt7__cxx1112basic_stringIcSt11char_traitsIcESaIcEE6lengthEv # -- Begin function _ZNKSt7__cxx1112basic_stringIcSt11char_traitsIcESaIcEE6lengthEv
	.p2align	4
	.type	_ZNKSt7__cxx1112basic_stringIcSt11char_traitsIcESaIcEE6lengthEv,@function
_ZNKSt7__cxx1112basic_stringIcSt11char_traitsIcESaIcEE6lengthEv: # @_ZNKSt7__cxx1112basic_stringIcSt11char_traitsIcESaIcEE6lengthEv
	.cfi_startproc
# %bb.0:
	pushq	%rbp
	.cfi_def_cfa_offset 16
	.cfi_offset %rbp, -16
	movq	%rsp, %rbp
	.cfi_def_cfa_register %rbp
	subq	$16, %rsp
	movq	%rdi, -8(%rbp)
	movq	-8(%rbp), %rdi
	callq	_ZNKSt7__cxx1112basic_stringIcSt11char_traitsIcESaIcEE4sizeEv
	addq	$16, %rsp
	popq	%rbp
	.cfi_def_cfa %rsp, 8
	retq
.Lfunc_end68:
	.size	_ZNKSt7__cxx1112basic_stringIcSt11char_traitsIcESaIcEE6lengthEv, .Lfunc_end68-_ZNKSt7__cxx1112basic_stringIcSt11char_traitsIcESaIcEE6lengthEv
	.cfi_endproc
                                        # -- End function
	.section	.text._ZNSt7__cxx1112basic_stringIcSt11char_traitsIcESaIcEE12_Alloc_hiderD2Ev,"axG",@progbits,_ZNSt7__cxx1112basic_stringIcSt11char_traitsIcESaIcEE12_Alloc_hiderD2Ev,comdat
	.weak	_ZNSt7__cxx1112basic_stringIcSt11char_traitsIcESaIcEE12_Alloc_hiderD2Ev # -- Begin function _ZNSt7__cxx1112basic_stringIcSt11char_traitsIcESaIcEE12_Alloc_hiderD2Ev
	.p2align	4
	.type	_ZNSt7__cxx1112basic_stringIcSt11char_traitsIcESaIcEE12_Alloc_hiderD2Ev,@function
_ZNSt7__cxx1112basic_stringIcSt11char_traitsIcESaIcEE12_Alloc_hiderD2Ev: # @_ZNSt7__cxx1112basic_stringIcSt11char_traitsIcESaIcEE12_Alloc_hiderD2Ev
	.cfi_startproc
# %bb.0:
	pushq	%rbp
	.cfi_def_cfa_offset 16
	.cfi_offset %rbp, -16
	movq	%rsp, %rbp
	.cfi_def_cfa_register %rbp
	subq	$16, %rsp
	movq	%rdi, -16(%rbp)
	movq	-16(%rbp), %rax
	movq	%rax, -8(%rbp)
	movq	-8(%rbp), %rdi
	callq	_ZNSt15__new_allocatorIcED2Ev
	addq	$16, %rsp
	popq	%rbp
	.cfi_def_cfa %rsp, 8
	retq
.Lfunc_end69:
	.size	_ZNSt7__cxx1112basic_stringIcSt11char_traitsIcESaIcEE12_Alloc_hiderD2Ev, .Lfunc_end69-_ZNSt7__cxx1112basic_stringIcSt11char_traitsIcESaIcEE12_Alloc_hiderD2Ev
	.cfi_endproc
                                        # -- End function
	.section	.text._ZNSt7__cxx1112basic_stringIcSt11char_traitsIcESaIcEE7_M_dataEPc,"axG",@progbits,_ZNSt7__cxx1112basic_stringIcSt11char_traitsIcESaIcEE7_M_dataEPc,comdat
	.weak	_ZNSt7__cxx1112basic_stringIcSt11char_traitsIcESaIcEE7_M_dataEPc # -- Begin function _ZNSt7__cxx1112basic_stringIcSt11char_traitsIcESaIcEE7_M_dataEPc
	.p2align	4
	.type	_ZNSt7__cxx1112basic_stringIcSt11char_traitsIcESaIcEE7_M_dataEPc,@function
_ZNSt7__cxx1112basic_stringIcSt11char_traitsIcESaIcEE7_M_dataEPc: # @_ZNSt7__cxx1112basic_stringIcSt11char_traitsIcESaIcEE7_M_dataEPc
	.cfi_startproc
# %bb.0:
	pushq	%rbp
	.cfi_def_cfa_offset 16
	.cfi_offset %rbp, -16
	movq	%rsp, %rbp
	.cfi_def_cfa_register %rbp
	movq	%rdi, -8(%rbp)
	movq	%rsi, -16(%rbp)
	movq	-8(%rbp), %rax
	movq	-16(%rbp), %rcx
	movq	%rcx, (%rax)
	popq	%rbp
	.cfi_def_cfa %rsp, 8
	retq
.Lfunc_end70:
	.size	_ZNSt7__cxx1112basic_stringIcSt11char_traitsIcESaIcEE7_M_dataEPc, .Lfunc_end70-_ZNSt7__cxx1112basic_stringIcSt11char_traitsIcESaIcEE7_M_dataEPc
	.cfi_endproc
                                        # -- End function
	.section	.text._ZNSt7__cxx1112basic_stringIcSt11char_traitsIcESaIcEE9_M_createERmm,"axG",@progbits,_ZNSt7__cxx1112basic_stringIcSt11char_traitsIcESaIcEE9_M_createERmm,comdat
	.weak	_ZNSt7__cxx1112basic_stringIcSt11char_traitsIcESaIcEE9_M_createERmm # -- Begin function _ZNSt7__cxx1112basic_stringIcSt11char_traitsIcESaIcEE9_M_createERmm
	.p2align	4
	.type	_ZNSt7__cxx1112basic_stringIcSt11char_traitsIcESaIcEE9_M_createERmm,@function
_ZNSt7__cxx1112basic_stringIcSt11char_traitsIcESaIcEE9_M_createERmm: # @_ZNSt7__cxx1112basic_stringIcSt11char_traitsIcESaIcEE9_M_createERmm
	.cfi_startproc
# %bb.0:
	pushq	%rbp
	.cfi_def_cfa_offset 16
	.cfi_offset %rbp, -16
	movq	%rsp, %rbp
	.cfi_def_cfa_register %rbp
	subq	$48, %rsp
	movq	%rdi, -8(%rbp)
	movq	%rsi, -16(%rbp)
	movq	%rdx, -24(%rbp)
	movq	-8(%rbp), %rdi
	movq	%rdi, -40(%rbp)                 # 8-byte Spill
	movq	-16(%rbp), %rax
	movq	(%rax), %rax
	movq	%rax, -32(%rbp)                 # 8-byte Spill
	callq	_ZNKSt7__cxx1112basic_stringIcSt11char_traitsIcESaIcEE8max_sizeEv
	movq	%rax, %rcx
	movq	-32(%rbp), %rax                 # 8-byte Reload
	cmpq	%rcx, %rax
	jbe	.LBB71_2
# %bb.1:
	leaq	.L.str.18(%rip), %rdi
	callq	_ZSt20__throw_length_errorPKc@PLT
.LBB71_2:
	movq	-16(%rbp), %rax
	movq	(%rax), %rax
	cmpq	-24(%rbp), %rax
	jbe	.LBB71_7
# %bb.3:
	movq	-16(%rbp), %rax
	movq	(%rax), %rax
	movq	-24(%rbp), %rcx
	shlq	%rcx
	cmpq	%rcx, %rax
	jae	.LBB71_7
# %bb.4:
	movq	-40(%rbp), %rdi                 # 8-byte Reload
	movq	-24(%rbp), %rcx
	shlq	%rcx
	movq	-16(%rbp), %rax
	movq	%rcx, (%rax)
	movq	-16(%rbp), %rax
	movq	(%rax), %rax
	movq	%rax, -48(%rbp)                 # 8-byte Spill
	callq	_ZNKSt7__cxx1112basic_stringIcSt11char_traitsIcESaIcEE8max_sizeEv
	movq	%rax, %rcx
	movq	-48(%rbp), %rax                 # 8-byte Reload
	cmpq	%rcx, %rax
	jbe	.LBB71_6
# %bb.5:
	movq	-40(%rbp), %rdi                 # 8-byte Reload
	callq	_ZNKSt7__cxx1112basic_stringIcSt11char_traitsIcESaIcEE8max_sizeEv
	movq	%rax, %rcx
	movq	-16(%rbp), %rax
	movq	%rcx, (%rax)
.LBB71_6:
	jmp	.LBB71_7
.LBB71_7:
	movq	-40(%rbp), %rdi                 # 8-byte Reload
	callq	_ZNSt7__cxx1112basic_stringIcSt11char_traitsIcESaIcEE16_M_get_allocatorEv
	movq	%rax, %rdi
	movq	-16(%rbp), %rax
	movq	(%rax), %rsi
	addq	$1, %rsi
	callq	_ZNSt7__cxx1112basic_stringIcSt11char_traitsIcESaIcEE11_S_allocateERS3_m
	addq	$48, %rsp
	popq	%rbp
	.cfi_def_cfa %rsp, 8
	retq
.Lfunc_end71:
	.size	_ZNSt7__cxx1112basic_stringIcSt11char_traitsIcESaIcEE9_M_createERmm, .Lfunc_end71-_ZNSt7__cxx1112basic_stringIcSt11char_traitsIcESaIcEE9_M_createERmm
	.cfi_endproc
                                        # -- End function
	.section	.text._ZNSt7__cxx1112basic_stringIcSt11char_traitsIcESaIcEE11_M_capacityEm,"axG",@progbits,_ZNSt7__cxx1112basic_stringIcSt11char_traitsIcESaIcEE11_M_capacityEm,comdat
	.weak	_ZNSt7__cxx1112basic_stringIcSt11char_traitsIcESaIcEE11_M_capacityEm # -- Begin function _ZNSt7__cxx1112basic_stringIcSt11char_traitsIcESaIcEE11_M_capacityEm
	.p2align	4
	.type	_ZNSt7__cxx1112basic_stringIcSt11char_traitsIcESaIcEE11_M_capacityEm,@function
_ZNSt7__cxx1112basic_stringIcSt11char_traitsIcESaIcEE11_M_capacityEm: # @_ZNSt7__cxx1112basic_stringIcSt11char_traitsIcESaIcEE11_M_capacityEm
	.cfi_startproc
# %bb.0:
	pushq	%rbp
	.cfi_def_cfa_offset 16
	.cfi_offset %rbp, -16
	movq	%rsp, %rbp
	.cfi_def_cfa_register %rbp
	movq	%rdi, -8(%rbp)
	movq	%rsi, -16(%rbp)
	movq	-8(%rbp), %rax
	movq	-16(%rbp), %rcx
	movq	%rcx, 16(%rax)
	popq	%rbp
	.cfi_def_cfa %rsp, 8
	retq
.Lfunc_end72:
	.size	_ZNSt7__cxx1112basic_stringIcSt11char_traitsIcESaIcEE11_M_capacityEm, .Lfunc_end72-_ZNSt7__cxx1112basic_stringIcSt11char_traitsIcESaIcEE11_M_capacityEm
	.cfi_endproc
                                        # -- End function
	.section	.text._ZNSt7__cxx1112basic_stringIcSt11char_traitsIcESaIcEE7_S_copyEPcPKcm,"axG",@progbits,_ZNSt7__cxx1112basic_stringIcSt11char_traitsIcESaIcEE7_S_copyEPcPKcm,comdat
	.weak	_ZNSt7__cxx1112basic_stringIcSt11char_traitsIcESaIcEE7_S_copyEPcPKcm # -- Begin function _ZNSt7__cxx1112basic_stringIcSt11char_traitsIcESaIcEE7_S_copyEPcPKcm
	.p2align	4
	.type	_ZNSt7__cxx1112basic_stringIcSt11char_traitsIcESaIcEE7_S_copyEPcPKcm,@function
_ZNSt7__cxx1112basic_stringIcSt11char_traitsIcESaIcEE7_S_copyEPcPKcm: # @_ZNSt7__cxx1112basic_stringIcSt11char_traitsIcESaIcEE7_S_copyEPcPKcm
	.cfi_startproc
# %bb.0:
	pushq	%rbp
	.cfi_def_cfa_offset 16
	.cfi_offset %rbp, -16
	movq	%rsp, %rbp
	.cfi_def_cfa_register %rbp
	subq	$32, %rsp
	movq	%rdi, -8(%rbp)
	movq	%rsi, -16(%rbp)
	movq	%rdx, -24(%rbp)
	cmpq	$1, -24(%rbp)
	jne	.LBB73_2
# %bb.1:
	movq	-8(%rbp), %rdi
	movq	-16(%rbp), %rsi
	callq	_ZNSt11char_traitsIcE6assignERcRKc
	jmp	.LBB73_3
.LBB73_2:
	movq	-8(%rbp), %rdi
	movq	-16(%rbp), %rsi
	movq	-24(%rbp), %rdx
	callq	_ZNSt11char_traitsIcE4copyEPcPKcm
.LBB73_3:
	addq	$32, %rsp
	popq	%rbp
	.cfi_def_cfa %rsp, 8
	retq
.Lfunc_end73:
	.size	_ZNSt7__cxx1112basic_stringIcSt11char_traitsIcESaIcEE7_S_copyEPcPKcm, .Lfunc_end73-_ZNSt7__cxx1112basic_stringIcSt11char_traitsIcESaIcEE7_S_copyEPcPKcm
	.cfi_endproc
                                        # -- End function
	.section	.text._ZNKSt7__cxx1112basic_stringIcSt11char_traitsIcESaIcEE8max_sizeEv,"axG",@progbits,_ZNKSt7__cxx1112basic_stringIcSt11char_traitsIcESaIcEE8max_sizeEv,comdat
	.weak	_ZNKSt7__cxx1112basic_stringIcSt11char_traitsIcESaIcEE8max_sizeEv # -- Begin function _ZNKSt7__cxx1112basic_stringIcSt11char_traitsIcESaIcEE8max_sizeEv
	.p2align	4
	.type	_ZNKSt7__cxx1112basic_stringIcSt11char_traitsIcESaIcEE8max_sizeEv,@function
_ZNKSt7__cxx1112basic_stringIcSt11char_traitsIcESaIcEE8max_sizeEv: # @_ZNKSt7__cxx1112basic_stringIcSt11char_traitsIcESaIcEE8max_sizeEv
.Lfunc_begin16:
	.cfi_startproc
	.cfi_personality 155, DW.ref.__gxx_personality_v0
	.cfi_lsda 27, .Lexception16
# %bb.0:
	pushq	%rbp
	.cfi_def_cfa_offset 16
	.cfi_offset %rbp, -16
	movq	%rsp, %rbp
	.cfi_def_cfa_register %rbp
	subq	$80, %rsp
	movq	%fs:40, %rax
	movq	%rax, -8(%rbp)
	movq	%rdi, -56(%rbp)
	movq	-56(%rbp), %rdi
	movabsq	$9223372036854775807, %rax      # imm = 0x7FFFFFFFFFFFFFFF
	movq	%rax, -72(%rbp)                 # 8-byte Spill
	movq	%rax, -16(%rbp)
	callq	_ZNKSt7__cxx1112basic_stringIcSt11char_traitsIcESaIcEE16_M_get_allocatorEv
	movq	%rax, %rcx
	movq	-72(%rbp), %rax                 # 8-byte Reload
	movq	%rcx, -48(%rbp)
	movq	-48(%rbp), %rcx
	movq	%rcx, -40(%rbp)
	movq	-40(%rbp), %rcx
	movq	%rcx, -32(%rbp)
	movq	%rax, -24(%rbp)
.Ltmp194:
	leaq	-16(%rbp), %rdi
	leaq	-24(%rbp), %rsi
	callq	_ZSt3minImERKT_S2_S2_
.Ltmp195:
	movq	%rax, -64(%rbp)                 # 8-byte Spill
	jmp	.LBB74_1
.LBB74_1:
	movq	-64(%rbp), %rax                 # 8-byte Reload
	movq	(%rax), %rax
	decq	%rax
	movq	%rax, -80(%rbp)                 # 8-byte Spill
	movq	%fs:40, %rax
	movq	-8(%rbp), %rcx
	cmpq	%rcx, %rax
	jne	.LBB74_4
# %bb.2:
	movq	-80(%rbp), %rax                 # 8-byte Reload
	addq	$80, %rsp
	popq	%rbp
	.cfi_def_cfa %rsp, 8
	retq
.LBB74_3:
	.cfi_def_cfa %rbp, 16
.Ltmp196:
	movq	%rax, %rdi
                                        # kill: def $eax killed $edx killed $rdx
	callq	__clang_call_terminate
.LBB74_4:
	callq	__stack_chk_fail@PLT
.Lfunc_end74:
	.size	_ZNKSt7__cxx1112basic_stringIcSt11char_traitsIcESaIcEE8max_sizeEv, .Lfunc_end74-_ZNKSt7__cxx1112basic_stringIcSt11char_traitsIcESaIcEE8max_sizeEv
	.cfi_endproc
	.section	.gcc_except_table._ZNKSt7__cxx1112basic_stringIcSt11char_traitsIcESaIcEE8max_sizeEv,"aG",@progbits,_ZNKSt7__cxx1112basic_stringIcSt11char_traitsIcESaIcEE8max_sizeEv,comdat
	.p2align	2, 0x0
GCC_except_table74:
.Lexception16:
	.byte	255                             # @LPStart Encoding = omit
	.byte	155                             # @TType Encoding = indirect pcrel sdata4
	.uleb128 .Lttbase6-.Lttbaseref6
.Lttbaseref6:
	.byte	1                               # Call site Encoding = uleb128
	.uleb128 .Lcst_end16-.Lcst_begin16
.Lcst_begin16:
	.uleb128 .Ltmp194-.Lfunc_begin16        # >> Call Site 1 <<
	.uleb128 .Ltmp195-.Ltmp194              #   Call between .Ltmp194 and .Ltmp195
	.uleb128 .Ltmp196-.Lfunc_begin16        #     jumps to .Ltmp196
	.byte	1                               #   On action: 1
	.uleb128 .Ltmp195-.Lfunc_begin16        # >> Call Site 2 <<
	.uleb128 .Lfunc_end74-.Ltmp195          #   Call between .Ltmp195 and .Lfunc_end74
	.byte	0                               #     has no landing pad
	.byte	0                               #   On action: cleanup
.Lcst_end16:
	.byte	1                               # >> Action Record 1 <<
                                        #   Catch TypeInfo 1
	.byte	0                               #   No further actions
	.p2align	2, 0x0
                                        # >> Catch TypeInfos <<
	.long	0                               # TypeInfo 1
.Lttbase6:
	.p2align	2, 0x0
                                        # -- End function
	.section	.text._ZNSt7__cxx1112basic_stringIcSt11char_traitsIcESaIcEE11_S_allocateERS3_m,"axG",@progbits,_ZNSt7__cxx1112basic_stringIcSt11char_traitsIcESaIcEE11_S_allocateERS3_m,comdat
	.weak	_ZNSt7__cxx1112basic_stringIcSt11char_traitsIcESaIcEE11_S_allocateERS3_m # -- Begin function _ZNSt7__cxx1112basic_stringIcSt11char_traitsIcESaIcEE11_S_allocateERS3_m
	.p2align	4
	.type	_ZNSt7__cxx1112basic_stringIcSt11char_traitsIcESaIcEE11_S_allocateERS3_m,@function
_ZNSt7__cxx1112basic_stringIcSt11char_traitsIcESaIcEE11_S_allocateERS3_m: # @_ZNSt7__cxx1112basic_stringIcSt11char_traitsIcESaIcEE11_S_allocateERS3_m
	.cfi_startproc
# %bb.0:
	pushq	%rbp
	.cfi_def_cfa_offset 16
	.cfi_offset %rbp, -16
	movq	%rsp, %rbp
	.cfi_def_cfa_register %rbp
	subq	$48, %rsp
	movq	%rdi, -24(%rbp)
	movq	%rsi, -32(%rbp)
	movq	-24(%rbp), %rcx
	movq	-32(%rbp), %rax
	movq	%rcx, -8(%rbp)
	movq	%rax, -16(%rbp)
	movq	-8(%rbp), %rdi
	movq	-16(%rbp), %rsi
	xorl	%eax, %eax
	movl	%eax, %edx
	callq	_ZNSt15__new_allocatorIcE8allocateEmPKv
	movq	%rax, -40(%rbp)
	movq	-40(%rbp), %rax
	addq	$48, %rsp
	popq	%rbp
	.cfi_def_cfa %rsp, 8
	retq
.Lfunc_end75:
	.size	_ZNSt7__cxx1112basic_stringIcSt11char_traitsIcESaIcEE11_S_allocateERS3_m, .Lfunc_end75-_ZNSt7__cxx1112basic_stringIcSt11char_traitsIcESaIcEE11_S_allocateERS3_m
	.cfi_endproc
                                        # -- End function
	.section	.text._ZNSt7__cxx1112basic_stringIcSt11char_traitsIcESaIcEE16_M_get_allocatorEv,"axG",@progbits,_ZNSt7__cxx1112basic_stringIcSt11char_traitsIcESaIcEE16_M_get_allocatorEv,comdat
	.weak	_ZNSt7__cxx1112basic_stringIcSt11char_traitsIcESaIcEE16_M_get_allocatorEv # -- Begin function _ZNSt7__cxx1112basic_stringIcSt11char_traitsIcESaIcEE16_M_get_allocatorEv
	.p2align	4
	.type	_ZNSt7__cxx1112basic_stringIcSt11char_traitsIcESaIcEE16_M_get_allocatorEv,@function
_ZNSt7__cxx1112basic_stringIcSt11char_traitsIcESaIcEE16_M_get_allocatorEv: # @_ZNSt7__cxx1112basic_stringIcSt11char_traitsIcESaIcEE16_M_get_allocatorEv
	.cfi_startproc
# %bb.0:
	pushq	%rbp
	.cfi_def_cfa_offset 16
	.cfi_offset %rbp, -16
	movq	%rsp, %rbp
	.cfi_def_cfa_register %rbp
	movq	%rdi, -8(%rbp)
	movq	-8(%rbp), %rax
	popq	%rbp
	.cfi_def_cfa %rsp, 8
	retq
.Lfunc_end76:
	.size	_ZNSt7__cxx1112basic_stringIcSt11char_traitsIcESaIcEE16_M_get_allocatorEv, .Lfunc_end76-_ZNSt7__cxx1112basic_stringIcSt11char_traitsIcESaIcEE16_M_get_allocatorEv
	.cfi_endproc
                                        # -- End function
	.section	.text._ZSt3minImERKT_S2_S2_,"axG",@progbits,_ZSt3minImERKT_S2_S2_,comdat
	.weak	_ZSt3minImERKT_S2_S2_           # -- Begin function _ZSt3minImERKT_S2_S2_
	.p2align	4
	.type	_ZSt3minImERKT_S2_S2_,@function
_ZSt3minImERKT_S2_S2_:                  # @_ZSt3minImERKT_S2_S2_
	.cfi_startproc
# %bb.0:
	pushq	%rbp
	.cfi_def_cfa_offset 16
	.cfi_offset %rbp, -16
	movq	%rsp, %rbp
	.cfi_def_cfa_register %rbp
	movq	%rdi, -16(%rbp)
	movq	%rsi, -24(%rbp)
	movq	-24(%rbp), %rax
	movq	(%rax), %rax
	movq	-16(%rbp), %rcx
	cmpq	(%rcx), %rax
	jae	.LBB77_2
# %bb.1:
	movq	-24(%rbp), %rax
	movq	%rax, -8(%rbp)
	jmp	.LBB77_3
.LBB77_2:
	movq	-16(%rbp), %rax
	movq	%rax, -8(%rbp)
.LBB77_3:
	movq	-8(%rbp), %rax
	popq	%rbp
	.cfi_def_cfa %rsp, 8
	retq
.Lfunc_end77:
	.size	_ZSt3minImERKT_S2_S2_, .Lfunc_end77-_ZSt3minImERKT_S2_S2_
	.cfi_endproc
                                        # -- End function
	.section	.text._ZNSt15__new_allocatorIcE8allocateEmPKv,"axG",@progbits,_ZNSt15__new_allocatorIcE8allocateEmPKv,comdat
	.weak	_ZNSt15__new_allocatorIcE8allocateEmPKv # -- Begin function _ZNSt15__new_allocatorIcE8allocateEmPKv
	.p2align	4
	.type	_ZNSt15__new_allocatorIcE8allocateEmPKv,@function
_ZNSt15__new_allocatorIcE8allocateEmPKv: # @_ZNSt15__new_allocatorIcE8allocateEmPKv
	.cfi_startproc
# %bb.0:
	pushq	%rbp
	.cfi_def_cfa_offset 16
	.cfi_offset %rbp, -16
	movq	%rsp, %rbp
	.cfi_def_cfa_register %rbp
	subq	$32, %rsp
	movq	%rdi, -16(%rbp)
	movq	%rsi, -24(%rbp)
	movq	%rdx, -32(%rbp)
	movq	-16(%rbp), %rcx
	movq	-24(%rbp), %rax
	movq	%rcx, -8(%rbp)
	movabsq	$9223372036854775807, %rcx      # imm = 0x7FFFFFFFFFFFFFFF
	cmpq	%rcx, %rax
	jbe	.LBB78_4
# %bb.1:
	cmpq	$-1, -24(%rbp)
	jbe	.LBB78_3
# %bb.2:
	callq	_ZSt28__throw_bad_array_new_lengthv@PLT
.LBB78_3:
	callq	_ZSt17__throw_bad_allocv@PLT
.LBB78_4:
	movq	-24(%rbp), %rdi
	shlq	$0, %rdi
	callq	_Znwm@PLT
	addq	$32, %rsp
	popq	%rbp
	.cfi_def_cfa %rsp, 8
	retq
.Lfunc_end78:
	.size	_ZNSt15__new_allocatorIcE8allocateEmPKv, .Lfunc_end78-_ZNSt15__new_allocatorIcE8allocateEmPKv
	.cfi_endproc
                                        # -- End function
	.section	.text._ZNSt11char_traitsIcE4copyEPcPKcm,"axG",@progbits,_ZNSt11char_traitsIcE4copyEPcPKcm,comdat
	.weak	_ZNSt11char_traitsIcE4copyEPcPKcm # -- Begin function _ZNSt11char_traitsIcE4copyEPcPKcm
	.p2align	4
	.type	_ZNSt11char_traitsIcE4copyEPcPKcm,@function
_ZNSt11char_traitsIcE4copyEPcPKcm:      # @_ZNSt11char_traitsIcE4copyEPcPKcm
	.cfi_startproc
# %bb.0:
	pushq	%rbp
	.cfi_def_cfa_offset 16
	.cfi_offset %rbp, -16
	movq	%rsp, %rbp
	.cfi_def_cfa_register %rbp
	subq	$48, %rsp
	movq	%rdi, -16(%rbp)
	movq	%rsi, -24(%rbp)
	movq	%rdx, -32(%rbp)
	cmpq	$0, -32(%rbp)
	jne	.LBB79_2
# %bb.1:
	movq	-16(%rbp), %rax
	movq	%rax, -8(%rbp)
	jmp	.LBB79_3
.LBB79_2:
	movq	-16(%rbp), %rdi
	movq	%rdi, -40(%rbp)                 # 8-byte Spill
	movq	-24(%rbp), %rsi
	movq	-32(%rbp), %rdx
	callq	memcpy@PLT
	movq	-40(%rbp), %rax                 # 8-byte Reload
	movq	%rax, -8(%rbp)
.LBB79_3:
	movq	-8(%rbp), %rax
	addq	$48, %rsp
	popq	%rbp
	.cfi_def_cfa %rsp, 8
	retq
.Lfunc_end79:
	.size	_ZNSt11char_traitsIcE4copyEPcPKcm, .Lfunc_end79-_ZNSt11char_traitsIcE4copyEPcPKcm
	.cfi_endproc
                                        # -- End function
	.section	.text._ZNKSt7__cxx1112basic_stringIcSt11char_traitsIcESaIcEE4sizeEv,"axG",@progbits,_ZNKSt7__cxx1112basic_stringIcSt11char_traitsIcESaIcEE4sizeEv,comdat
	.weak	_ZNKSt7__cxx1112basic_stringIcSt11char_traitsIcESaIcEE4sizeEv # -- Begin function _ZNKSt7__cxx1112basic_stringIcSt11char_traitsIcESaIcEE4sizeEv
	.p2align	4
	.type	_ZNKSt7__cxx1112basic_stringIcSt11char_traitsIcESaIcEE4sizeEv,@function
_ZNKSt7__cxx1112basic_stringIcSt11char_traitsIcESaIcEE4sizeEv: # @_ZNKSt7__cxx1112basic_stringIcSt11char_traitsIcESaIcEE4sizeEv
	.cfi_startproc
# %bb.0:
	pushq	%rbp
	.cfi_def_cfa_offset 16
	.cfi_offset %rbp, -16
	movq	%rsp, %rbp
	.cfi_def_cfa_register %rbp
	subq	$32, %rsp
	movq	%rdi, -8(%rbp)
	movq	-8(%rbp), %rdi
	movq	8(%rdi), %rax
	movq	%rax, -16(%rbp)
	movq	-16(%rbp), %rax
	movq	%rax, -24(%rbp)                 # 8-byte Spill
	callq	_ZNKSt7__cxx1112basic_stringIcSt11char_traitsIcESaIcEE8max_sizeEv
	movq	%rax, %rcx
	movq	-24(%rbp), %rax                 # 8-byte Reload
	cmpq	%rcx, %rax
	jbe	.LBB80_2
# %bb.1:
.LBB80_2:
	movq	-16(%rbp), %rax
	addq	$32, %rsp
	popq	%rbp
	.cfi_def_cfa %rsp, 8
	retq
.Lfunc_end80:
	.size	_ZNKSt7__cxx1112basic_stringIcSt11char_traitsIcESaIcEE4sizeEv, .Lfunc_end80-_ZNKSt7__cxx1112basic_stringIcSt11char_traitsIcESaIcEE4sizeEv
	.cfi_endproc
                                        # -- End function
	.section	.text._ZNSt15__new_allocatorIcED2Ev,"axG",@progbits,_ZNSt15__new_allocatorIcED2Ev,comdat
	.weak	_ZNSt15__new_allocatorIcED2Ev   # -- Begin function _ZNSt15__new_allocatorIcED2Ev
	.p2align	4
	.type	_ZNSt15__new_allocatorIcED2Ev,@function
_ZNSt15__new_allocatorIcED2Ev:          # @_ZNSt15__new_allocatorIcED2Ev
	.cfi_startproc
# %bb.0:
	pushq	%rbp
	.cfi_def_cfa_offset 16
	.cfi_offset %rbp, -16
	movq	%rsp, %rbp
	.cfi_def_cfa_register %rbp
	movq	%rdi, -8(%rbp)
	popq	%rbp
	.cfi_def_cfa %rsp, 8
	retq
.Lfunc_end81:
	.size	_ZNSt15__new_allocatorIcED2Ev, .Lfunc_end81-_ZNSt15__new_allocatorIcED2Ev
	.cfi_endproc
                                        # -- End function
	.section	.text._ZNKSt6vectorINSt7__cxx1112basic_stringIcSt11char_traitsIcESaIcEEESaIS5_EE12_M_check_lenEmPKc,"axG",@progbits,_ZNKSt6vectorINSt7__cxx1112basic_stringIcSt11char_traitsIcESaIcEEESaIS5_EE12_M_check_lenEmPKc,comdat
	.weak	_ZNKSt6vectorINSt7__cxx1112basic_stringIcSt11char_traitsIcESaIcEEESaIS5_EE12_M_check_lenEmPKc # -- Begin function _ZNKSt6vectorINSt7__cxx1112basic_stringIcSt11char_traitsIcESaIcEEESaIS5_EE12_M_check_lenEmPKc
	.p2align	4
	.type	_ZNKSt6vectorINSt7__cxx1112basic_stringIcSt11char_traitsIcESaIcEEESaIS5_EE12_M_check_lenEmPKc,@function
_ZNKSt6vectorINSt7__cxx1112basic_stringIcSt11char_traitsIcESaIcEEESaIS5_EE12_M_check_lenEmPKc: # @_ZNKSt6vectorINSt7__cxx1112basic_stringIcSt11char_traitsIcESaIcEEESaIS5_EE12_M_check_lenEmPKc
	.cfi_startproc
# %bb.0:
	pushq	%rbp
	.cfi_def_cfa_offset 16
	.cfi_offset %rbp, -16
	movq	%rsp, %rbp
	.cfi_def_cfa_register %rbp
	subq	$112, %rsp
	movq	%fs:40, %rax
	movq	%rax, -8(%rbp)
	movq	%rdi, -32(%rbp)
	movq	%rsi, -16(%rbp)
	movq	%rdx, -40(%rbp)
	movq	-32(%rbp), %rdi
	movq	%rdi, -64(%rbp)                 # 8-byte Spill
	callq	_ZNKSt6vectorINSt7__cxx1112basic_stringIcSt11char_traitsIcESaIcEEESaIS5_EE8max_sizeEv
	movq	-64(%rbp), %rdi                 # 8-byte Reload
	movq	%rax, -56(%rbp)                 # 8-byte Spill
	callq	_ZNKSt6vectorINSt7__cxx1112basic_stringIcSt11char_traitsIcESaIcEEESaIS5_EE4sizeEv
	movq	%rax, %rcx
	movq	-56(%rbp), %rax                 # 8-byte Reload
	subq	%rcx, %rax
	cmpq	-16(%rbp), %rax
	jae	.LBB82_3
# %bb.1:
	movq	-40(%rbp), %rax
	movq	%rax, -72(%rbp)                 # 8-byte Spill
	movq	%fs:40, %rax
	movq	-8(%rbp), %rcx
	cmpq	%rcx, %rax
	jne	.LBB82_9
# %bb.2:
	movq	-72(%rbp), %rdi                 # 8-byte Reload
	callq	_ZSt20__throw_length_errorPKc@PLT
.LBB82_3:
	movq	-64(%rbp), %rdi                 # 8-byte Reload
	callq	_ZNKSt6vectorINSt7__cxx1112basic_stringIcSt11char_traitsIcESaIcEEESaIS5_EE4sizeEv
	movq	-64(%rbp), %rdi                 # 8-byte Reload
	movq	%rax, -88(%rbp)                 # 8-byte Spill
	callq	_ZNKSt6vectorINSt7__cxx1112basic_stringIcSt11char_traitsIcESaIcEEESaIS5_EE4sizeEv
	movq	%rax, -24(%rbp)
	leaq	-24(%rbp), %rdi
	leaq	-16(%rbp), %rsi
	callq	_ZSt3maxImERKT_S2_S2_
	movq	-64(%rbp), %rdi                 # 8-byte Reload
	movq	%rax, %rcx
	movq	-88(%rbp), %rax                 # 8-byte Reload
	addq	(%rcx), %rax
	movq	%rax, -48(%rbp)
	movq	-48(%rbp), %rax
	movq	%rax, -80(%rbp)                 # 8-byte Spill
	callq	_ZNKSt6vectorINSt7__cxx1112basic_stringIcSt11char_traitsIcESaIcEEESaIS5_EE4sizeEv
	movq	%rax, %rcx
	movq	-80(%rbp), %rax                 # 8-byte Reload
	cmpq	%rcx, %rax
	jb	.LBB82_5
# %bb.4:
	movq	-64(%rbp), %rdi                 # 8-byte Reload
	movq	-48(%rbp), %rax
	movq	%rax, -96(%rbp)                 # 8-byte Spill
	callq	_ZNKSt6vectorINSt7__cxx1112basic_stringIcSt11char_traitsIcESaIcEEESaIS5_EE8max_sizeEv
	movq	%rax, %rcx
	movq	-96(%rbp), %rax                 # 8-byte Reload
	cmpq	%rcx, %rax
	jbe	.LBB82_6
.LBB82_5:
	movq	-64(%rbp), %rdi                 # 8-byte Reload
	callq	_ZNKSt6vectorINSt7__cxx1112basic_stringIcSt11char_traitsIcESaIcEEESaIS5_EE8max_sizeEv
	movq	%rax, -104(%rbp)                # 8-byte Spill
	jmp	.LBB82_7
.LBB82_6:
	movq	-48(%rbp), %rax
	movq	%rax, -104(%rbp)                # 8-byte Spill
.LBB82_7:
	movq	-104(%rbp), %rax                # 8-byte Reload
	movq	%rax, -112(%rbp)                # 8-byte Spill
	movq	%fs:40, %rax
	movq	-8(%rbp), %rcx
	cmpq	%rcx, %rax
	jne	.LBB82_9
# %bb.8:
	movq	-112(%rbp), %rax                # 8-byte Reload
	addq	$112, %rsp
	popq	%rbp
	.cfi_def_cfa %rsp, 8
	retq
.LBB82_9:
	.cfi_def_cfa %rbp, 16
	callq	__stack_chk_fail@PLT
.Lfunc_end82:
	.size	_ZNKSt6vectorINSt7__cxx1112basic_stringIcSt11char_traitsIcESaIcEEESaIS5_EE12_M_check_lenEmPKc, .Lfunc_end82-_ZNKSt6vectorINSt7__cxx1112basic_stringIcSt11char_traitsIcESaIcEEESaIS5_EE12_M_check_lenEmPKc
	.cfi_endproc
                                        # -- End function
	.section	.text._ZNSt12_Vector_baseINSt7__cxx1112basic_stringIcSt11char_traitsIcESaIcEEESaIS5_EE11_M_allocateEm,"axG",@progbits,_ZNSt12_Vector_baseINSt7__cxx1112basic_stringIcSt11char_traitsIcESaIcEEESaIS5_EE11_M_allocateEm,comdat
	.weak	_ZNSt12_Vector_baseINSt7__cxx1112basic_stringIcSt11char_traitsIcESaIcEEESaIS5_EE11_M_allocateEm # -- Begin function _ZNSt12_Vector_baseINSt7__cxx1112basic_stringIcSt11char_traitsIcESaIcEEESaIS5_EE11_M_allocateEm
	.p2align	4
	.type	_ZNSt12_Vector_baseINSt7__cxx1112basic_stringIcSt11char_traitsIcESaIcEEESaIS5_EE11_M_allocateEm,@function
_ZNSt12_Vector_baseINSt7__cxx1112basic_stringIcSt11char_traitsIcESaIcEEESaIS5_EE11_M_allocateEm: # @_ZNSt12_Vector_baseINSt7__cxx1112basic_stringIcSt11char_traitsIcESaIcEEESaIS5_EE11_M_allocateEm
	.cfi_startproc
# %bb.0:
	pushq	%rbp
	.cfi_def_cfa_offset 16
	.cfi_offset %rbp, -16
	movq	%rsp, %rbp
	.cfi_def_cfa_register %rbp
	subq	$48, %rsp
	movq	%rdi, -24(%rbp)
	movq	%rsi, -32(%rbp)
	movq	-24(%rbp), %rax
	movq	%rax, -40(%rbp)                 # 8-byte Spill
	cmpq	$0, -32(%rbp)
	je	.LBB83_2
# %bb.1:
	movq	-40(%rbp), %rcx                 # 8-byte Reload
	movq	-32(%rbp), %rax
	movq	%rcx, -8(%rbp)
	movq	%rax, -16(%rbp)
	movq	-8(%rbp), %rdi
	movq	-16(%rbp), %rsi
	xorl	%eax, %eax
	movl	%eax, %edx
	callq	_ZNSt15__new_allocatorINSt7__cxx1112basic_stringIcSt11char_traitsIcESaIcEEEE8allocateEmPKv
	movq	%rax, -48(%rbp)                 # 8-byte Spill
	jmp	.LBB83_3
.LBB83_2:
	xorl	%eax, %eax
                                        # kill: def $rax killed $eax
	movq	%rax, -48(%rbp)                 # 8-byte Spill
	jmp	.LBB83_3
.LBB83_3:
	movq	-48(%rbp), %rax                 # 8-byte Reload
	addq	$48, %rsp
	popq	%rbp
	.cfi_def_cfa %rsp, 8
	retq
.Lfunc_end83:
	.size	_ZNSt12_Vector_baseINSt7__cxx1112basic_stringIcSt11char_traitsIcESaIcEEESaIS5_EE11_M_allocateEm, .Lfunc_end83-_ZNSt12_Vector_baseINSt7__cxx1112basic_stringIcSt11char_traitsIcESaIcEEESaIS5_EE11_M_allocateEm
	.cfi_endproc
                                        # -- End function
	.section	.text._ZNSt6vectorINSt7__cxx1112basic_stringIcSt11char_traitsIcESaIcEEESaIS5_EE12_Guard_allocC2EPS5_mRSt12_Vector_baseIS5_S6_E,"axG",@progbits,_ZNSt6vectorINSt7__cxx1112basic_stringIcSt11char_traitsIcESaIcEEESaIS5_EE12_Guard_allocC2EPS5_mRSt12_Vector_baseIS5_S6_E,comdat
	.weak	_ZNSt6vectorINSt7__cxx1112basic_stringIcSt11char_traitsIcESaIcEEESaIS5_EE12_Guard_allocC2EPS5_mRSt12_Vector_baseIS5_S6_E # -- Begin function _ZNSt6vectorINSt7__cxx1112basic_stringIcSt11char_traitsIcESaIcEEESaIS5_EE12_Guard_allocC2EPS5_mRSt12_Vector_baseIS5_S6_E
	.p2align	4
	.type	_ZNSt6vectorINSt7__cxx1112basic_stringIcSt11char_traitsIcESaIcEEESaIS5_EE12_Guard_allocC2EPS5_mRSt12_Vector_baseIS5_S6_E,@function
_ZNSt6vectorINSt7__cxx1112basic_stringIcSt11char_traitsIcESaIcEEESaIS5_EE12_Guard_allocC2EPS5_mRSt12_Vector_baseIS5_S6_E: # @_ZNSt6vectorINSt7__cxx1112basic_stringIcSt11char_traitsIcESaIcEEESaIS5_EE12_Guard_allocC2EPS5_mRSt12_Vector_baseIS5_S6_E
	.cfi_startproc
# %bb.0:
	pushq	%rbp
	.cfi_def_cfa_offset 16
	.cfi_offset %rbp, -16
	movq	%rsp, %rbp
	.cfi_def_cfa_register %rbp
	movq	%rdi, -8(%rbp)
	movq	%rsi, -16(%rbp)
	movq	%rdx, -24(%rbp)
	movq	%rcx, -32(%rbp)
	movq	-8(%rbp), %rax
	movq	-16(%rbp), %rcx
	movq	%rcx, (%rax)
	movq	-24(%rbp), %rcx
	movq	%rcx, 8(%rax)
	movq	-32(%rbp), %rcx
	movq	%rcx, 16(%rax)
	popq	%rbp
	.cfi_def_cfa %rsp, 8
	retq
.Lfunc_end84:
	.size	_ZNSt6vectorINSt7__cxx1112basic_stringIcSt11char_traitsIcESaIcEEESaIS5_EE12_Guard_allocC2EPS5_mRSt12_Vector_baseIS5_S6_E, .Lfunc_end84-_ZNSt6vectorINSt7__cxx1112basic_stringIcSt11char_traitsIcESaIcEEESaIS5_EE12_Guard_allocC2EPS5_mRSt12_Vector_baseIS5_S6_E
	.cfi_endproc
                                        # -- End function
	.section	.text._ZNSt6vectorINSt7__cxx1112basic_stringIcSt11char_traitsIcESaIcEEESaIS5_EE11_S_relocateEPS5_S8_S8_RS6_,"axG",@progbits,_ZNSt6vectorINSt7__cxx1112basic_stringIcSt11char_traitsIcESaIcEEESaIS5_EE11_S_relocateEPS5_S8_S8_RS6_,comdat
	.weak	_ZNSt6vectorINSt7__cxx1112basic_stringIcSt11char_traitsIcESaIcEEESaIS5_EE11_S_relocateEPS5_S8_S8_RS6_ # -- Begin function _ZNSt6vectorINSt7__cxx1112basic_stringIcSt11char_traitsIcESaIcEEESaIS5_EE11_S_relocateEPS5_S8_S8_RS6_
	.p2align	4
	.type	_ZNSt6vectorINSt7__cxx1112basic_stringIcSt11char_traitsIcESaIcEEESaIS5_EE11_S_relocateEPS5_S8_S8_RS6_,@function
_ZNSt6vectorINSt7__cxx1112basic_stringIcSt11char_traitsIcESaIcEEESaIS5_EE11_S_relocateEPS5_S8_S8_RS6_: # @_ZNSt6vectorINSt7__cxx1112basic_stringIcSt11char_traitsIcESaIcEEESaIS5_EE11_S_relocateEPS5_S8_S8_RS6_
	.cfi_startproc
# %bb.0:
	pushq	%rbp
	.cfi_def_cfa_offset 16
	.cfi_offset %rbp, -16
	movq	%rsp, %rbp
	.cfi_def_cfa_register %rbp
	subq	$32, %rsp
	movq	%rdi, -8(%rbp)
	movq	%rsi, -16(%rbp)
	movq	%rdx, -24(%rbp)
	movq	%rcx, -32(%rbp)
	movq	-8(%rbp), %rdi
	movq	-16(%rbp), %rsi
	movq	-24(%rbp), %rdx
	movq	-32(%rbp), %rcx
	callq	_ZSt12__relocate_aIPNSt7__cxx1112basic_stringIcSt11char_traitsIcESaIcEEES6_SaIS5_EET0_T_S9_S8_RT1_
	addq	$32, %rsp
	popq	%rbp
	.cfi_def_cfa %rsp, 8
	retq
.Lfunc_end85:
	.size	_ZNSt6vectorINSt7__cxx1112basic_stringIcSt11char_traitsIcESaIcEEESaIS5_EE11_S_relocateEPS5_S8_S8_RS6_, .Lfunc_end85-_ZNSt6vectorINSt7__cxx1112basic_stringIcSt11char_traitsIcESaIcEEESaIS5_EE11_S_relocateEPS5_S8_S8_RS6_
	.cfi_endproc
                                        # -- End function
	.section	.text._ZNSt12_Vector_baseINSt7__cxx1112basic_stringIcSt11char_traitsIcESaIcEEESaIS5_EE19_M_get_Tp_allocatorEv,"axG",@progbits,_ZNSt12_Vector_baseINSt7__cxx1112basic_stringIcSt11char_traitsIcESaIcEEESaIS5_EE19_M_get_Tp_allocatorEv,comdat
	.weak	_ZNSt12_Vector_baseINSt7__cxx1112basic_stringIcSt11char_traitsIcESaIcEEESaIS5_EE19_M_get_Tp_allocatorEv # -- Begin function _ZNSt12_Vector_baseINSt7__cxx1112basic_stringIcSt11char_traitsIcESaIcEEESaIS5_EE19_M_get_Tp_allocatorEv
	.p2align	4
	.type	_ZNSt12_Vector_baseINSt7__cxx1112basic_stringIcSt11char_traitsIcESaIcEEESaIS5_EE19_M_get_Tp_allocatorEv,@function
_ZNSt12_Vector_baseINSt7__cxx1112basic_stringIcSt11char_traitsIcESaIcEEESaIS5_EE19_M_get_Tp_allocatorEv: # @_ZNSt12_Vector_baseINSt7__cxx1112basic_stringIcSt11char_traitsIcESaIcEEESaIS5_EE19_M_get_Tp_allocatorEv
	.cfi_startproc
# %bb.0:
	pushq	%rbp
	.cfi_def_cfa_offset 16
	.cfi_offset %rbp, -16
	movq	%rsp, %rbp
	.cfi_def_cfa_register %rbp
	movq	%rdi, -8(%rbp)
	movq	-8(%rbp), %rax
	popq	%rbp
	.cfi_def_cfa %rsp, 8
	retq
.Lfunc_end86:
	.size	_ZNSt12_Vector_baseINSt7__cxx1112basic_stringIcSt11char_traitsIcESaIcEEESaIS5_EE19_M_get_Tp_allocatorEv, .Lfunc_end86-_ZNSt12_Vector_baseINSt7__cxx1112basic_stringIcSt11char_traitsIcESaIcEEESaIS5_EE19_M_get_Tp_allocatorEv
	.cfi_endproc
                                        # -- End function
	.section	.text._ZNSt6vectorINSt7__cxx1112basic_stringIcSt11char_traitsIcESaIcEEESaIS5_EE12_Guard_allocD2Ev,"axG",@progbits,_ZNSt6vectorINSt7__cxx1112basic_stringIcSt11char_traitsIcESaIcEEESaIS5_EE12_Guard_allocD2Ev,comdat
	.weak	_ZNSt6vectorINSt7__cxx1112basic_stringIcSt11char_traitsIcESaIcEEESaIS5_EE12_Guard_allocD2Ev # -- Begin function _ZNSt6vectorINSt7__cxx1112basic_stringIcSt11char_traitsIcESaIcEEESaIS5_EE12_Guard_allocD2Ev
	.p2align	4
	.type	_ZNSt6vectorINSt7__cxx1112basic_stringIcSt11char_traitsIcESaIcEEESaIS5_EE12_Guard_allocD2Ev,@function
_ZNSt6vectorINSt7__cxx1112basic_stringIcSt11char_traitsIcESaIcEEESaIS5_EE12_Guard_allocD2Ev: # @_ZNSt6vectorINSt7__cxx1112basic_stringIcSt11char_traitsIcESaIcEEESaIS5_EE12_Guard_allocD2Ev
.Lfunc_begin17:
	.cfi_startproc
	.cfi_personality 155, DW.ref.__gxx_personality_v0
	.cfi_lsda 27, .Lexception17
# %bb.0:
	pushq	%rbp
	.cfi_def_cfa_offset 16
	.cfi_offset %rbp, -16
	movq	%rsp, %rbp
	.cfi_def_cfa_register %rbp
	subq	$16, %rsp
	movq	%rdi, -8(%rbp)
	movq	-8(%rbp), %rax
	movq	%rax, -16(%rbp)                 # 8-byte Spill
	cmpq	$0, (%rax)
	je	.LBB87_3
# %bb.1:
	movq	-16(%rbp), %rax                 # 8-byte Reload
	movq	16(%rax), %rdi
	movq	(%rax), %rsi
	movq	8(%rax), %rdx
.Ltmp197:
	callq	_ZNSt12_Vector_baseINSt7__cxx1112basic_stringIcSt11char_traitsIcESaIcEEESaIS5_EE13_M_deallocateEPS5_m
.Ltmp198:
	jmp	.LBB87_2
.LBB87_2:
	jmp	.LBB87_3
.LBB87_3:
	addq	$16, %rsp
	popq	%rbp
	.cfi_def_cfa %rsp, 8
	retq
.LBB87_4:
	.cfi_def_cfa %rbp, 16
.Ltmp199:
	movq	%rax, %rdi
                                        # kill: def $eax killed $edx killed $rdx
	callq	__clang_call_terminate
.Lfunc_end87:
	.size	_ZNSt6vectorINSt7__cxx1112basic_stringIcSt11char_traitsIcESaIcEEESaIS5_EE12_Guard_allocD2Ev, .Lfunc_end87-_ZNSt6vectorINSt7__cxx1112basic_stringIcSt11char_traitsIcESaIcEEESaIS5_EE12_Guard_allocD2Ev
	.cfi_endproc
	.section	.gcc_except_table._ZNSt6vectorINSt7__cxx1112basic_stringIcSt11char_traitsIcESaIcEEESaIS5_EE12_Guard_allocD2Ev,"aG",@progbits,_ZNSt6vectorINSt7__cxx1112basic_stringIcSt11char_traitsIcESaIcEEESaIS5_EE12_Guard_allocD2Ev,comdat
	.p2align	2, 0x0
GCC_except_table87:
.Lexception17:
	.byte	255                             # @LPStart Encoding = omit
	.byte	155                             # @TType Encoding = indirect pcrel sdata4
	.uleb128 .Lttbase7-.Lttbaseref7
.Lttbaseref7:
	.byte	1                               # Call site Encoding = uleb128
	.uleb128 .Lcst_end17-.Lcst_begin17
.Lcst_begin17:
	.uleb128 .Ltmp197-.Lfunc_begin17        # >> Call Site 1 <<
	.uleb128 .Ltmp198-.Ltmp197              #   Call between .Ltmp197 and .Ltmp198
	.uleb128 .Ltmp199-.Lfunc_begin17        #     jumps to .Ltmp199
	.byte	1                               #   On action: 1
.Lcst_end17:
	.byte	1                               # >> Action Record 1 <<
                                        #   Catch TypeInfo 1
	.byte	0                               #   No further actions
	.p2align	2, 0x0
                                        # >> Catch TypeInfos <<
	.long	0                               # TypeInfo 1
.Lttbase7:
	.p2align	2, 0x0
                                        # -- End function
	.section	.text._ZNKSt6vectorINSt7__cxx1112basic_stringIcSt11char_traitsIcESaIcEEESaIS5_EE8max_sizeEv,"axG",@progbits,_ZNKSt6vectorINSt7__cxx1112basic_stringIcSt11char_traitsIcESaIcEEESaIS5_EE8max_sizeEv,comdat
	.weak	_ZNKSt6vectorINSt7__cxx1112basic_stringIcSt11char_traitsIcESaIcEEESaIS5_EE8max_sizeEv # -- Begin function _ZNKSt6vectorINSt7__cxx1112basic_stringIcSt11char_traitsIcESaIcEEESaIS5_EE8max_sizeEv
	.p2align	4
	.type	_ZNKSt6vectorINSt7__cxx1112basic_stringIcSt11char_traitsIcESaIcEEESaIS5_EE8max_sizeEv,@function
_ZNKSt6vectorINSt7__cxx1112basic_stringIcSt11char_traitsIcESaIcEEESaIS5_EE8max_sizeEv: # @_ZNKSt6vectorINSt7__cxx1112basic_stringIcSt11char_traitsIcESaIcEEESaIS5_EE8max_sizeEv
	.cfi_startproc
# %bb.0:
	pushq	%rbp
	.cfi_def_cfa_offset 16
	.cfi_offset %rbp, -16
	movq	%rsp, %rbp
	.cfi_def_cfa_register %rbp
	subq	$16, %rsp
	movq	%rdi, -8(%rbp)
	movq	-8(%rbp), %rdi
	callq	_ZNKSt12_Vector_baseINSt7__cxx1112basic_stringIcSt11char_traitsIcESaIcEEESaIS5_EE19_M_get_Tp_allocatorEv
	movq	%rax, %rdi
	callq	_ZNSt6vectorINSt7__cxx1112basic_stringIcSt11char_traitsIcESaIcEEESaIS5_EE11_S_max_sizeERKS6_
	addq	$16, %rsp
	popq	%rbp
	.cfi_def_cfa %rsp, 8
	retq
.Lfunc_end88:
	.size	_ZNKSt6vectorINSt7__cxx1112basic_stringIcSt11char_traitsIcESaIcEEESaIS5_EE8max_sizeEv, .Lfunc_end88-_ZNKSt6vectorINSt7__cxx1112basic_stringIcSt11char_traitsIcESaIcEEESaIS5_EE8max_sizeEv
	.cfi_endproc
                                        # -- End function
	.section	.text._ZNKSt6vectorINSt7__cxx1112basic_stringIcSt11char_traitsIcESaIcEEESaIS5_EE4sizeEv,"axG",@progbits,_ZNKSt6vectorINSt7__cxx1112basic_stringIcSt11char_traitsIcESaIcEEESaIS5_EE4sizeEv,comdat
	.weak	_ZNKSt6vectorINSt7__cxx1112basic_stringIcSt11char_traitsIcESaIcEEESaIS5_EE4sizeEv # -- Begin function _ZNKSt6vectorINSt7__cxx1112basic_stringIcSt11char_traitsIcESaIcEEESaIS5_EE4sizeEv
	.p2align	4
	.type	_ZNKSt6vectorINSt7__cxx1112basic_stringIcSt11char_traitsIcESaIcEEESaIS5_EE4sizeEv,@function
_ZNKSt6vectorINSt7__cxx1112basic_stringIcSt11char_traitsIcESaIcEEESaIS5_EE4sizeEv: # @_ZNKSt6vectorINSt7__cxx1112basic_stringIcSt11char_traitsIcESaIcEEESaIS5_EE4sizeEv
	.cfi_startproc
# %bb.0:
	pushq	%rbp
	.cfi_def_cfa_offset 16
	.cfi_offset %rbp, -16
	movq	%rsp, %rbp
	.cfi_def_cfa_register %rbp
	movq	%rdi, -8(%rbp)
	movq	-8(%rbp), %rcx
	movq	8(%rcx), %rax
	movq	(%rcx), %rcx
	subq	%rcx, %rax
	sarq	$5, %rax
	movq	%rax, -16(%rbp)
	cmpq	$0, -16(%rbp)
	jge	.LBB89_2
# %bb.1:
.LBB89_2:
	movq	-16(%rbp), %rax
	popq	%rbp
	.cfi_def_cfa %rsp, 8
	retq
.Lfunc_end89:
	.size	_ZNKSt6vectorINSt7__cxx1112basic_stringIcSt11char_traitsIcESaIcEEESaIS5_EE4sizeEv, .Lfunc_end89-_ZNKSt6vectorINSt7__cxx1112basic_stringIcSt11char_traitsIcESaIcEEESaIS5_EE4sizeEv
	.cfi_endproc
                                        # -- End function
	.section	.text._ZSt3maxImERKT_S2_S2_,"axG",@progbits,_ZSt3maxImERKT_S2_S2_,comdat
	.weak	_ZSt3maxImERKT_S2_S2_           # -- Begin function _ZSt3maxImERKT_S2_S2_
	.p2align	4
	.type	_ZSt3maxImERKT_S2_S2_,@function
_ZSt3maxImERKT_S2_S2_:                  # @_ZSt3maxImERKT_S2_S2_
	.cfi_startproc
# %bb.0:
	pushq	%rbp
	.cfi_def_cfa_offset 16
	.cfi_offset %rbp, -16
	movq	%rsp, %rbp
	.cfi_def_cfa_register %rbp
	movq	%rdi, -16(%rbp)
	movq	%rsi, -24(%rbp)
	movq	-16(%rbp), %rax
	movq	(%rax), %rax
	movq	-24(%rbp), %rcx
	cmpq	(%rcx), %rax
	jae	.LBB90_2
# %bb.1:
	movq	-24(%rbp), %rax
	movq	%rax, -8(%rbp)
	jmp	.LBB90_3
.LBB90_2:
	movq	-16(%rbp), %rax
	movq	%rax, -8(%rbp)
.LBB90_3:
	movq	-8(%rbp), %rax
	popq	%rbp
	.cfi_def_cfa %rsp, 8
	retq
.Lfunc_end90:
	.size	_ZSt3maxImERKT_S2_S2_, .Lfunc_end90-_ZSt3maxImERKT_S2_S2_
	.cfi_endproc
                                        # -- End function
	.section	.text._ZNSt6vectorINSt7__cxx1112basic_stringIcSt11char_traitsIcESaIcEEESaIS5_EE11_S_max_sizeERKS6_,"axG",@progbits,_ZNSt6vectorINSt7__cxx1112basic_stringIcSt11char_traitsIcESaIcEEESaIS5_EE11_S_max_sizeERKS6_,comdat
	.weak	_ZNSt6vectorINSt7__cxx1112basic_stringIcSt11char_traitsIcESaIcEEESaIS5_EE11_S_max_sizeERKS6_ # -- Begin function _ZNSt6vectorINSt7__cxx1112basic_stringIcSt11char_traitsIcESaIcEEESaIS5_EE11_S_max_sizeERKS6_
	.p2align	4
	.type	_ZNSt6vectorINSt7__cxx1112basic_stringIcSt11char_traitsIcESaIcEEESaIS5_EE11_S_max_sizeERKS6_,@function
_ZNSt6vectorINSt7__cxx1112basic_stringIcSt11char_traitsIcESaIcEEESaIS5_EE11_S_max_sizeERKS6_: # @_ZNSt6vectorINSt7__cxx1112basic_stringIcSt11char_traitsIcESaIcEEESaIS5_EE11_S_max_sizeERKS6_
	.cfi_startproc
# %bb.0:
	pushq	%rbp
	.cfi_def_cfa_offset 16
	.cfi_offset %rbp, -16
	movq	%rsp, %rbp
	.cfi_def_cfa_register %rbp
	subq	$64, %rsp
	movq	%fs:40, %rax
	movq	%rax, -8(%rbp)
	movq	%rdi, -56(%rbp)
	movabsq	$288230376151711743, %rax       # imm = 0x3FFFFFFFFFFFFFF
	movq	%rax, -16(%rbp)
	movq	-56(%rbp), %rcx
	movq	%rcx, -48(%rbp)
	movq	-48(%rbp), %rcx
	movq	%rcx, -40(%rbp)
	movq	-40(%rbp), %rcx
	movq	%rcx, -32(%rbp)
	movq	%rax, -24(%rbp)
	leaq	-16(%rbp), %rdi
	leaq	-24(%rbp), %rsi
	callq	_ZSt3minImERKT_S2_S2_
	movq	(%rax), %rax
	movq	%rax, -64(%rbp)                 # 8-byte Spill
	movq	%fs:40, %rax
	movq	-8(%rbp), %rcx
	cmpq	%rcx, %rax
	jne	.LBB91_2
# %bb.1:
	movq	-64(%rbp), %rax                 # 8-byte Reload
	addq	$64, %rsp
	popq	%rbp
	.cfi_def_cfa %rsp, 8
	retq
.LBB91_2:
	.cfi_def_cfa %rbp, 16
	callq	__stack_chk_fail@PLT
.Lfunc_end91:
	.size	_ZNSt6vectorINSt7__cxx1112basic_stringIcSt11char_traitsIcESaIcEEESaIS5_EE11_S_max_sizeERKS6_, .Lfunc_end91-_ZNSt6vectorINSt7__cxx1112basic_stringIcSt11char_traitsIcESaIcEEESaIS5_EE11_S_max_sizeERKS6_
	.cfi_endproc
                                        # -- End function
	.section	.text._ZNKSt12_Vector_baseINSt7__cxx1112basic_stringIcSt11char_traitsIcESaIcEEESaIS5_EE19_M_get_Tp_allocatorEv,"axG",@progbits,_ZNKSt12_Vector_baseINSt7__cxx1112basic_stringIcSt11char_traitsIcESaIcEEESaIS5_EE19_M_get_Tp_allocatorEv,comdat
	.weak	_ZNKSt12_Vector_baseINSt7__cxx1112basic_stringIcSt11char_traitsIcESaIcEEESaIS5_EE19_M_get_Tp_allocatorEv # -- Begin function _ZNKSt12_Vector_baseINSt7__cxx1112basic_stringIcSt11char_traitsIcESaIcEEESaIS5_EE19_M_get_Tp_allocatorEv
	.p2align	4
	.type	_ZNKSt12_Vector_baseINSt7__cxx1112basic_stringIcSt11char_traitsIcESaIcEEESaIS5_EE19_M_get_Tp_allocatorEv,@function
_ZNKSt12_Vector_baseINSt7__cxx1112basic_stringIcSt11char_traitsIcESaIcEEESaIS5_EE19_M_get_Tp_allocatorEv: # @_ZNKSt12_Vector_baseINSt7__cxx1112basic_stringIcSt11char_traitsIcESaIcEEESaIS5_EE19_M_get_Tp_allocatorEv
	.cfi_startproc
# %bb.0:
	pushq	%rbp
	.cfi_def_cfa_offset 16
	.cfi_offset %rbp, -16
	movq	%rsp, %rbp
	.cfi_def_cfa_register %rbp
	movq	%rdi, -8(%rbp)
	movq	-8(%rbp), %rax
	popq	%rbp
	.cfi_def_cfa %rsp, 8
	retq
.Lfunc_end92:
	.size	_ZNKSt12_Vector_baseINSt7__cxx1112basic_stringIcSt11char_traitsIcESaIcEEESaIS5_EE19_M_get_Tp_allocatorEv, .Lfunc_end92-_ZNKSt12_Vector_baseINSt7__cxx1112basic_stringIcSt11char_traitsIcESaIcEEESaIS5_EE19_M_get_Tp_allocatorEv
	.cfi_endproc
                                        # -- End function
	.section	.text._ZNSt15__new_allocatorINSt7__cxx1112basic_stringIcSt11char_traitsIcESaIcEEEE8allocateEmPKv,"axG",@progbits,_ZNSt15__new_allocatorINSt7__cxx1112basic_stringIcSt11char_traitsIcESaIcEEEE8allocateEmPKv,comdat
	.weak	_ZNSt15__new_allocatorINSt7__cxx1112basic_stringIcSt11char_traitsIcESaIcEEEE8allocateEmPKv # -- Begin function _ZNSt15__new_allocatorINSt7__cxx1112basic_stringIcSt11char_traitsIcESaIcEEEE8allocateEmPKv
	.p2align	4
	.type	_ZNSt15__new_allocatorINSt7__cxx1112basic_stringIcSt11char_traitsIcESaIcEEEE8allocateEmPKv,@function
_ZNSt15__new_allocatorINSt7__cxx1112basic_stringIcSt11char_traitsIcESaIcEEEE8allocateEmPKv: # @_ZNSt15__new_allocatorINSt7__cxx1112basic_stringIcSt11char_traitsIcESaIcEEEE8allocateEmPKv
	.cfi_startproc
# %bb.0:
	pushq	%rbp
	.cfi_def_cfa_offset 16
	.cfi_offset %rbp, -16
	movq	%rsp, %rbp
	.cfi_def_cfa_register %rbp
	subq	$32, %rsp
	movq	%rdi, -16(%rbp)
	movq	%rsi, -24(%rbp)
	movq	%rdx, -32(%rbp)
	movq	-16(%rbp), %rcx
	movq	-24(%rbp), %rax
	movq	%rcx, -8(%rbp)
	movabsq	$288230376151711743, %rcx       # imm = 0x3FFFFFFFFFFFFFF
	cmpq	%rcx, %rax
	jbe	.LBB93_4
# %bb.1:
	movabsq	$576460752303423487, %rax       # imm = 0x7FFFFFFFFFFFFFF
	cmpq	%rax, -24(%rbp)
	jbe	.LBB93_3
# %bb.2:
	callq	_ZSt28__throw_bad_array_new_lengthv@PLT
.LBB93_3:
	callq	_ZSt17__throw_bad_allocv@PLT
.LBB93_4:
	movq	-24(%rbp), %rdi
	shlq	$5, %rdi
	callq	_Znwm@PLT
	addq	$32, %rsp
	popq	%rbp
	.cfi_def_cfa %rsp, 8
	retq
.Lfunc_end93:
	.size	_ZNSt15__new_allocatorINSt7__cxx1112basic_stringIcSt11char_traitsIcESaIcEEEE8allocateEmPKv, .Lfunc_end93-_ZNSt15__new_allocatorINSt7__cxx1112basic_stringIcSt11char_traitsIcESaIcEEEE8allocateEmPKv
	.cfi_endproc
                                        # -- End function
	.section	.text._ZSt12__relocate_aIPNSt7__cxx1112basic_stringIcSt11char_traitsIcESaIcEEES6_SaIS5_EET0_T_S9_S8_RT1_,"axG",@progbits,_ZSt12__relocate_aIPNSt7__cxx1112basic_stringIcSt11char_traitsIcESaIcEEES6_SaIS5_EET0_T_S9_S8_RT1_,comdat
	.weak	_ZSt12__relocate_aIPNSt7__cxx1112basic_stringIcSt11char_traitsIcESaIcEEES6_SaIS5_EET0_T_S9_S8_RT1_ # -- Begin function _ZSt12__relocate_aIPNSt7__cxx1112basic_stringIcSt11char_traitsIcESaIcEEES6_SaIS5_EET0_T_S9_S8_RT1_
	.p2align	4
	.type	_ZSt12__relocate_aIPNSt7__cxx1112basic_stringIcSt11char_traitsIcESaIcEEES6_SaIS5_EET0_T_S9_S8_RT1_,@function
_ZSt12__relocate_aIPNSt7__cxx1112basic_stringIcSt11char_traitsIcESaIcEEES6_SaIS5_EET0_T_S9_S8_RT1_: # @_ZSt12__relocate_aIPNSt7__cxx1112basic_stringIcSt11char_traitsIcESaIcEEES6_SaIS5_EET0_T_S9_S8_RT1_
	.cfi_startproc
# %bb.0:
	pushq	%rbp
	.cfi_def_cfa_offset 16
	.cfi_offset %rbp, -16
	movq	%rsp, %rbp
	.cfi_def_cfa_register %rbp
	subq	$64, %rsp
	movq	%rdi, -32(%rbp)
	movq	%rsi, -40(%rbp)
	movq	%rdx, -48(%rbp)
	movq	%rcx, -56(%rbp)
	movq	-32(%rbp), %rax
	movq	%rax, -8(%rbp)
	movq	-8(%rbp), %rdi
	movq	-40(%rbp), %rax
	movq	%rax, -16(%rbp)
	movq	-16(%rbp), %rsi
	movq	-48(%rbp), %rax
	movq	%rax, -24(%rbp)
	movq	-24(%rbp), %rdx
	movq	-56(%rbp), %rcx
	callq	_ZSt14__relocate_a_1IPNSt7__cxx1112basic_stringIcSt11char_traitsIcESaIcEEES6_SaIS5_EET0_T_S9_S8_RT1_
	addq	$64, %rsp
	popq	%rbp
	.cfi_def_cfa %rsp, 8
	retq
.Lfunc_end94:
	.size	_ZSt12__relocate_aIPNSt7__cxx1112basic_stringIcSt11char_traitsIcESaIcEEES6_SaIS5_EET0_T_S9_S8_RT1_, .Lfunc_end94-_ZSt12__relocate_aIPNSt7__cxx1112basic_stringIcSt11char_traitsIcESaIcEEES6_SaIS5_EET0_T_S9_S8_RT1_
	.cfi_endproc
                                        # -- End function
	.section	.text._ZSt14__relocate_a_1IPNSt7__cxx1112basic_stringIcSt11char_traitsIcESaIcEEES6_SaIS5_EET0_T_S9_S8_RT1_,"axG",@progbits,_ZSt14__relocate_a_1IPNSt7__cxx1112basic_stringIcSt11char_traitsIcESaIcEEES6_SaIS5_EET0_T_S9_S8_RT1_,comdat
	.weak	_ZSt14__relocate_a_1IPNSt7__cxx1112basic_stringIcSt11char_traitsIcESaIcEEES6_SaIS5_EET0_T_S9_S8_RT1_ # -- Begin function _ZSt14__relocate_a_1IPNSt7__cxx1112basic_stringIcSt11char_traitsIcESaIcEEES6_SaIS5_EET0_T_S9_S8_RT1_
	.p2align	4
	.type	_ZSt14__relocate_a_1IPNSt7__cxx1112basic_stringIcSt11char_traitsIcESaIcEEES6_SaIS5_EET0_T_S9_S8_RT1_,@function
_ZSt14__relocate_a_1IPNSt7__cxx1112basic_stringIcSt11char_traitsIcESaIcEEES6_SaIS5_EET0_T_S9_S8_RT1_: # @_ZSt14__relocate_a_1IPNSt7__cxx1112basic_stringIcSt11char_traitsIcESaIcEEES6_SaIS5_EET0_T_S9_S8_RT1_
	.cfi_startproc
# %bb.0:
	pushq	%rbp
	.cfi_def_cfa_offset 16
	.cfi_offset %rbp, -16
	movq	%rsp, %rbp
	.cfi_def_cfa_register %rbp
	subq	$48, %rsp
	movq	%rdi, -8(%rbp)
	movq	%rsi, -16(%rbp)
	movq	%rdx, -24(%rbp)
	movq	%rcx, -32(%rbp)
	movq	-24(%rbp), %rax
	movq	%rax, -40(%rbp)
.LBB95_1:                               # =>This Inner Loop Header: Depth=1
	movq	-8(%rbp), %rax
	cmpq	-16(%rbp), %rax
	je	.LBB95_4
# %bb.2:                                #   in Loop: Header=BB95_1 Depth=1
	movq	-40(%rbp), %rdi
	movq	-8(%rbp), %rsi
	movq	-32(%rbp), %rdx
	callq	_ZSt19__relocate_object_aINSt7__cxx1112basic_stringIcSt11char_traitsIcESaIcEEES5_SaIS5_EEvPT_PT0_RT1_
# %bb.3:                                #   in Loop: Header=BB95_1 Depth=1
	movq	-8(%rbp), %rax
	addq	$32, %rax
	movq	%rax, -8(%rbp)
	movq	-40(%rbp), %rax
	addq	$32, %rax
	movq	%rax, -40(%rbp)
	jmp	.LBB95_1
.LBB95_4:
	movq	-40(%rbp), %rax
	addq	$48, %rsp
	popq	%rbp
	.cfi_def_cfa %rsp, 8
	retq
.Lfunc_end95:
	.size	_ZSt14__relocate_a_1IPNSt7__cxx1112basic_stringIcSt11char_traitsIcESaIcEEES6_SaIS5_EET0_T_S9_S8_RT1_, .Lfunc_end95-_ZSt14__relocate_a_1IPNSt7__cxx1112basic_stringIcSt11char_traitsIcESaIcEEES6_SaIS5_EET0_T_S9_S8_RT1_
	.cfi_endproc
                                        # -- End function
	.section	.text._ZSt19__relocate_object_aINSt7__cxx1112basic_stringIcSt11char_traitsIcESaIcEEES5_SaIS5_EEvPT_PT0_RT1_,"axG",@progbits,_ZSt19__relocate_object_aINSt7__cxx1112basic_stringIcSt11char_traitsIcESaIcEEES5_SaIS5_EEvPT_PT0_RT1_,comdat
	.weak	_ZSt19__relocate_object_aINSt7__cxx1112basic_stringIcSt11char_traitsIcESaIcEEES5_SaIS5_EEvPT_PT0_RT1_ # -- Begin function _ZSt19__relocate_object_aINSt7__cxx1112basic_stringIcSt11char_traitsIcESaIcEEES5_SaIS5_EEvPT_PT0_RT1_
	.p2align	4
	.type	_ZSt19__relocate_object_aINSt7__cxx1112basic_stringIcSt11char_traitsIcESaIcEEES5_SaIS5_EEvPT_PT0_RT1_,@function
_ZSt19__relocate_object_aINSt7__cxx1112basic_stringIcSt11char_traitsIcESaIcEEES5_SaIS5_EEvPT_PT0_RT1_: # @_ZSt19__relocate_object_aINSt7__cxx1112basic_stringIcSt11char_traitsIcESaIcEEES5_SaIS5_EEvPT_PT0_RT1_
	.cfi_startproc
# %bb.0:
	pushq	%rbp
	.cfi_def_cfa_offset 16
	.cfi_offset %rbp, -16
	movq	%rsp, %rbp
	.cfi_def_cfa_register %rbp
	subq	$112, %rsp
	movq	%rdi, -88(%rbp)
	movq	%rsi, -96(%rbp)
	movq	%rdx, -104(%rbp)
	movq	-104(%rbp), %rdx
	movq	-88(%rbp), %rcx
	movq	-96(%rbp), %rax
	movq	%rdx, -64(%rbp)
	movq	%rcx, -72(%rbp)
	movq	%rax, -80(%rbp)
	movq	-64(%rbp), %rdx
	movq	-72(%rbp), %rcx
	movq	-80(%rbp), %rax
	movq	%rdx, -24(%rbp)
	movq	%rcx, -32(%rbp)
	movq	%rax, -40(%rbp)
	movq	-32(%rbp), %rdi
	movq	-40(%rbp), %rsi
	callq	_ZNSt7__cxx1112basic_stringIcSt11char_traitsIcESaIcEEC2EOS4_
	movq	-104(%rbp), %rcx
	movq	-96(%rbp), %rax
	movq	%rcx, -48(%rbp)
	movq	%rax, -56(%rbp)
	movq	-48(%rbp), %rcx
	movq	-56(%rbp), %rax
	movq	%rcx, -8(%rbp)
	movq	%rax, -16(%rbp)
	movq	-16(%rbp), %rdi
	callq	_ZNSt7__cxx1112basic_stringIcSt11char_traitsIcESaIcEED2Ev
	addq	$112, %rsp
	popq	%rbp
	.cfi_def_cfa %rsp, 8
	retq
.Lfunc_end96:
	.size	_ZSt19__relocate_object_aINSt7__cxx1112basic_stringIcSt11char_traitsIcESaIcEEES5_SaIS5_EEvPT_PT0_RT1_, .Lfunc_end96-_ZSt19__relocate_object_aINSt7__cxx1112basic_stringIcSt11char_traitsIcESaIcEEES5_SaIS5_EEvPT_PT0_RT1_
	.cfi_endproc
                                        # -- End function
	.section	.text._ZNSt7__cxx1112basic_stringIcSt11char_traitsIcESaIcEEC2EOS4_,"axG",@progbits,_ZNSt7__cxx1112basic_stringIcSt11char_traitsIcESaIcEEC2EOS4_,comdat
	.weak	_ZNSt7__cxx1112basic_stringIcSt11char_traitsIcESaIcEEC2EOS4_ # -- Begin function _ZNSt7__cxx1112basic_stringIcSt11char_traitsIcESaIcEEC2EOS4_
	.p2align	4
	.type	_ZNSt7__cxx1112basic_stringIcSt11char_traitsIcESaIcEEC2EOS4_,@function
_ZNSt7__cxx1112basic_stringIcSt11char_traitsIcESaIcEEC2EOS4_: # @_ZNSt7__cxx1112basic_stringIcSt11char_traitsIcESaIcEEC2EOS4_
.Lfunc_begin18:
	.cfi_startproc
	.cfi_personality 155, DW.ref.__gxx_personality_v0
	.cfi_lsda 27, .Lexception18
# %bb.0:
	pushq	%rbp
	.cfi_def_cfa_offset 16
	.cfi_offset %rbp, -16
	movq	%rsp, %rbp
	.cfi_def_cfa_register %rbp
	subq	$80, %rsp
	movq	%rdi, -24(%rbp)
	movq	%rsi, -32(%rbp)
	movq	-24(%rbp), %rdi
	movq	%rdi, -48(%rbp)                 # 8-byte Spill
	callq	_ZNSt7__cxx1112basic_stringIcSt11char_traitsIcESaIcEE13_M_local_dataEv
	movq	%rax, -40(%rbp)                 # 8-byte Spill
	movq	-32(%rbp), %rdi
	callq	_ZNSt7__cxx1112basic_stringIcSt11char_traitsIcESaIcEE16_M_get_allocatorEv
	movq	-48(%rbp), %rdi                 # 8-byte Reload
	movq	-40(%rbp), %rsi                 # 8-byte Reload
	movq	%rax, %rdx
.Ltmp200:
	callq	_ZNSt7__cxx1112basic_stringIcSt11char_traitsIcESaIcEE12_Alloc_hiderC2EPcOS3_
.Ltmp201:
	jmp	.LBB97_1
.LBB97_1:
	movq	-32(%rbp), %rdi
.Ltmp202:
	callq	_ZNKSt7__cxx1112basic_stringIcSt11char_traitsIcESaIcEE11_M_is_localEv
.Ltmp203:
	movb	%al, -49(%rbp)                  # 1-byte Spill
	jmp	.LBB97_2
.LBB97_2:
	movb	-49(%rbp), %al                  # 1-byte Reload
	testb	$1, %al
	jne	.LBB97_3
	jmp	.LBB97_4
.LBB97_3:
	movq	-48(%rbp), %rax                 # 8-byte Reload
	movq	%rax, -16(%rbp)
	addq	$16, %rax
	movq	%rax, -72(%rbp)                 # 8-byte Spill
	movq	-32(%rbp), %rax
	addq	$16, %rax
	movq	%rax, -64(%rbp)                 # 8-byte Spill
	movq	-32(%rbp), %rdi
	callq	_ZNKSt7__cxx1112basic_stringIcSt11char_traitsIcESaIcEE6lengthEv
	movq	-72(%rbp), %rdi                 # 8-byte Reload
	movq	-64(%rbp), %rsi                 # 8-byte Reload
	movq	%rax, %rdx
	addq	$1, %rdx
	callq	_ZNSt11char_traitsIcE4copyEPcPKcm
	jmp	.LBB97_5
.LBB97_4:
	movq	-32(%rbp), %rdi
	callq	_ZNKSt7__cxx1112basic_stringIcSt11char_traitsIcESaIcEE7_M_dataEv
	movq	-48(%rbp), %rdi                 # 8-byte Reload
	movq	%rax, %rsi
	callq	_ZNSt7__cxx1112basic_stringIcSt11char_traitsIcESaIcEE7_M_dataEPc
	movq	-48(%rbp), %rdi                 # 8-byte Reload
	movq	-32(%rbp), %rax
	movq	16(%rax), %rsi
	callq	_ZNSt7__cxx1112basic_stringIcSt11char_traitsIcESaIcEE11_M_capacityEm
.LBB97_5:
	movq	-32(%rbp), %rdi
	callq	_ZNKSt7__cxx1112basic_stringIcSt11char_traitsIcESaIcEE6lengthEv
	movq	-48(%rbp), %rdi                 # 8-byte Reload
	movq	%rax, %rsi
	callq	_ZNSt7__cxx1112basic_stringIcSt11char_traitsIcESaIcEE9_M_lengthEm
	movq	-32(%rbp), %rax
	movq	%rax, -80(%rbp)                 # 8-byte Spill
	movq	%rax, -8(%rbp)
	movq	-8(%rbp), %rdi
	callq	_ZNSt7__cxx1112basic_stringIcSt11char_traitsIcESaIcEE13_M_local_dataEv
	movq	-80(%rbp), %rdi                 # 8-byte Reload
	movq	%rax, %rsi
	callq	_ZNSt7__cxx1112basic_stringIcSt11char_traitsIcESaIcEE7_M_dataEPc
	movq	-32(%rbp), %rdi
.Ltmp204:
	xorl	%eax, %eax
	movl	%eax, %esi
	callq	_ZNSt7__cxx1112basic_stringIcSt11char_traitsIcESaIcEE13_M_set_lengthEm
.Ltmp205:
	jmp	.LBB97_6
.LBB97_6:
	addq	$80, %rsp
	popq	%rbp
	.cfi_def_cfa %rsp, 8
	retq
.LBB97_7:
	.cfi_def_cfa %rbp, 16
.Ltmp206:
	movq	%rax, %rdi
                                        # kill: def $eax killed $edx killed $rdx
	callq	__clang_call_terminate
.Lfunc_end97:
	.size	_ZNSt7__cxx1112basic_stringIcSt11char_traitsIcESaIcEEC2EOS4_, .Lfunc_end97-_ZNSt7__cxx1112basic_stringIcSt11char_traitsIcESaIcEEC2EOS4_
	.cfi_endproc
	.section	.gcc_except_table._ZNSt7__cxx1112basic_stringIcSt11char_traitsIcESaIcEEC2EOS4_,"aG",@progbits,_ZNSt7__cxx1112basic_stringIcSt11char_traitsIcESaIcEEC2EOS4_,comdat
	.p2align	2, 0x0
GCC_except_table97:
.Lexception18:
	.byte	255                             # @LPStart Encoding = omit
	.byte	155                             # @TType Encoding = indirect pcrel sdata4
	.uleb128 .Lttbase8-.Lttbaseref8
.Lttbaseref8:
	.byte	1                               # Call site Encoding = uleb128
	.uleb128 .Lcst_end18-.Lcst_begin18
.Lcst_begin18:
	.uleb128 .Ltmp200-.Lfunc_begin18        # >> Call Site 1 <<
	.uleb128 .Ltmp205-.Ltmp200              #   Call between .Ltmp200 and .Ltmp205
	.uleb128 .Ltmp206-.Lfunc_begin18        #     jumps to .Ltmp206
	.byte	1                               #   On action: 1
.Lcst_end18:
	.byte	1                               # >> Action Record 1 <<
                                        #   Catch TypeInfo 1
	.byte	0                               #   No further actions
	.p2align	2, 0x0
                                        # >> Catch TypeInfos <<
	.long	0                               # TypeInfo 1
.Lttbase8:
	.p2align	2, 0x0
                                        # -- End function
	.section	.text._ZNKSt7__cxx1112basic_stringIcSt11char_traitsIcESaIcEE11_M_is_localEv,"axG",@progbits,_ZNKSt7__cxx1112basic_stringIcSt11char_traitsIcESaIcEE11_M_is_localEv,comdat
	.weak	_ZNKSt7__cxx1112basic_stringIcSt11char_traitsIcESaIcEE11_M_is_localEv # -- Begin function _ZNKSt7__cxx1112basic_stringIcSt11char_traitsIcESaIcEE11_M_is_localEv
	.p2align	4
	.type	_ZNKSt7__cxx1112basic_stringIcSt11char_traitsIcESaIcEE11_M_is_localEv,@function
_ZNKSt7__cxx1112basic_stringIcSt11char_traitsIcESaIcEE11_M_is_localEv: # @_ZNKSt7__cxx1112basic_stringIcSt11char_traitsIcESaIcEE11_M_is_localEv
	.cfi_startproc
# %bb.0:
	pushq	%rbp
	.cfi_def_cfa_offset 16
	.cfi_offset %rbp, -16
	movq	%rsp, %rbp
	.cfi_def_cfa_register %rbp
	subq	$32, %rsp
	movq	%rdi, -16(%rbp)
	movq	-16(%rbp), %rdi
	movq	%rdi, -32(%rbp)                 # 8-byte Spill
	callq	_ZNKSt7__cxx1112basic_stringIcSt11char_traitsIcESaIcEE7_M_dataEv
	movq	-32(%rbp), %rdi                 # 8-byte Reload
	movq	%rax, -24(%rbp)                 # 8-byte Spill
	callq	_ZNKSt7__cxx1112basic_stringIcSt11char_traitsIcESaIcEE13_M_local_dataEv
	movq	%rax, %rcx
	movq	-24(%rbp), %rax                 # 8-byte Reload
	cmpq	%rcx, %rax
	jne	.LBB98_4
# %bb.1:
	movq	-32(%rbp), %rax                 # 8-byte Reload
	cmpq	$15, 8(%rax)
	jbe	.LBB98_3
# %bb.2:
.LBB98_3:
	movb	$1, -1(%rbp)
	jmp	.LBB98_5
.LBB98_4:
	movb	$0, -1(%rbp)
.LBB98_5:
	movb	-1(%rbp), %al
	andb	$1, %al
	addq	$32, %rsp
	popq	%rbp
	.cfi_def_cfa %rsp, 8
	retq
.Lfunc_end98:
	.size	_ZNKSt7__cxx1112basic_stringIcSt11char_traitsIcESaIcEE11_M_is_localEv, .Lfunc_end98-_ZNKSt7__cxx1112basic_stringIcSt11char_traitsIcESaIcEE11_M_is_localEv
	.cfi_endproc
                                        # -- End function
	.section	.text._ZNKSt7__cxx1112basic_stringIcSt11char_traitsIcESaIcEE13_M_local_dataEv,"axG",@progbits,_ZNKSt7__cxx1112basic_stringIcSt11char_traitsIcESaIcEE13_M_local_dataEv,comdat
	.weak	_ZNKSt7__cxx1112basic_stringIcSt11char_traitsIcESaIcEE13_M_local_dataEv # -- Begin function _ZNKSt7__cxx1112basic_stringIcSt11char_traitsIcESaIcEE13_M_local_dataEv
	.p2align	4
	.type	_ZNKSt7__cxx1112basic_stringIcSt11char_traitsIcESaIcEE13_M_local_dataEv,@function
_ZNKSt7__cxx1112basic_stringIcSt11char_traitsIcESaIcEE13_M_local_dataEv: # @_ZNKSt7__cxx1112basic_stringIcSt11char_traitsIcESaIcEE13_M_local_dataEv
	.cfi_startproc
# %bb.0:
	pushq	%rbp
	.cfi_def_cfa_offset 16
	.cfi_offset %rbp, -16
	movq	%rsp, %rbp
	.cfi_def_cfa_register %rbp
	subq	$16, %rsp
	movq	%rdi, -8(%rbp)
	movq	-8(%rbp), %rdi
	addq	$16, %rdi
	callq	_ZNSt19__ptr_traits_ptr_toIPKcS0_Lb0EE10pointer_toERS0_
	addq	$16, %rsp
	popq	%rbp
	.cfi_def_cfa %rsp, 8
	retq
.Lfunc_end99:
	.size	_ZNKSt7__cxx1112basic_stringIcSt11char_traitsIcESaIcEE13_M_local_dataEv, .Lfunc_end99-_ZNKSt7__cxx1112basic_stringIcSt11char_traitsIcESaIcEE13_M_local_dataEv
	.cfi_endproc
                                        # -- End function
	.section	.text._ZNSt19__ptr_traits_ptr_toIPKcS0_Lb0EE10pointer_toERS0_,"axG",@progbits,_ZNSt19__ptr_traits_ptr_toIPKcS0_Lb0EE10pointer_toERS0_,comdat
	.weak	_ZNSt19__ptr_traits_ptr_toIPKcS0_Lb0EE10pointer_toERS0_ # -- Begin function _ZNSt19__ptr_traits_ptr_toIPKcS0_Lb0EE10pointer_toERS0_
	.p2align	4
	.type	_ZNSt19__ptr_traits_ptr_toIPKcS0_Lb0EE10pointer_toERS0_,@function
_ZNSt19__ptr_traits_ptr_toIPKcS0_Lb0EE10pointer_toERS0_: # @_ZNSt19__ptr_traits_ptr_toIPKcS0_Lb0EE10pointer_toERS0_
	.cfi_startproc
# %bb.0:
	pushq	%rbp
	.cfi_def_cfa_offset 16
	.cfi_offset %rbp, -16
	movq	%rsp, %rbp
	.cfi_def_cfa_register %rbp
	movq	%rdi, -8(%rbp)
	movq	-8(%rbp), %rax
	popq	%rbp
	.cfi_def_cfa %rsp, 8
	retq
.Lfunc_end100:
	.size	_ZNSt19__ptr_traits_ptr_toIPKcS0_Lb0EE10pointer_toERS0_, .Lfunc_end100-_ZNSt19__ptr_traits_ptr_toIPKcS0_Lb0EE10pointer_toERS0_
	.cfi_endproc
                                        # -- End function
	.section	.text._ZNSt12_Vector_baseINSt7__cxx1112basic_stringIcSt11char_traitsIcESaIcEEESaIS5_EE13_M_deallocateEPS5_m,"axG",@progbits,_ZNSt12_Vector_baseINSt7__cxx1112basic_stringIcSt11char_traitsIcESaIcEEESaIS5_EE13_M_deallocateEPS5_m,comdat
	.weak	_ZNSt12_Vector_baseINSt7__cxx1112basic_stringIcSt11char_traitsIcESaIcEEESaIS5_EE13_M_deallocateEPS5_m # -- Begin function _ZNSt12_Vector_baseINSt7__cxx1112basic_stringIcSt11char_traitsIcESaIcEEESaIS5_EE13_M_deallocateEPS5_m
	.p2align	4
	.type	_ZNSt12_Vector_baseINSt7__cxx1112basic_stringIcSt11char_traitsIcESaIcEEESaIS5_EE13_M_deallocateEPS5_m,@function
_ZNSt12_Vector_baseINSt7__cxx1112basic_stringIcSt11char_traitsIcESaIcEEESaIS5_EE13_M_deallocateEPS5_m: # @_ZNSt12_Vector_baseINSt7__cxx1112basic_stringIcSt11char_traitsIcESaIcEEESaIS5_EE13_M_deallocateEPS5_m
	.cfi_startproc
# %bb.0:
	pushq	%rbp
	.cfi_def_cfa_offset 16
	.cfi_offset %rbp, -16
	movq	%rsp, %rbp
	.cfi_def_cfa_register %rbp
	subq	$64, %rsp
	movq	%rdi, -32(%rbp)
	movq	%rsi, -40(%rbp)
	movq	%rdx, -48(%rbp)
	movq	-32(%rbp), %rax
	movq	%rax, -56(%rbp)                 # 8-byte Spill
	cmpq	$0, -40(%rbp)
	je	.LBB101_2
# %bb.1:
	movq	-56(%rbp), %rdx                 # 8-byte Reload
	movq	-40(%rbp), %rcx
	movq	-48(%rbp), %rax
	movq	%rdx, -8(%rbp)
	movq	%rcx, -16(%rbp)
	movq	%rax, -24(%rbp)
	movq	-8(%rbp), %rdi
	movq	-16(%rbp), %rsi
	movq	-24(%rbp), %rdx
	callq	_ZNSt15__new_allocatorINSt7__cxx1112basic_stringIcSt11char_traitsIcESaIcEEEE10deallocateEPS5_m
.LBB101_2:
	addq	$64, %rsp
	popq	%rbp
	.cfi_def_cfa %rsp, 8
	retq
.Lfunc_end101:
	.size	_ZNSt12_Vector_baseINSt7__cxx1112basic_stringIcSt11char_traitsIcESaIcEEESaIS5_EE13_M_deallocateEPS5_m, .Lfunc_end101-_ZNSt12_Vector_baseINSt7__cxx1112basic_stringIcSt11char_traitsIcESaIcEEESaIS5_EE13_M_deallocateEPS5_m
	.cfi_endproc
                                        # -- End function
	.section	.text._ZNSt15__new_allocatorINSt7__cxx1112basic_stringIcSt11char_traitsIcESaIcEEEE10deallocateEPS5_m,"axG",@progbits,_ZNSt15__new_allocatorINSt7__cxx1112basic_stringIcSt11char_traitsIcESaIcEEEE10deallocateEPS5_m,comdat
	.weak	_ZNSt15__new_allocatorINSt7__cxx1112basic_stringIcSt11char_traitsIcESaIcEEEE10deallocateEPS5_m # -- Begin function _ZNSt15__new_allocatorINSt7__cxx1112basic_stringIcSt11char_traitsIcESaIcEEEE10deallocateEPS5_m
	.p2align	4
	.type	_ZNSt15__new_allocatorINSt7__cxx1112basic_stringIcSt11char_traitsIcESaIcEEEE10deallocateEPS5_m,@function
_ZNSt15__new_allocatorINSt7__cxx1112basic_stringIcSt11char_traitsIcESaIcEEEE10deallocateEPS5_m: # @_ZNSt15__new_allocatorINSt7__cxx1112basic_stringIcSt11char_traitsIcESaIcEEEE10deallocateEPS5_m
	.cfi_startproc
# %bb.0:
	pushq	%rbp
	.cfi_def_cfa_offset 16
	.cfi_offset %rbp, -16
	movq	%rsp, %rbp
	.cfi_def_cfa_register %rbp
	subq	$32, %rsp
	movq	%rdi, -8(%rbp)
	movq	%rsi, -16(%rbp)
	movq	%rdx, -24(%rbp)
	movq	-16(%rbp), %rdi
	movq	-24(%rbp), %rsi
	shlq	$5, %rsi
	callq	_ZdlPvm@PLT
	addq	$32, %rsp
	popq	%rbp
	.cfi_def_cfa %rsp, 8
	retq
.Lfunc_end102:
	.size	_ZNSt15__new_allocatorINSt7__cxx1112basic_stringIcSt11char_traitsIcESaIcEEEE10deallocateEPS5_m, .Lfunc_end102-_ZNSt15__new_allocatorINSt7__cxx1112basic_stringIcSt11char_traitsIcESaIcEEEE10deallocateEPS5_m
	.cfi_endproc
                                        # -- End function
	.section	.text._ZNKSt7__cxx1112basic_stringIcSt11char_traitsIcESaIcEE4findEPKcmm,"axG",@progbits,_ZNKSt7__cxx1112basic_stringIcSt11char_traitsIcESaIcEE4findEPKcmm,comdat
	.weak	_ZNKSt7__cxx1112basic_stringIcSt11char_traitsIcESaIcEE4findEPKcmm # -- Begin function _ZNKSt7__cxx1112basic_stringIcSt11char_traitsIcESaIcEE4findEPKcmm
	.p2align	4
	.type	_ZNKSt7__cxx1112basic_stringIcSt11char_traitsIcESaIcEE4findEPKcmm,@function
_ZNKSt7__cxx1112basic_stringIcSt11char_traitsIcESaIcEE4findEPKcmm: # @_ZNKSt7__cxx1112basic_stringIcSt11char_traitsIcESaIcEE4findEPKcmm
.Lfunc_begin19:
	.cfi_startproc
	.cfi_personality 155, DW.ref.__gxx_personality_v0
	.cfi_lsda 27, .Lexception19
# %bb.0:
	pushq	%rbp
	.cfi_def_cfa_offset 16
	.cfi_offset %rbp, -16
	movq	%rsp, %rbp
	.cfi_def_cfa_register %rbp
	subq	$144, %rsp
	movq	%fs:40, %rax
	movq	%rax, -8(%rbp)
	movq	%rdi, -32(%rbp)
	movq	%rsi, -40(%rbp)
	movq	%rdx, -48(%rbp)
	movq	%rcx, -56(%rbp)
	movq	-32(%rbp), %rdi
	movq	%rdi, -104(%rbp)                # 8-byte Spill
	callq	_ZNKSt7__cxx1112basic_stringIcSt11char_traitsIcESaIcEE4sizeEv
	movq	%rax, -64(%rbp)
	cmpq	$0, -56(%rbp)
	jne	.LBB103_5
# %bb.1:
	movq	-48(%rbp), %rax
	cmpq	-64(%rbp), %rax
	ja	.LBB103_3
# %bb.2:
	movq	-48(%rbp), %rax
	movq	%rax, -112(%rbp)                # 8-byte Spill
	jmp	.LBB103_4
.LBB103_3:
	movq	$-1, %rax
	movq	%rax, -112(%rbp)                # 8-byte Spill
	jmp	.LBB103_4
.LBB103_4:
	movq	-112(%rbp), %rax                # 8-byte Reload
	movq	%rax, -24(%rbp)
	jmp	.LBB103_17
.LBB103_5:
	movq	-48(%rbp), %rax
	cmpq	-64(%rbp), %rax
	jb	.LBB103_7
# %bb.6:
	movq	$-1, -24(%rbp)
	jmp	.LBB103_17
.LBB103_7:
	movq	-104(%rbp), %rdi                # 8-byte Reload
	movq	-40(%rbp), %rax
	movb	(%rax), %al
	movb	%al, -9(%rbp)
	callq	_ZNKSt7__cxx1112basic_stringIcSt11char_traitsIcESaIcEE4dataEv
	movq	%rax, -72(%rbp)
	movq	-72(%rbp), %rax
	addq	-48(%rbp), %rax
	movq	%rax, -80(%rbp)
	movq	-72(%rbp), %rax
	addq	-64(%rbp), %rax
	movq	%rax, -88(%rbp)
	movq	-64(%rbp), %rax
	subq	-48(%rbp), %rax
	movq	%rax, -96(%rbp)
.LBB103_8:                              # =>This Inner Loop Header: Depth=1
	movq	-96(%rbp), %rax
	cmpq	-56(%rbp), %rax
	jb	.LBB103_16
# %bb.9:                                #   in Loop: Header=BB103_8 Depth=1
	movq	-80(%rbp), %rdi
	movq	-96(%rbp), %rsi
	movq	-56(%rbp), %rax
	subq	%rax, %rsi
	incq	%rsi
.Ltmp207:
	leaq	-9(%rbp), %rdx
	callq	_ZNSt11char_traitsIcE4findEPKcmRS1_
.Ltmp208:
	movq	%rax, -120(%rbp)                # 8-byte Spill
	jmp	.LBB103_10
.LBB103_10:                             #   in Loop: Header=BB103_8 Depth=1
	movq	-120(%rbp), %rax                # 8-byte Reload
	movq	%rax, -80(%rbp)
	cmpq	$0, -80(%rbp)
	jne	.LBB103_12
# %bb.11:
	movq	$-1, -24(%rbp)
	jmp	.LBB103_17
.LBB103_12:                             #   in Loop: Header=BB103_8 Depth=1
	movq	-80(%rbp), %rdi
	movq	-40(%rbp), %rsi
	movq	-56(%rbp), %rdx
.Ltmp209:
	callq	_ZNSt11char_traitsIcE7compareEPKcS2_m
.Ltmp210:
	movl	%eax, -124(%rbp)                # 4-byte Spill
	jmp	.LBB103_13
.LBB103_13:                             #   in Loop: Header=BB103_8 Depth=1
	movl	-124(%rbp), %eax                # 4-byte Reload
	cmpl	$0, %eax
	jne	.LBB103_15
# %bb.14:
	movq	-80(%rbp), %rax
	movq	-72(%rbp), %rcx
	subq	%rcx, %rax
	movq	%rax, -24(%rbp)
	jmp	.LBB103_17
.LBB103_15:                             #   in Loop: Header=BB103_8 Depth=1
	movq	-88(%rbp), %rax
	movq	-80(%rbp), %rcx
	addq	$1, %rcx
	movq	%rcx, -80(%rbp)
	subq	%rcx, %rax
	movq	%rax, -96(%rbp)
	jmp	.LBB103_8
.LBB103_16:
	movq	$-1, -24(%rbp)
.LBB103_17:
	movq	-24(%rbp), %rax
	movq	%rax, -136(%rbp)                # 8-byte Spill
	movq	%fs:40, %rax
	movq	-8(%rbp), %rcx
	cmpq	%rcx, %rax
	jne	.LBB103_20
# %bb.18:
	movq	-136(%rbp), %rax                # 8-byte Reload
	addq	$144, %rsp
	popq	%rbp
	.cfi_def_cfa %rsp, 8
	retq
.LBB103_19:
	.cfi_def_cfa %rbp, 16
.Ltmp211:
	movq	%rax, %rdi
                                        # kill: def $eax killed $edx killed $rdx
	callq	__clang_call_terminate
.LBB103_20:
	callq	__stack_chk_fail@PLT
.Lfunc_end103:
	.size	_ZNKSt7__cxx1112basic_stringIcSt11char_traitsIcESaIcEE4findEPKcmm, .Lfunc_end103-_ZNKSt7__cxx1112basic_stringIcSt11char_traitsIcESaIcEE4findEPKcmm
	.cfi_endproc
	.section	.gcc_except_table._ZNKSt7__cxx1112basic_stringIcSt11char_traitsIcESaIcEE4findEPKcmm,"aG",@progbits,_ZNKSt7__cxx1112basic_stringIcSt11char_traitsIcESaIcEE4findEPKcmm,comdat
	.p2align	2, 0x0
GCC_except_table103:
.Lexception19:
	.byte	255                             # @LPStart Encoding = omit
	.byte	155                             # @TType Encoding = indirect pcrel sdata4
	.uleb128 .Lttbase9-.Lttbaseref9
.Lttbaseref9:
	.byte	1                               # Call site Encoding = uleb128
	.uleb128 .Lcst_end19-.Lcst_begin19
.Lcst_begin19:
	.uleb128 .Ltmp207-.Lfunc_begin19        # >> Call Site 1 <<
	.uleb128 .Ltmp210-.Ltmp207              #   Call between .Ltmp207 and .Ltmp210
	.uleb128 .Ltmp211-.Lfunc_begin19        #     jumps to .Ltmp211
	.byte	1                               #   On action: 1
	.uleb128 .Ltmp210-.Lfunc_begin19        # >> Call Site 2 <<
	.uleb128 .Lfunc_end103-.Ltmp210         #   Call between .Ltmp210 and .Lfunc_end103
	.byte	0                               #     has no landing pad
	.byte	0                               #   On action: cleanup
.Lcst_end19:
	.byte	1                               # >> Action Record 1 <<
                                        #   Catch TypeInfo 1
	.byte	0                               #   No further actions
	.p2align	2, 0x0
                                        # >> Catch TypeInfos <<
	.long	0                               # TypeInfo 1
.Lttbase9:
	.p2align	2, 0x0
                                        # -- End function
	.section	.text._ZNKSt7__cxx1112basic_stringIcSt11char_traitsIcESaIcEE5c_strEv,"axG",@progbits,_ZNKSt7__cxx1112basic_stringIcSt11char_traitsIcESaIcEE5c_strEv,comdat
	.weak	_ZNKSt7__cxx1112basic_stringIcSt11char_traitsIcESaIcEE5c_strEv # -- Begin function _ZNKSt7__cxx1112basic_stringIcSt11char_traitsIcESaIcEE5c_strEv
	.p2align	4
	.type	_ZNKSt7__cxx1112basic_stringIcSt11char_traitsIcESaIcEE5c_strEv,@function
_ZNKSt7__cxx1112basic_stringIcSt11char_traitsIcESaIcEE5c_strEv: # @_ZNKSt7__cxx1112basic_stringIcSt11char_traitsIcESaIcEE5c_strEv
	.cfi_startproc
# %bb.0:
	pushq	%rbp
	.cfi_def_cfa_offset 16
	.cfi_offset %rbp, -16
	movq	%rsp, %rbp
	.cfi_def_cfa_register %rbp
	subq	$16, %rsp
	movq	%rdi, -8(%rbp)
	movq	-8(%rbp), %rdi
	callq	_ZNKSt7__cxx1112basic_stringIcSt11char_traitsIcESaIcEE7_M_dataEv
	addq	$16, %rsp
	popq	%rbp
	.cfi_def_cfa %rsp, 8
	retq
.Lfunc_end104:
	.size	_ZNKSt7__cxx1112basic_stringIcSt11char_traitsIcESaIcEE5c_strEv, .Lfunc_end104-_ZNKSt7__cxx1112basic_stringIcSt11char_traitsIcESaIcEE5c_strEv
	.cfi_endproc
                                        # -- End function
	.section	.text._ZNKSt7__cxx1112basic_stringIcSt11char_traitsIcESaIcEE4dataEv,"axG",@progbits,_ZNKSt7__cxx1112basic_stringIcSt11char_traitsIcESaIcEE4dataEv,comdat
	.weak	_ZNKSt7__cxx1112basic_stringIcSt11char_traitsIcESaIcEE4dataEv # -- Begin function _ZNKSt7__cxx1112basic_stringIcSt11char_traitsIcESaIcEE4dataEv
	.p2align	4
	.type	_ZNKSt7__cxx1112basic_stringIcSt11char_traitsIcESaIcEE4dataEv,@function
_ZNKSt7__cxx1112basic_stringIcSt11char_traitsIcESaIcEE4dataEv: # @_ZNKSt7__cxx1112basic_stringIcSt11char_traitsIcESaIcEE4dataEv
	.cfi_startproc
# %bb.0:
	pushq	%rbp
	.cfi_def_cfa_offset 16
	.cfi_offset %rbp, -16
	movq	%rsp, %rbp
	.cfi_def_cfa_register %rbp
	subq	$16, %rsp
	movq	%rdi, -8(%rbp)
	movq	-8(%rbp), %rdi
	callq	_ZNKSt7__cxx1112basic_stringIcSt11char_traitsIcESaIcEE7_M_dataEv
	addq	$16, %rsp
	popq	%rbp
	.cfi_def_cfa %rsp, 8
	retq
.Lfunc_end105:
	.size	_ZNKSt7__cxx1112basic_stringIcSt11char_traitsIcESaIcEE4dataEv, .Lfunc_end105-_ZNKSt7__cxx1112basic_stringIcSt11char_traitsIcESaIcEE4dataEv
	.cfi_endproc
                                        # -- End function
	.section	.text._ZNSt11char_traitsIcE4findEPKcmRS1_,"axG",@progbits,_ZNSt11char_traitsIcE4findEPKcmRS1_,comdat
	.weak	_ZNSt11char_traitsIcE4findEPKcmRS1_ # -- Begin function _ZNSt11char_traitsIcE4findEPKcmRS1_
	.p2align	4
	.type	_ZNSt11char_traitsIcE4findEPKcmRS1_,@function
_ZNSt11char_traitsIcE4findEPKcmRS1_:    # @_ZNSt11char_traitsIcE4findEPKcmRS1_
	.cfi_startproc
# %bb.0:
	pushq	%rbp
	.cfi_def_cfa_offset 16
	.cfi_offset %rbp, -16
	movq	%rsp, %rbp
	.cfi_def_cfa_register %rbp
	subq	$32, %rsp
	movq	%rdi, -16(%rbp)
	movq	%rsi, -24(%rbp)
	movq	%rdx, -32(%rbp)
	cmpq	$0, -24(%rbp)
	jne	.LBB106_2
# %bb.1:
	movq	$0, -8(%rbp)
	jmp	.LBB106_3
.LBB106_2:
	movq	-16(%rbp), %rdi
	movq	-32(%rbp), %rax
	movsbl	(%rax), %esi
	movq	-24(%rbp), %rdx
	callq	memchr@PLT
	movq	%rax, -8(%rbp)
.LBB106_3:
	movq	-8(%rbp), %rax
	addq	$32, %rsp
	popq	%rbp
	.cfi_def_cfa %rsp, 8
	retq
.Lfunc_end106:
	.size	_ZNSt11char_traitsIcE4findEPKcmRS1_, .Lfunc_end106-_ZNSt11char_traitsIcE4findEPKcmRS1_
	.cfi_endproc
                                        # -- End function
	.section	.text._ZNSt11char_traitsIcE7compareEPKcS2_m,"axG",@progbits,_ZNSt11char_traitsIcE7compareEPKcS2_m,comdat
	.weak	_ZNSt11char_traitsIcE7compareEPKcS2_m # -- Begin function _ZNSt11char_traitsIcE7compareEPKcS2_m
	.p2align	4
	.type	_ZNSt11char_traitsIcE7compareEPKcS2_m,@function
_ZNSt11char_traitsIcE7compareEPKcS2_m:  # @_ZNSt11char_traitsIcE7compareEPKcS2_m
	.cfi_startproc
# %bb.0:
	pushq	%rbp
	.cfi_def_cfa_offset 16
	.cfi_offset %rbp, -16
	movq	%rsp, %rbp
	.cfi_def_cfa_register %rbp
	subq	$32, %rsp
	movq	%rdi, -16(%rbp)
	movq	%rsi, -24(%rbp)
	movq	%rdx, -32(%rbp)
	cmpq	$0, -32(%rbp)
	jne	.LBB107_2
# %bb.1:
	movl	$0, -4(%rbp)
	jmp	.LBB107_3
.LBB107_2:
	movq	-16(%rbp), %rdi
	movq	-24(%rbp), %rsi
	movq	-32(%rbp), %rdx
	callq	memcmp@PLT
	movl	%eax, -4(%rbp)
.LBB107_3:
	movl	-4(%rbp), %eax
	addq	$32, %rsp
	popq	%rbp
	.cfi_def_cfa %rsp, 8
	retq
.Lfunc_end107:
	.size	_ZNSt11char_traitsIcE7compareEPKcS2_m, .Lfunc_end107-_ZNSt11char_traitsIcE7compareEPKcS2_m
	.cfi_endproc
                                        # -- End function
	.section	.text._ZStorSt13_Ios_OpenmodeS_,"axG",@progbits,_ZStorSt13_Ios_OpenmodeS_,comdat
	.weak	_ZStorSt13_Ios_OpenmodeS_       # -- Begin function _ZStorSt13_Ios_OpenmodeS_
	.p2align	4
	.type	_ZStorSt13_Ios_OpenmodeS_,@function
_ZStorSt13_Ios_OpenmodeS_:              # @_ZStorSt13_Ios_OpenmodeS_
	.cfi_startproc
# %bb.0:
	pushq	%rbp
	.cfi_def_cfa_offset 16
	.cfi_offset %rbp, -16
	movq	%rsp, %rbp
	.cfi_def_cfa_register %rbp
	movl	%edi, -4(%rbp)
	movl	%esi, -8(%rbp)
	movl	-4(%rbp), %eax
	orl	-8(%rbp), %eax
	popq	%rbp
	.cfi_def_cfa %rsp, 8
	retq
.Lfunc_end108:
	.size	_ZStorSt13_Ios_OpenmodeS_, .Lfunc_end108-_ZStorSt13_Ios_OpenmodeS_
	.cfi_endproc
                                        # -- End function
	.section	.text._ZNSt12__shared_ptrIN5clang22PCHContainerOperationsELN9__gnu_cxx12_Lock_policyE2EED2Ev,"axG",@progbits,_ZNSt12__shared_ptrIN5clang22PCHContainerOperationsELN9__gnu_cxx12_Lock_policyE2EED2Ev,comdat
	.weak	_ZNSt12__shared_ptrIN5clang22PCHContainerOperationsELN9__gnu_cxx12_Lock_policyE2EED2Ev # -- Begin function _ZNSt12__shared_ptrIN5clang22PCHContainerOperationsELN9__gnu_cxx12_Lock_policyE2EED2Ev
	.p2align	4
	.type	_ZNSt12__shared_ptrIN5clang22PCHContainerOperationsELN9__gnu_cxx12_Lock_policyE2EED2Ev,@function
_ZNSt12__shared_ptrIN5clang22PCHContainerOperationsELN9__gnu_cxx12_Lock_policyE2EED2Ev: # @_ZNSt12__shared_ptrIN5clang22PCHContainerOperationsELN9__gnu_cxx12_Lock_policyE2EED2Ev
	.cfi_startproc
# %bb.0:
	pushq	%rbp
	.cfi_def_cfa_offset 16
	.cfi_offset %rbp, -16
	movq	%rsp, %rbp
	.cfi_def_cfa_register %rbp
	subq	$16, %rsp
	movq	%rdi, -8(%rbp)
	movq	-8(%rbp), %rdi
	addq	$8, %rdi
	callq	_ZNSt14__shared_countILN9__gnu_cxx12_Lock_policyE2EED2Ev
	addq	$16, %rsp
	popq	%rbp
	.cfi_def_cfa %rsp, 8
	retq
.Lfunc_end109:
	.size	_ZNSt12__shared_ptrIN5clang22PCHContainerOperationsELN9__gnu_cxx12_Lock_policyE2EED2Ev, .Lfunc_end109-_ZNSt12__shared_ptrIN5clang22PCHContainerOperationsELN9__gnu_cxx12_Lock_policyE2EED2Ev
	.cfi_endproc
                                        # -- End function
	.section	.text._ZNSt14__shared_countILN9__gnu_cxx12_Lock_policyE2EED2Ev,"axG",@progbits,_ZNSt14__shared_countILN9__gnu_cxx12_Lock_policyE2EED2Ev,comdat
	.weak	_ZNSt14__shared_countILN9__gnu_cxx12_Lock_policyE2EED2Ev # -- Begin function _ZNSt14__shared_countILN9__gnu_cxx12_Lock_policyE2EED2Ev
	.p2align	4
	.type	_ZNSt14__shared_countILN9__gnu_cxx12_Lock_policyE2EED2Ev,@function
_ZNSt14__shared_countILN9__gnu_cxx12_Lock_policyE2EED2Ev: # @_ZNSt14__shared_countILN9__gnu_cxx12_Lock_policyE2EED2Ev
	.cfi_startproc
# %bb.0:
	pushq	%rbp
	.cfi_def_cfa_offset 16
	.cfi_offset %rbp, -16
	movq	%rsp, %rbp
	.cfi_def_cfa_register %rbp
	subq	$16, %rsp
	movq	%rdi, -8(%rbp)
	movq	-8(%rbp), %rax
	movq	%rax, -16(%rbp)                 # 8-byte Spill
	cmpq	$0, (%rax)
	je	.LBB110_2
# %bb.1:
	movq	-16(%rbp), %rax                 # 8-byte Reload
	movq	(%rax), %rdi
	callq	_ZNSt16_Sp_counted_baseILN9__gnu_cxx12_Lock_policyE2EE10_M_releaseEv
.LBB110_2:
	addq	$16, %rsp
	popq	%rbp
	.cfi_def_cfa %rsp, 8
	retq
.Lfunc_end110:
	.size	_ZNSt14__shared_countILN9__gnu_cxx12_Lock_policyE2EED2Ev, .Lfunc_end110-_ZNSt14__shared_countILN9__gnu_cxx12_Lock_policyE2EED2Ev
	.cfi_endproc
                                        # -- End function
	.section	.text._ZNSt16_Sp_counted_baseILN9__gnu_cxx12_Lock_policyE2EE10_M_releaseEv,"axG",@progbits,_ZNSt16_Sp_counted_baseILN9__gnu_cxx12_Lock_policyE2EE10_M_releaseEv,comdat
	.weak	_ZNSt16_Sp_counted_baseILN9__gnu_cxx12_Lock_policyE2EE10_M_releaseEv # -- Begin function _ZNSt16_Sp_counted_baseILN9__gnu_cxx12_Lock_policyE2EE10_M_releaseEv
	.p2align	4
	.type	_ZNSt16_Sp_counted_baseILN9__gnu_cxx12_Lock_policyE2EE10_M_releaseEv,@function
_ZNSt16_Sp_counted_baseILN9__gnu_cxx12_Lock_policyE2EE10_M_releaseEv: # @_ZNSt16_Sp_counted_baseILN9__gnu_cxx12_Lock_policyE2EE10_M_releaseEv
	.cfi_startproc
# %bb.0:
	pushq	%rbp
	.cfi_def_cfa_offset 16
	.cfi_offset %rbp, -16
	movq	%rsp, %rbp
	.cfi_def_cfa_register %rbp
	subq	$128, %rsp
	movq	%rdi, -72(%rbp)
	movq	-72(%rbp), %rax
	movq	%rax, -120(%rbp)                # 8-byte Spill
	movb	$1, -73(%rbp)
	movb	$1, -74(%rbp)
	movb	$1, -75(%rbp)
	movl	$32, -80(%rbp)
	movl	$32, -84(%rbp)
	movabsq	$4294967297, %rcx               # imm = 0x100000001
	movq	%rcx, -96(%rbp)
	addq	$8, %rax
	movq	%rax, -104(%rbp)
	movq	-104(%rbp), %rax
	movq	(%rax), %rax
	movq	%rax, -112(%rbp)
	movabsq	$4294967297, %rax               # imm = 0x100000001
	cmpq	%rax, -112(%rbp)
	jne	.LBB111_2
# %bb.1:
	movq	-120(%rbp), %rdi                # 8-byte Reload
	movl	$0, 8(%rdi)
	movl	$0, 12(%rdi)
	movq	(%rdi), %rax
	callq	*16(%rax)
	movq	-120(%rbp), %rdi                # 8-byte Reload
	movq	(%rdi), %rax
	callq	*24(%rax)
	jmp	.LBB111_8
.LBB111_2:
	movq	-120(%rbp), %rax                # 8-byte Reload
	addq	$8, %rax
	movq	%rax, -56(%rbp)
	movl	$-1, -60(%rbp)
	movq	__libc_single_threaded@GOTPCREL(%rip), %rax
	cmpb	$0, (%rax)
	je	.LBB111_4
# %bb.3:
	movq	-56(%rbp), %rcx
	movl	-60(%rbp), %eax
	movq	%rcx, -32(%rbp)
	movl	%eax, -36(%rbp)
	movq	-32(%rbp), %rax
	movl	(%rax), %eax
	movl	%eax, -40(%rbp)
	movl	-36(%rbp), %ecx
	movq	-32(%rbp), %rax
	addl	(%rax), %ecx
	movl	%ecx, (%rax)
	movl	-40(%rbp), %eax
	movl	%eax, -44(%rbp)
	jmp	.LBB111_5
.LBB111_4:
	movq	-56(%rbp), %rcx
	movl	-60(%rbp), %eax
	movq	%rcx, -8(%rbp)
	movl	%eax, -12(%rbp)
	movq	-8(%rbp), %rcx
	movl	-12(%rbp), %eax
	movl	%eax, -16(%rbp)
	movl	-16(%rbp), %eax
	lock		xaddl	%eax, (%rcx)
	movl	%eax, -20(%rbp)
	movl	-20(%rbp), %eax
	movl	%eax, -44(%rbp)
.LBB111_5:
	movl	-44(%rbp), %eax
	movl	%eax, -124(%rbp)                # 4-byte Spill
# %bb.6:
	movl	-124(%rbp), %eax                # 4-byte Reload
	cmpl	$1, %eax
	jne	.LBB111_8
# %bb.7:
	movq	-120(%rbp), %rdi                # 8-byte Reload
	callq	_ZNSt16_Sp_counted_baseILN9__gnu_cxx12_Lock_policyE2EE24_M_release_last_use_coldEv
.LBB111_8:
	addq	$128, %rsp
	popq	%rbp
	.cfi_def_cfa %rsp, 8
	retq
.Lfunc_end111:
	.size	_ZNSt16_Sp_counted_baseILN9__gnu_cxx12_Lock_policyE2EE10_M_releaseEv, .Lfunc_end111-_ZNSt16_Sp_counted_baseILN9__gnu_cxx12_Lock_policyE2EE10_M_releaseEv
	.cfi_endproc
                                        # -- End function
	.section	.text._ZNSt16_Sp_counted_baseILN9__gnu_cxx12_Lock_policyE2EE24_M_release_last_use_coldEv,"axG",@progbits,_ZNSt16_Sp_counted_baseILN9__gnu_cxx12_Lock_policyE2EE24_M_release_last_use_coldEv,comdat
	.weak	_ZNSt16_Sp_counted_baseILN9__gnu_cxx12_Lock_policyE2EE24_M_release_last_use_coldEv # -- Begin function _ZNSt16_Sp_counted_baseILN9__gnu_cxx12_Lock_policyE2EE24_M_release_last_use_coldEv
	.p2align	4
	.type	_ZNSt16_Sp_counted_baseILN9__gnu_cxx12_Lock_policyE2EE24_M_release_last_use_coldEv,@function
_ZNSt16_Sp_counted_baseILN9__gnu_cxx12_Lock_policyE2EE24_M_release_last_use_coldEv: # @_ZNSt16_Sp_counted_baseILN9__gnu_cxx12_Lock_policyE2EE24_M_release_last_use_coldEv
	.cfi_startproc
# %bb.0:
	pushq	%rbp
	.cfi_def_cfa_offset 16
	.cfi_offset %rbp, -16
	movq	%rsp, %rbp
	.cfi_def_cfa_register %rbp
	subq	$16, %rsp
	movq	%rdi, -8(%rbp)
	movq	-8(%rbp), %rdi
	callq	_ZNSt16_Sp_counted_baseILN9__gnu_cxx12_Lock_policyE2EE19_M_release_last_useEv
	addq	$16, %rsp
	popq	%rbp
	.cfi_def_cfa %rsp, 8
	retq
.Lfunc_end112:
	.size	_ZNSt16_Sp_counted_baseILN9__gnu_cxx12_Lock_policyE2EE24_M_release_last_use_coldEv, .Lfunc_end112-_ZNSt16_Sp_counted_baseILN9__gnu_cxx12_Lock_policyE2EE24_M_release_last_use_coldEv
	.cfi_endproc
                                        # -- End function
	.section	.text._ZNSt16_Sp_counted_baseILN9__gnu_cxx12_Lock_policyE2EE19_M_release_last_useEv,"axG",@progbits,_ZNSt16_Sp_counted_baseILN9__gnu_cxx12_Lock_policyE2EE19_M_release_last_useEv,comdat
	.weak	_ZNSt16_Sp_counted_baseILN9__gnu_cxx12_Lock_policyE2EE19_M_release_last_useEv # -- Begin function _ZNSt16_Sp_counted_baseILN9__gnu_cxx12_Lock_policyE2EE19_M_release_last_useEv
	.p2align	4
	.type	_ZNSt16_Sp_counted_baseILN9__gnu_cxx12_Lock_policyE2EE19_M_release_last_useEv,@function
_ZNSt16_Sp_counted_baseILN9__gnu_cxx12_Lock_policyE2EE19_M_release_last_useEv: # @_ZNSt16_Sp_counted_baseILN9__gnu_cxx12_Lock_policyE2EE19_M_release_last_useEv
	.cfi_startproc
# %bb.0:
	pushq	%rbp
	.cfi_def_cfa_offset 16
	.cfi_offset %rbp, -16
	movq	%rsp, %rbp
	.cfi_def_cfa_register %rbp
	subq	$96, %rsp
	movq	%rdi, -72(%rbp)
	movq	-72(%rbp), %rdi
	movq	%rdi, -80(%rbp)                 # 8-byte Spill
	movq	(%rdi), %rax
	callq	*16(%rax)
	movq	-80(%rbp), %rax                 # 8-byte Reload
	addq	$12, %rax
	movq	%rax, -56(%rbp)
	movl	$-1, -60(%rbp)
	movq	__libc_single_threaded@GOTPCREL(%rip), %rax
	cmpb	$0, (%rax)
	je	.LBB113_2
# %bb.1:
	movq	-56(%rbp), %rcx
	movl	-60(%rbp), %eax
	movq	%rcx, -32(%rbp)
	movl	%eax, -36(%rbp)
	movq	-32(%rbp), %rax
	movl	(%rax), %eax
	movl	%eax, -40(%rbp)
	movl	-36(%rbp), %ecx
	movq	-32(%rbp), %rax
	addl	(%rax), %ecx
	movl	%ecx, (%rax)
	movl	-40(%rbp), %eax
	movl	%eax, -44(%rbp)
	jmp	.LBB113_3
.LBB113_2:
	movq	-56(%rbp), %rcx
	movl	-60(%rbp), %eax
	movq	%rcx, -8(%rbp)
	movl	%eax, -12(%rbp)
	movq	-8(%rbp), %rcx
	movl	-12(%rbp), %eax
	movl	%eax, -16(%rbp)
	movl	-16(%rbp), %eax
	lock		xaddl	%eax, (%rcx)
	movl	%eax, -20(%rbp)
	movl	-20(%rbp), %eax
	movl	%eax, -44(%rbp)
.LBB113_3:
	movl	-44(%rbp), %eax
	movl	%eax, -84(%rbp)                 # 4-byte Spill
# %bb.4:
	movl	-84(%rbp), %eax                 # 4-byte Reload
	cmpl	$1, %eax
	jne	.LBB113_6
# %bb.5:
	movq	-80(%rbp), %rdi                 # 8-byte Reload
	movq	(%rdi), %rax
	callq	*24(%rax)
.LBB113_6:
	addq	$96, %rsp
	popq	%rbp
	.cfi_def_cfa %rsp, 8
	retq
.Lfunc_end113:
	.size	_ZNSt16_Sp_counted_baseILN9__gnu_cxx12_Lock_policyE2EE19_M_release_last_useEv, .Lfunc_end113-_ZNSt16_Sp_counted_baseILN9__gnu_cxx12_Lock_policyE2EE19_M_release_last_useEv
	.cfi_endproc
                                        # -- End function
	.section	.text._ZNK4llvm18IntrusiveRefCntPtrIN5clang17DiagnosticsEngineEEcvbEv,"axG",@progbits,_ZNK4llvm18IntrusiveRefCntPtrIN5clang17DiagnosticsEngineEEcvbEv,comdat
	.weak	_ZNK4llvm18IntrusiveRefCntPtrIN5clang17DiagnosticsEngineEEcvbEv # -- Begin function _ZNK4llvm18IntrusiveRefCntPtrIN5clang17DiagnosticsEngineEEcvbEv
	.p2align	4
	.type	_ZNK4llvm18IntrusiveRefCntPtrIN5clang17DiagnosticsEngineEEcvbEv,@function
_ZNK4llvm18IntrusiveRefCntPtrIN5clang17DiagnosticsEngineEEcvbEv: # @_ZNK4llvm18IntrusiveRefCntPtrIN5clang17DiagnosticsEngineEEcvbEv
	.cfi_startproc
# %bb.0:
	pushq	%rbp
	.cfi_def_cfa_offset 16
	.cfi_offset %rbp, -16
	movq	%rsp, %rbp
	.cfi_def_cfa_register %rbp
	movq	%rdi, -8(%rbp)
	movq	-8(%rbp), %rax
	cmpq	$0, (%rax)
	setne	%al
	andb	$1, %al
	popq	%rbp
	.cfi_def_cfa %rsp, 8
	retq
.Lfunc_end114:
	.size	_ZNK4llvm18IntrusiveRefCntPtrIN5clang17DiagnosticsEngineEEcvbEv, .Lfunc_end114-_ZNK4llvm18IntrusiveRefCntPtrIN5clang17DiagnosticsEngineEEcvbEv
	.cfi_endproc
                                        # -- End function
	.section	.text._ZNK4llvm18IntrusiveRefCntPtrIN5clang17DiagnosticsEngineEEdeEv,"axG",@progbits,_ZNK4llvm18IntrusiveRefCntPtrIN5clang17DiagnosticsEngineEEdeEv,comdat
	.weak	_ZNK4llvm18IntrusiveRefCntPtrIN5clang17DiagnosticsEngineEEdeEv # -- Begin function _ZNK4llvm18IntrusiveRefCntPtrIN5clang17DiagnosticsEngineEEdeEv
	.p2align	4
	.type	_ZNK4llvm18IntrusiveRefCntPtrIN5clang17DiagnosticsEngineEEdeEv,@function
_ZNK4llvm18IntrusiveRefCntPtrIN5clang17DiagnosticsEngineEEdeEv: # @_ZNK4llvm18IntrusiveRefCntPtrIN5clang17DiagnosticsEngineEEdeEv
	.cfi_startproc
# %bb.0:
	pushq	%rbp
	.cfi_def_cfa_offset 16
	.cfi_offset %rbp, -16
	movq	%rsp, %rbp
	.cfi_def_cfa_register %rbp
	movq	%rdi, -8(%rbp)
	movq	-8(%rbp), %rax
	movq	(%rax), %rax
	popq	%rbp
	.cfi_def_cfa %rsp, 8
	retq
.Lfunc_end115:
	.size	_ZNK4llvm18IntrusiveRefCntPtrIN5clang17DiagnosticsEngineEEdeEv, .Lfunc_end115-_ZNK4llvm18IntrusiveRefCntPtrIN5clang17DiagnosticsEngineEEdeEv
	.cfi_endproc
                                        # -- End function
	.section	.text._ZNKSt19__shared_ptr_accessIN5clang18CompilerInvocationELN9__gnu_cxx12_Lock_policyE2ELb0ELb0EEptEv,"axG",@progbits,_ZNKSt19__shared_ptr_accessIN5clang18CompilerInvocationELN9__gnu_cxx12_Lock_policyE2ELb0ELb0EEptEv,comdat
	.weak	_ZNKSt19__shared_ptr_accessIN5clang18CompilerInvocationELN9__gnu_cxx12_Lock_policyE2ELb0ELb0EEptEv # -- Begin function _ZNKSt19__shared_ptr_accessIN5clang18CompilerInvocationELN9__gnu_cxx12_Lock_policyE2ELb0ELb0EEptEv
	.p2align	4
	.type	_ZNKSt19__shared_ptr_accessIN5clang18CompilerInvocationELN9__gnu_cxx12_Lock_policyE2ELb0ELb0EEptEv,@function
_ZNKSt19__shared_ptr_accessIN5clang18CompilerInvocationELN9__gnu_cxx12_Lock_policyE2ELb0ELb0EEptEv: # @_ZNKSt19__shared_ptr_accessIN5clang18CompilerInvocationELN9__gnu_cxx12_Lock_policyE2ELb0ELb0EEptEv
	.cfi_startproc
# %bb.0:
	pushq	%rbp
	.cfi_def_cfa_offset 16
	.cfi_offset %rbp, -16
	movq	%rsp, %rbp
	.cfi_def_cfa_register %rbp
	subq	$16, %rsp
	movq	%rdi, -8(%rbp)
	movq	-8(%rbp), %rdi
	callq	_ZNKSt19__shared_ptr_accessIN5clang18CompilerInvocationELN9__gnu_cxx12_Lock_policyE2ELb0ELb0EE6_M_getEv
	addq	$16, %rsp
	popq	%rbp
	.cfi_def_cfa %rsp, 8
	retq
.Lfunc_end116:
	.size	_ZNKSt19__shared_ptr_accessIN5clang18CompilerInvocationELN9__gnu_cxx12_Lock_policyE2ELb0ELb0EEptEv, .Lfunc_end116-_ZNKSt19__shared_ptr_accessIN5clang18CompilerInvocationELN9__gnu_cxx12_Lock_policyE2ELb0ELb0EEptEv
	.cfi_endproc
                                        # -- End function
	.section	.text._ZN5clang18CompilerInvocation11getLangOptsEv,"axG",@progbits,_ZN5clang18CompilerInvocation11getLangOptsEv,comdat
	.weak	_ZN5clang18CompilerInvocation11getLangOptsEv # -- Begin function _ZN5clang18CompilerInvocation11getLangOptsEv
	.p2align	4
	.type	_ZN5clang18CompilerInvocation11getLangOptsEv,@function
_ZN5clang18CompilerInvocation11getLangOptsEv: # @_ZN5clang18CompilerInvocation11getLangOptsEv
	.cfi_startproc
# %bb.0:
	pushq	%rbp
	.cfi_def_cfa_offset 16
	.cfi_offset %rbp, -16
	movq	%rsp, %rbp
	.cfi_def_cfa_register %rbp
	subq	$16, %rsp
	movq	%rdi, -8(%rbp)
	movq	-8(%rbp), %rdi
	callq	_ZNKSt19__shared_ptr_accessIN5clang11LangOptionsELN9__gnu_cxx12_Lock_policyE2ELb0ELb0EEdeEv
	addq	$16, %rsp
	popq	%rbp
	.cfi_def_cfa %rsp, 8
	retq
.Lfunc_end117:
	.size	_ZN5clang18CompilerInvocation11getLangOptsEv, .Lfunc_end117-_ZN5clang18CompilerInvocation11getLangOptsEv
	.cfi_endproc
                                        # -- End function
	.section	.text._ZNKSt19__shared_ptr_accessIN5clang18CompilerInvocationELN9__gnu_cxx12_Lock_policyE2ELb0ELb0EE6_M_getEv,"axG",@progbits,_ZNKSt19__shared_ptr_accessIN5clang18CompilerInvocationELN9__gnu_cxx12_Lock_policyE2ELb0ELb0EE6_M_getEv,comdat
	.weak	_ZNKSt19__shared_ptr_accessIN5clang18CompilerInvocationELN9__gnu_cxx12_Lock_policyE2ELb0ELb0EE6_M_getEv # -- Begin function _ZNKSt19__shared_ptr_accessIN5clang18CompilerInvocationELN9__gnu_cxx12_Lock_policyE2ELb0ELb0EE6_M_getEv
